GAS LISTING /tmp/cc511rLS.s 			page 1


   1              		.file	"KernelThread.cpp"
   2              		.option pic
   3              		.option norelax
   4              		.text
   5              	.Ltext0:
   6              		.align	2
   7              		.globl	_ZNK12KernelThread10isFinishedEv
   9              	_ZNK12KernelThread10isFinishedEv:
  10              	.LFB28:
  11              		.file 1 "src/KernelThread.cpp"
   1:src/KernelThread.cpp **** 
   2:src/KernelThread.cpp **** #include "../h/KernelThread.hpp"
   3:src/KernelThread.cpp **** #include "../h/Scheduler.hpp"
   4:src/KernelThread.cpp **** #include "../h/RISCV.hpp"
   5:src/KernelThread.cpp **** 
   6:src/KernelThread.cpp **** KernelThread *KernelThread::running = nullptr;
   7:src/KernelThread.cpp **** uint64 KernelThread::timeSliceCounter = 0;
   8:src/KernelThread.cpp **** 
   9:src/KernelThread.cpp **** KernelThread *KernelThread::createThread(Body body, void *argument) {
  10:src/KernelThread.cpp ****     return new KernelThread(body, argument);
  11:src/KernelThread.cpp **** }
  12:src/KernelThread.cpp **** 
  13:src/KernelThread.cpp **** bool KernelThread::isFinished() const {
  12              		.loc 1 13 39
  13              		.cfi_startproc
  14              	.LVL0:
  15 0000 130101FF 		addi	sp,sp,-16
  16              		.cfi_def_cfa_offset 16
  17 0004 23348100 		sd	s0,8(sp)
  18              		.cfi_offset 8, -8
  19 0008 13040101 		addi	s0,sp,16
  20              		.cfi_def_cfa 8, 0
  14:src/KernelThread.cpp ****     return finished;
  21              		.loc 1 14 5
  15:src/KernelThread.cpp **** }
  22              		.loc 1 15 1 is_stmt 0
  23 000c 03458502 		lbu	a0,40(a0)
  24              	.LVL1:
  25 0010 03348100 		ld	s0,8(sp)
  26              		.cfi_restore 8
  27              		.cfi_def_cfa 2, 16
  28 0014 13010101 		addi	sp,sp,16
  29              		.cfi_def_cfa_offset 0
  30 0018 67800000 		jr	ra
  31              		.cfi_endproc
  32              	.LFE28:
  34              		.align	2
  35              		.globl	_ZN12KernelThread11setFinishedEb
  37              	_ZN12KernelThread11setFinishedEb:
  38              	.LFB29:
  16:src/KernelThread.cpp **** 
  17:src/KernelThread.cpp **** void KernelThread::setFinished(bool finished) {
  39              		.loc 1 17 47 is_stmt 1
  40              		.cfi_startproc
  41              	.LVL2:
  42 001c 130101FF 		addi	sp,sp,-16
  43              		.cfi_def_cfa_offset 16
GAS LISTING /tmp/cc511rLS.s 			page 2


  44 0020 23348100 		sd	s0,8(sp)
  45              		.cfi_offset 8, -8
  46 0024 13040101 		addi	s0,sp,16
  47              		.cfi_def_cfa 8, 0
  18:src/KernelThread.cpp ****     KernelThread::finished = finished;
  48              		.loc 1 18 5
  49              		.loc 1 18 28 is_stmt 0
  50 0028 2304B502 		sb	a1,40(a0)
  19:src/KernelThread.cpp **** }
  51              		.loc 1 19 1
  52 002c 03348100 		ld	s0,8(sp)
  53              		.cfi_restore 8
  54              		.cfi_def_cfa 2, 16
  55 0030 13010101 		addi	sp,sp,16
  56              		.cfi_def_cfa_offset 0
  57 0034 67800000 		jr	ra
  58              		.cfi_endproc
  59              	.LFE29:
  61              		.align	2
  62              		.globl	_ZN12KernelThread5yieldEv
  64              	_ZN12KernelThread5yieldEv:
  65              	.LFB30:
  20:src/KernelThread.cpp **** 
  21:src/KernelThread.cpp **** #include "../h/syscall_c.hpp"
  22:src/KernelThread.cpp **** void KernelThread::yield() {
  66              		.loc 1 22 28 is_stmt 1
  67              		.cfi_startproc
  68 0038 130101FF 		addi	sp,sp,-16
  69              		.cfi_def_cfa_offset 16
  70 003c 23341100 		sd	ra,8(sp)
  71 0040 23308100 		sd	s0,0(sp)
  72              		.cfi_offset 1, -8
  73              		.cfi_offset 8, -16
  74 0044 13040101 		addi	s0,sp,16
  75              		.cfi_def_cfa 8, 0
  23:src/KernelThread.cpp ****     thread_dispatch();
  76              		.loc 1 23 5
  77              		.loc 1 23 20 is_stmt 0
  78 0048 97000000 		call	_Z15thread_dispatchv@plt
  78      E7800000 
  79              	.LVL3:
  24:src/KernelThread.cpp **** }
  80              		.loc 1 24 1
  81 0050 83308100 		ld	ra,8(sp)
  82              		.cfi_restore 1
  83 0054 03340100 		ld	s0,0(sp)
  84              		.cfi_restore 8
  85              		.cfi_def_cfa 2, 16
  86 0058 13010101 		addi	sp,sp,16
  87              		.cfi_def_cfa_offset 0
  88 005c 67800000 		jr	ra
  89              		.cfi_endproc
  90              	.LFE30:
  92              		.align	2
  93              		.globl	_ZN12KernelThread7wrapperEv
  95              	_ZN12KernelThread7wrapperEv:
  96              	.LFB32:
GAS LISTING /tmp/cc511rLS.s 			page 3


  25:src/KernelThread.cpp **** 
  26:src/KernelThread.cpp **** void KernelThread::dispatch() {
  27:src/KernelThread.cpp ****     KernelThread *old = running;
  28:src/KernelThread.cpp ****     if (!old->isFinished()) {
  29:src/KernelThread.cpp ****         Scheduler::put(old);
  30:src/KernelThread.cpp ****     }
  31:src/KernelThread.cpp ****     running = Scheduler::get();
  32:src/KernelThread.cpp ****     running->timeSliceCounter = 0;
  33:src/KernelThread.cpp ****     contextSwitch(&old->context, &running->context);
  34:src/KernelThread.cpp **** }
  35:src/KernelThread.cpp **** 
  36:src/KernelThread.cpp **** void KernelThread::wrapper() {
  97              		.loc 1 36 30 is_stmt 1
  98              		.cfi_startproc
  99 0060 130101FE 		addi	sp,sp,-32
 100              		.cfi_def_cfa_offset 32
 101 0064 233C1100 		sd	ra,24(sp)
 102 0068 23388100 		sd	s0,16(sp)
 103 006c 23349100 		sd	s1,8(sp)
 104              		.cfi_offset 1, -8
 105              		.cfi_offset 8, -16
 106              		.cfi_offset 9, -24
 107 0070 13040102 		addi	s0,sp,32
 108              		.cfi_def_cfa 8, 0
  37:src/KernelThread.cpp ****     RISCV::popSppSpie();
 109              		.loc 1 37 5
 110              		.loc 1 37 22 is_stmt 0
 111 0074 97000000 		call	_ZN5RISCV10popSppSpieEv@plt
 111      E7800000 
 112              	.LVL4:
  38:src/KernelThread.cpp ****     running->body(running->argument);
 113              		.loc 1 38 5 is_stmt 1
 114              		.loc 1 38 14 is_stmt 0
 115 007c 97040000 		lla	s1,.LANCHOR0
 115      93840400 
 116 0084 83B70400 		ld	a5,0(s1)
 117 0088 03B70700 		ld	a4,0(a5)
 118              		.loc 1 38 18
 119 008c 03B58700 		ld	a0,8(a5)
 120 0090 E7000700 		jalr	a4
 121              	.LVL5:
  39:src/KernelThread.cpp ****     running->finished = true;
 122              		.loc 1 39 5 is_stmt 1
 123              		.loc 1 39 14 is_stmt 0
 124 0094 83B70400 		ld	a5,0(s1)
 125              		.loc 1 39 23
 126 0098 13071000 		li	a4,1
 127 009c 2384E702 		sb	a4,40(a5)
  40:src/KernelThread.cpp ****     KernelThread::yield();
 128              		.loc 1 40 5 is_stmt 1
 129              		.loc 1 40 24 is_stmt 0
 130 00a0 97000000 		call	_ZN12KernelThread5yieldEv
 130      E7800000 
 131              	.LVL6:
  41:src/KernelThread.cpp **** }
 132              		.loc 1 41 1
 133 00a8 83308101 		ld	ra,24(sp)
GAS LISTING /tmp/cc511rLS.s 			page 4


 134              		.cfi_restore 1
 135 00ac 03340101 		ld	s0,16(sp)
 136              		.cfi_restore 8
 137              		.cfi_def_cfa 2, 32
 138 00b0 83348100 		ld	s1,8(sp)
 139              		.cfi_restore 9
 140 00b4 13010102 		addi	sp,sp,32
 141              		.cfi_def_cfa_offset 0
 142 00b8 67800000 		jr	ra
 143              		.cfi_endproc
 144              	.LFE32:
 146              		.align	2
 147              		.globl	_ZN12KernelThread8dispatchEv
 149              	_ZN12KernelThread8dispatchEv:
 150              	.LFB31:
  26:src/KernelThread.cpp ****     KernelThread *old = running;
 151              		.loc 1 26 31 is_stmt 1
 152              		.cfi_startproc
 153 00bc 130101FE 		addi	sp,sp,-32
 154              		.cfi_def_cfa_offset 32
 155 00c0 233C1100 		sd	ra,24(sp)
 156 00c4 23388100 		sd	s0,16(sp)
 157 00c8 23349100 		sd	s1,8(sp)
 158              		.cfi_offset 1, -8
 159              		.cfi_offset 8, -16
 160              		.cfi_offset 9, -24
 161 00cc 13040102 		addi	s0,sp,32
 162              		.cfi_def_cfa 8, 0
  27:src/KernelThread.cpp ****     if (!old->isFinished()) {
 163              		.loc 1 27 5
  27:src/KernelThread.cpp ****     if (!old->isFinished()) {
 164              		.loc 1 27 19 is_stmt 0
 165 00d0 97040000 		ld	s1,.LANCHOR0
 165      83B40400 
 166              	.LVL7:
  28:src/KernelThread.cpp ****         Scheduler::put(old);
 167              		.loc 1 28 5 is_stmt 1
  28:src/KernelThread.cpp ****         Scheduler::put(old);
 168              		.loc 1 28 25 is_stmt 0
 169 00d8 13850400 		mv	a0,s1
 170 00dc 97000000 		call	_ZNK12KernelThread10isFinishedEv
 170      E7800000 
 171              	.LVL8:
  28:src/KernelThread.cpp ****         Scheduler::put(old);
 172              		.loc 1 28 5
 173 00e4 63000504 		beqz	a0,.L12
 174              	.L10:
  31:src/KernelThread.cpp ****     running->timeSliceCounter = 0;
 175              		.loc 1 31 5 is_stmt 1
  31:src/KernelThread.cpp ****     running->timeSliceCounter = 0;
 176              		.loc 1 31 29 is_stmt 0
 177 00e8 97000000 		call	_ZN9Scheduler3getEv@plt
 177      E7800000 
 178              	.LVL9:
  31:src/KernelThread.cpp ****     running->timeSliceCounter = 0;
 179              		.loc 1 31 13
 180 00f0 97070000 		lla	a5,.LANCHOR0
GAS LISTING /tmp/cc511rLS.s 			page 5


 180      93870700 
 181 00f8 23B0A700 		sd	a0,0(a5)
  32:src/KernelThread.cpp ****     contextSwitch(&old->context, &running->context);
 182              		.loc 1 32 5 is_stmt 1
  32:src/KernelThread.cpp ****     contextSwitch(&old->context, &running->context);
 183              		.loc 1 32 31 is_stmt 0
 184 00fc 23B40700 		sd	zero,8(a5)
  33:src/KernelThread.cpp **** }
 185              		.loc 1 33 5 is_stmt 1
  33:src/KernelThread.cpp **** }
 186              		.loc 1 33 18 is_stmt 0
 187 0100 93058501 		addi	a1,a0,24
 188 0104 13858401 		addi	a0,s1,24
 189 0108 97000000 		call	_ZN12KernelThread13contextSwitchEPNS_7ContextES1_@plt
 189      E7800000 
 190              	.LVL10:
  34:src/KernelThread.cpp **** 
 191              		.loc 1 34 1
 192 0110 83308101 		ld	ra,24(sp)
 193              		.cfi_remember_state
 194              		.cfi_restore 1
 195 0114 03340101 		ld	s0,16(sp)
 196              		.cfi_restore 8
 197              		.cfi_def_cfa 2, 32
 198 0118 83348100 		ld	s1,8(sp)
 199              		.cfi_restore 9
 200              	.LVL11:
 201 011c 13010102 		addi	sp,sp,32
 202              		.cfi_def_cfa_offset 0
 203 0120 67800000 		jr	ra
 204              	.LVL12:
 205              	.L12:
 206              		.cfi_restore_state
  29:src/KernelThread.cpp ****     }
 207              		.loc 1 29 9 is_stmt 1
  29:src/KernelThread.cpp ****     }
 208              		.loc 1 29 23 is_stmt 0
 209 0124 13850400 		mv	a0,s1
 210 0128 97000000 		call	_ZN9Scheduler3putEP12KernelThread@plt
 210      E7800000 
 211              	.LVL13:
 212 0130 6FF09FFB 		j	.L10
 213              		.cfi_endproc
 214              	.LFE31:
 216              		.align	2
 217              		.globl	_ZN12KernelThreadD2Ev
 219              	_ZN12KernelThreadD2Ev:
 220              	.LFB34:
  42:src/KernelThread.cpp **** 
  43:src/KernelThread.cpp **** KernelThread::~KernelThread() {
 221              		.loc 1 43 1 is_stmt 1
 222              		.cfi_startproc
 223              		.cfi_personality 0x9b,DW.ref.__gxx_personality_v0
 224              		.cfi_lsda 0x1b,.LLSDA34
 225              	.LVL14:
 226 0134 130101FF 		addi	sp,sp,-16
 227              		.cfi_def_cfa_offset 16
GAS LISTING /tmp/cc511rLS.s 			page 6


 228 0138 23341100 		sd	ra,8(sp)
 229 013c 23308100 		sd	s0,0(sp)
 230              		.cfi_offset 1, -8
 231              		.cfi_offset 8, -16
 232 0140 13040101 		addi	s0,sp,16
 233              		.cfi_def_cfa 8, 0
 234              	.LBB2:
  44:src/KernelThread.cpp ****     kfree(stack);
 235              		.loc 1 44 5
 236              		.loc 1 44 10 is_stmt 0
 237 0144 03350501 		ld	a0,16(a0)
 238              	.LVL15:
 239 0148 97000000 		call	_Z5kfreePv@plt
 239      E7800000 
 240              	.LVL16:
 241              	.LBE2:
  45:src/KernelThread.cpp **** }
 242              		.loc 1 45 1
 243 0150 83308100 		ld	ra,8(sp)
 244              		.cfi_restore 1
 245 0154 03340100 		ld	s0,0(sp)
 246              		.cfi_restore 8
 247              		.cfi_def_cfa 2, 16
 248 0158 13010101 		addi	sp,sp,16
 249              		.cfi_def_cfa_offset 0
 250 015c 67800000 		jr	ra
 251              		.cfi_endproc
 252              	.LFE34:
 253              		.globl	__gxx_personality_v0
 254              		.section	.gcc_except_table,"a",@progbits
 255              	.LLSDA34:
 256 0000 FF       		.byte	0xff
 257 0001 FF       		.byte	0xff
 258 0002 03       		.byte	0x3
 259 0003 00       		.byte	0
 260              		.text
 262              		.globl	_ZN12KernelThreadD1Ev
 263              		.set	_ZN12KernelThreadD1Ev,_ZN12KernelThreadD2Ev
 264              		.align	2
 265              		.globl	_ZNK12KernelThread18getInterruptResultEv
 267              	_ZNK12KernelThread18getInterruptResultEv:
 268              	.LFB36:
  46:src/KernelThread.cpp **** 
  47:src/KernelThread.cpp **** uint64 KernelThread::getInterruptResult() const {
 269              		.loc 1 47 49 is_stmt 1
 270              		.cfi_startproc
 271              	.LVL17:
 272 0160 130101FF 		addi	sp,sp,-16
 273              		.cfi_def_cfa_offset 16
 274 0164 23348100 		sd	s0,8(sp)
 275              		.cfi_offset 8, -8
 276 0168 13040101 		addi	s0,sp,16
 277              		.cfi_def_cfa 8, 0
  48:src/KernelThread.cpp ****     return interruptResult;
 278              		.loc 1 48 5
  49:src/KernelThread.cpp **** }
 279              		.loc 1 49 1 is_stmt 0
GAS LISTING /tmp/cc511rLS.s 			page 7


 280 016c 03358503 		ld	a0,56(a0)
 281              	.LVL18:
 282 0170 03348100 		ld	s0,8(sp)
 283              		.cfi_restore 8
 284              		.cfi_def_cfa 2, 16
 285 0174 13010101 		addi	sp,sp,16
 286              		.cfi_def_cfa_offset 0
 287 0178 67800000 		jr	ra
 288              		.cfi_endproc
 289              	.LFE36:
 291              		.align	2
 292              		.globl	_ZN12KernelThreadC2EPFvPvES0_
 294              	_ZN12KernelThreadC2EPFvPvES0_:
 295              	.LFB38:
  50:src/KernelThread.cpp **** 
  51:src/KernelThread.cpp **** KernelThread::KernelThread(Body body, void *argument)
 296              		.loc 1 51 1 is_stmt 1
 297              		.cfi_startproc
 298              	.LVL19:
 299 017c 130101FE 		addi	sp,sp,-32
 300              		.cfi_def_cfa_offset 32
 301 0180 233C1100 		sd	ra,24(sp)
 302 0184 23388100 		sd	s0,16(sp)
 303 0188 23349100 		sd	s1,8(sp)
 304 018c 23302101 		sd	s2,0(sp)
 305              		.cfi_offset 1, -8
 306              		.cfi_offset 8, -16
 307              		.cfi_offset 9, -24
 308              		.cfi_offset 18, -32
 309 0190 13040102 		addi	s0,sp,32
 310              		.cfi_def_cfa 8, 0
 311 0194 93040500 		mv	s1,a0
 312 0198 13890500 		mv	s2,a1
 313              	.LBB3:
  52:src/KernelThread.cpp ****     : body(body), argument(argument),
  53:src/KernelThread.cpp ****       stack(body ? (uint64 *) kmalloc(DEFAULT_STACK_SIZE * sizeof(uint64)) : nullptr),
  54:src/KernelThread.cpp ****       context({(uint64) &wrapper, stack ? (uint64)&stack[DEFAULT_STACK_SIZE] : 0}),
  55:src/KernelThread.cpp ****       finished(false) {
 314              		.loc 1 55 21 is_stmt 0
 315 019c 2330B500 		sd	a1,0(a0)
 316 01a0 2334C500 		sd	a2,8(a0)
  53:src/KernelThread.cpp ****       context({(uint64) &wrapper, stack ? (uint64)&stack[DEFAULT_STACK_SIZE] : 0}),
 317              		.loc 1 53 18
 318 01a4 638E0504 		beqz	a1,.L21
  53:src/KernelThread.cpp ****       context({(uint64) &wrapper, stack ? (uint64)&stack[DEFAULT_STACK_SIZE] : 0}),
 319              		.loc 1 53 38 discriminator 1
 320 01a8 37850000 		li	a0,32768
 321              	.LVL20:
 322 01ac 97000000 		call	_Z7kmallocm@plt
 322      E7800000 
 323              	.LVL21:
 324              	.L18:
 325              		.loc 1 55 21
 326 01b4 23B8A400 		sd	a0,16(s1)
 327 01b8 97070000 		lla	a5,_ZN12KernelThread7wrapperEv
 327      93870700 
 328 01c0 23BCF400 		sd	a5,24(s1)
GAS LISTING /tmp/cc511rLS.s 			page 8


  54:src/KernelThread.cpp ****       finished(false) {
 329              		.loc 1 54 41
 330 01c4 63020504 		beqz	a0,.L22
  54:src/KernelThread.cpp ****       finished(false) {
 331              		.loc 1 54 51 discriminator 1
 332 01c8 B7870000 		li	a5,32768
 333 01cc 3305F500 		add	a0,a0,a5
 334              	.L19:
 335              		.loc 1 55 21
 336 01d0 23B0A402 		sd	a0,32(s1)
 337 01d4 23840402 		sb	zero,40(s1)
  56:src/KernelThread.cpp ****     if (body) {
 338              		.loc 1 56 5 is_stmt 1
 339 01d8 63080900 		beqz	s2,.L17
  57:src/KernelThread.cpp ****         Scheduler::put(this);
 340              		.loc 1 57 9
 341              		.loc 1 57 23 is_stmt 0
 342 01dc 13850400 		mv	a0,s1
 343 01e0 97000000 		call	_ZN9Scheduler3putEP12KernelThread@plt
 343      E7800000 
 344              	.LVL22:
 345              	.L17:
 346              	.LBE3:
  58:src/KernelThread.cpp ****     }
  59:src/KernelThread.cpp **** }...
 347              		.loc 1 59 1
 348 01e8 83308101 		ld	ra,24(sp)
 349              		.cfi_remember_state
 350              		.cfi_restore 1
 351 01ec 03340101 		ld	s0,16(sp)
 352              		.cfi_restore 8
 353              		.cfi_def_cfa 2, 32
 354 01f0 83348100 		ld	s1,8(sp)
 355              		.cfi_restore 9
 356              	.LVL23:
 357 01f4 03390100 		ld	s2,0(sp)
 358              		.cfi_restore 18
 359              	.LVL24:
 360 01f8 13010102 		addi	sp,sp,32
 361              		.cfi_def_cfa_offset 0
 362 01fc 67800000 		jr	ra
 363              	.LVL25:
 364              	.L21:
 365              		.cfi_restore_state
 366              	.LBB4:
  53:src/KernelThread.cpp ****       stack(body ? (uint64 *) kmalloc(DEFAULT_STACK_SIZE * sizeof(uint64)) : nullptr),
 367              		.loc 1 53 18
 368 0200 13050000 		li	a0,0
 369 0204 6FF01FFB 		j	.L18
 370              	.LVL26:
 371              	.L22:
  54:src/KernelThread.cpp ****       context({(uint64) &wrapper, stack ? (uint64)&stack[DEFAULT_STACK_SIZE] : 0}),
 372              		.loc 1 54 41
 373 0208 13050000 		li	a0,0
 374 020c 6FF05FFC 		j	.L19
 375              	.LBE4:
 376              		.cfi_endproc
GAS LISTING /tmp/cc511rLS.s 			page 9


 377              	.LFE38:
 379              		.globl	_ZN12KernelThreadC1EPFvPvES0_
 380              		.set	_ZN12KernelThreadC1EPFvPvES0_,_ZN12KernelThreadC2EPFvPvES0_
 381              		.align	2
 382              		.globl	_ZN12KernelThread12createThreadEPFvPvES0_
 384              	_ZN12KernelThread12createThreadEPFvPvES0_:
 385              	.LFB27:
   9:src/KernelThread.cpp **** KernelThread *KernelThread::createThread(Body body, void *argument) {
 386              		.loc 1 9 69 is_stmt 1
 387              		.cfi_startproc
 388              		.cfi_personality 0x9b,DW.ref.__gxx_personality_v0
 389              		.cfi_lsda 0x1b,.LLSDA27
 390              	.LVL27:
 391 0210 130101FD 		addi	sp,sp,-48
 392              		.cfi_def_cfa_offset 48
 393 0214 23341102 		sd	ra,40(sp)
 394 0218 23308102 		sd	s0,32(sp)
 395 021c 233C9100 		sd	s1,24(sp)
 396 0220 23382101 		sd	s2,16(sp)
 397 0224 23343101 		sd	s3,8(sp)
 398              		.cfi_offset 1, -8
 399              		.cfi_offset 8, -16
 400              		.cfi_offset 9, -24
 401              		.cfi_offset 18, -32
 402              		.cfi_offset 19, -40
 403 0228 13040103 		addi	s0,sp,48
 404              		.cfi_def_cfa 8, 0
 405 022c 13090500 		mv	s2,a0
 406 0230 93890500 		mv	s3,a1
  10:src/KernelThread.cpp ****     return new KernelThread(body, argument);
 407              		.loc 1 10 5
  10:src/KernelThread.cpp ****     return new KernelThread(body, argument);
 408              		.loc 1 10 43 is_stmt 0
 409 0234 13050004 		li	a0,64
 410              	.LVL28:
 411              	.LEHB0:
 412 0238 97000000 		call	_ZN11KernelClassnwEm@plt
 412      E7800000 
 413              	.LVL29:
 414              	.LEHE0:
 415 0240 93040500 		mv	s1,a0
 416 0244 13860900 		mv	a2,s3
 417 0248 93050900 		mv	a1,s2
 418              	.LEHB1:
 419 024c 97000000 		call	_ZN12KernelThreadC1EPFvPvES0_
 419      E7800000 
 420              	.LVL30:
 421              	.LEHE1:
 422 0254 6F000002 		j	.L29
 423              	.L26:
 424 0258 13090500 		mv	s2,a0
 425              	.LVL31:
 426 025c 13850400 		mv	a0,s1
 427 0260 97000000 		call	_ZN11KernelClassdlEPv@plt
 427      E7800000 
 428              	.LVL32:
 429 0268 13050900 		mv	a0,s2
GAS LISTING /tmp/cc511rLS.s 			page 10


 430              	.LEHB2:
 431 026c 97000000 		call	_Unwind_Resume@plt
 431      E7800000 
 432              	.LVL33:
 433              	.LEHE2:
 434              	.L29:
  11:src/KernelThread.cpp **** }
 435              		.loc 1 11 1
 436 0274 13850400 		mv	a0,s1
 437 0278 83308102 		ld	ra,40(sp)
 438              		.cfi_restore 1
 439 027c 03340102 		ld	s0,32(sp)
 440              		.cfi_restore 8
 441              		.cfi_def_cfa 2, 48
 442 0280 83348101 		ld	s1,24(sp)
 443              		.cfi_restore 9
 444 0284 03390101 		ld	s2,16(sp)
 445              		.cfi_restore 18
 446              	.LVL34:
 447 0288 83398100 		ld	s3,8(sp)
 448              		.cfi_restore 19
 449              	.LVL35:
 450 028c 13010103 		addi	sp,sp,48
 451              		.cfi_def_cfa_offset 0
 452 0290 67800000 		jr	ra
 453              		.cfi_endproc
 454              	.LFE27:
 455              		.section	.gcc_except_table
 456              	.LLSDA27:
 457 0004 FF       		.byte	0xff
 458 0005 FF       		.byte	0xff
 459 0006 03       		.byte	0x3
 460 0007 27       		.byte	0x27
 461 0008 00000000 		.4byte	.LEHB0-.LFB27
 462 000c 00000000 		.4byte	.LEHE0-.LEHB0
 463 0010 00000000 		.4byte	0
 464 0014 00       		.byte	0
 465 0015 00000000 		.4byte	.LEHB1-.LFB27
 466 0019 00000000 		.4byte	.LEHE1-.LEHB1
 467 001d 00000000 		.4byte	.L26-.LFB27
 468 0021 00       		.byte	0
 469 0022 00000000 		.4byte	.LEHB2-.LFB27
 470 0026 00000000 		.4byte	.LEHE2-.LEHB2
 471 002a 00000000 		.4byte	0
 472 002e 00       		.byte	0
 473              		.text
 475              		.globl	_ZN12KernelThread16timeSliceCounterE
 476              		.globl	_ZN12KernelThread7runningE
 477              		.bss
 478              		.align	3
 479              		.set	.LANCHOR0,. + 0
 482              	_ZN12KernelThread7runningE:
 483 0000 00000000 		.zero	8
 483      00000000 
 486              	_ZN12KernelThread16timeSliceCounterE:
 487 0008 00000000 		.zero	8
 487      00000000 
GAS LISTING /tmp/cc511rLS.s 			page 11


 488              		.text
 489              	.Letext0:
 490              		.file 2 "src/../h/../lib/hw.h"
 491              		.file 3 "src/../h/../h/KernelClass.hpp"
 492              		.file 4 "src/../h/KernelThread.hpp"
 493              		.file 5 "src/../h/Scheduler.hpp"
 494              		.file 6 "src/../h/RISCV.hpp"
 495              		.file 7 "src/../h/syscall_c.hpp"
 2961              		.align	3
 2964              	DW.ref.__gxx_personality_v0:
 2965 0000 00000000 		.dword	__gxx_personality_v0
 2965      00000000 
 2966              		.ident	"GCC: (Ubuntu 9.4.0-1ubuntu1~20.04) 9.4.0"
 2967              		.section	.note.GNU-stack,"",@progbits
GAS LISTING /tmp/cc511rLS.s 			page 12

