GAS LISTING /tmp/ccGfCJxe.s 			page 1


   1              		.file	"KernelConsole.cpp"
   2              		.option pic
   3              		.option norelax
   4              		.text
   5              	.Ltext0:
   6              		.align	2
   7              		.globl	_ZN13KernelConsole11getInstanceEv
   9              	_ZN13KernelConsole11getInstanceEv:
  10              	.LFB18:
  11              		.file 1 "src/KernelConsole.cpp"
   1:src/KernelConsole.cpp **** #include "../h/KernelConsole.hpp"
   2:src/KernelConsole.cpp **** 
   3:src/KernelConsole.cpp **** KernelConsole *KernelConsole::instance = nullptr;
   4:src/KernelConsole.cpp **** 
   5:src/KernelConsole.cpp **** KernelConsole &KernelConsole::getInstance() {
  12              		.loc 1 5 45
  13              		.cfi_startproc
  14              		.cfi_personality 0x9b,DW.ref.__gxx_personality_v0
  15              		.cfi_lsda 0x1b,.LLSDA18
   6:src/KernelConsole.cpp ****     if (!instance) {
  16              		.loc 1 6 5
  17              		.loc 1 6 9 is_stmt 0
  18 0000 97070000 		ld	a5,.LANCHOR0
  18      83B70700 
  19              		.loc 1 6 5
  20 0008 63880700 		beqz	a5,.L15
   7:src/KernelConsole.cpp ****         instance = new KernelConsole;
   8:src/KernelConsole.cpp ****     }
   9:src/KernelConsole.cpp ****     return *instance;
  21              		.loc 1 9 5 is_stmt 1
  22              		.loc 1 9 13 is_stmt 0
  23 000c 17050000 		ld	a0,.LANCHOR0
  23      03350500 
  10:src/KernelConsole.cpp **** }
  24              		.loc 1 10 1
  25 0014 67800000 		ret
  26              	.L15:
   5:src/KernelConsole.cpp ****     if (!instance) {
  27              		.loc 1 5 45
  28 0018 130101FD 		addi	sp,sp,-48
  29              		.cfi_def_cfa_offset 48
  30 001c 23341102 		sd	ra,40(sp)
  31 0020 23308102 		sd	s0,32(sp)
  32 0024 233C9100 		sd	s1,24(sp)
  33 0028 23382101 		sd	s2,16(sp)
  34 002c 23343101 		sd	s3,8(sp)
  35              		.cfi_offset 1, -8
  36              		.cfi_offset 8, -16
  37              		.cfi_offset 9, -24
  38              		.cfi_offset 18, -32
  39              		.cfi_offset 19, -40
  40 0030 13040103 		addi	s0,sp,48
  41              		.cfi_def_cfa 8, 0
   7:src/KernelConsole.cpp ****         instance = new KernelConsole;
  42              		.loc 1 7 9 is_stmt 1
   7:src/KernelConsole.cpp ****         instance = new KernelConsole;
  43              		.loc 1 7 24 is_stmt 0
GAS LISTING /tmp/ccGfCJxe.s 			page 2


  44 0034 13058044 		li	a0,1096
  45              	.LEHB0:
  46 0038 97000000 		call	_ZN11KernelClassnwEm@plt
  46      E7800000 
  47              	.LVL0:
  48              	.LEHE0:
  49 0040 93040500 		mv	s1,a0
  50              	.LVL1:
  51              	.LBB14:
  52              	.LBB15:
  53              		.file 2 "src/../h/KernelConsole.hpp"
   1:src/../h/KernelConsole.hpp **** #ifndef NOVI_PROJEKAT_KERNELCONSOLE_HPP
   2:src/../h/KernelConsole.hpp **** #define NOVI_PROJEKAT_KERNELCONSOLE_HPP
   3:src/../h/KernelConsole.hpp **** 
   4:src/../h/KernelConsole.hpp **** #include "KernelClass.hpp"
   5:src/../h/KernelConsole.hpp **** #include "KernelSemaphore.hpp"
   6:src/../h/KernelConsole.hpp **** #include "Buffer.hpp"
   7:src/../h/KernelConsole.hpp **** 
   8:src/../h/KernelConsole.hpp **** class KernelConsole : public KernelClass {
   9:src/../h/KernelConsole.hpp **** public:
  10:src/../h/KernelConsole.hpp ****     static Buffer<char> &getInput();
  11:src/../h/KernelConsole.hpp ****     static Buffer<char> &getOutput();
  12:src/../h/KernelConsole.hpp **** private:
  13:src/../h/KernelConsole.hpp ****     KernelConsole() = default;
  54              		.loc 2 13 5
  55 0044 13098500 		addi	s2,a0,8
  56              	.LVL2:
  57              	.LBB16:
  58              	.LBB17:
  59              		.file 3 "src/../h/Buffer.hpp"
   1:src/../h/Buffer.hpp **** #ifndef NOVI_PROJEKAT_BUFFER_HPP
   2:src/../h/Buffer.hpp **** #define NOVI_PROJEKAT_BUFFER_HPP
   3:src/../h/Buffer.hpp **** 
   4:src/../h/Buffer.hpp **** #include "KernelSemaphore.hpp"
   5:src/../h/Buffer.hpp **** 
   6:src/../h/Buffer.hpp **** template <typename T>
   7:src/../h/Buffer.hpp **** class Buffer : KernelClass {
   8:src/../h/Buffer.hpp **** public:
   9:src/../h/Buffer.hpp ****     static constexpr uint64 N = 512;
  10:src/../h/Buffer.hpp **** 
  11:src/../h/Buffer.hpp ****     Buffer() : mutex(KernelSemaphore::createKernelSemaphore(1)),
  60              		.loc 3 11 60
  61 0048 13051000 		li	a0,1
  62              	.LEHB1:
  63 004c 97000000 		call	_ZN15KernelSemaphore21createKernelSemaphoreEm@plt
  63      E7800000 
  64              	.LVL3:
  12:src/../h/Buffer.hpp ****                spaceAvailable(KernelSemaphore::createKernelSemaphore(N)),
  13:src/../h/Buffer.hpp ****                itemAvailable(KernelSemaphore::createKernelSemaphore(0)),
  14:src/../h/Buffer.hpp ****                head(0), tail(0) {}
  65              		.loc 3 14 31
  66 0054 23B4A400 		sd	a0,8(s1)
  12:src/../h/Buffer.hpp ****                spaceAvailable(KernelSemaphore::createKernelSemaphore(N)),
  67              		.loc 3 12 69
  68 0058 13050020 		li	a0,512
  69 005c 97000000 		call	_ZN15KernelSemaphore21createKernelSemaphoreEm@plt
  69      E7800000 
GAS LISTING /tmp/ccGfCJxe.s 			page 3


  70              	.LVL4:
  71              		.loc 3 14 31
  72 0064 2334A900 		sd	a0,8(s2)
  13:src/../h/Buffer.hpp ****                head(0), tail(0) {}
  73              		.loc 3 13 68
  74 0068 13050000 		li	a0,0
  75 006c 97000000 		call	_ZN15KernelSemaphore21createKernelSemaphoreEm@plt
  75      E7800000 
  76              	.LVL5:
  77              	.LEHE1:
  78              		.loc 3 14 31
  79 0074 2338A900 		sd	a0,16(s2)
  80 0078 232C0920 		sw	zero,536(s2)
  81 007c 232E0920 		sw	zero,540(s2)
  82              	.LVL6:
  83              	.LBE17:
  84              	.LBE16:
  85              		.loc 2 13 5
  86 0080 93898422 		addi	s3,s1,552
  87              	.LVL7:
  88              	.LBB18:
  89              	.LBB19:
  11:src/../h/Buffer.hpp ****                spaceAvailable(KernelSemaphore::createKernelSemaphore(N)),
  90              		.loc 3 11 60
  91 0084 13051000 		li	a0,1
  92              	.LEHB2:
  93 0088 97000000 		call	_ZN15KernelSemaphore21createKernelSemaphoreEm@plt
  93      E7800000 
  94              	.LVL8:
  95              		.loc 3 14 31
  96 0090 23B4A422 		sd	a0,552(s1)
  12:src/../h/Buffer.hpp ****                spaceAvailable(KernelSemaphore::createKernelSemaphore(N)),
  97              		.loc 3 12 69
  98 0094 13050020 		li	a0,512
  99 0098 97000000 		call	_ZN15KernelSemaphore21createKernelSemaphoreEm@plt
  99      E7800000 
 100              	.LVL9:
 101              		.loc 3 14 31
 102 00a0 23B4A900 		sd	a0,8(s3)
  13:src/../h/Buffer.hpp ****                head(0), tail(0) {}
 103              		.loc 3 13 68
 104 00a4 13050000 		li	a0,0
 105 00a8 97000000 		call	_ZN15KernelSemaphore21createKernelSemaphoreEm@plt
 105      E7800000 
 106              	.LVL10:
 107              	.LEHE2:
 108              		.loc 3 14 31
 109 00b0 23B8A900 		sd	a0,16(s3)
 110 00b4 23AC0920 		sw	zero,536(s3)
 111 00b8 23AE0920 		sw	zero,540(s3)
 112              	.LVL11:
 113              	.LBE19:
 114              	.LBE18:
 115              	.LBE15:
 116              	.LBE14:
   7:src/KernelConsole.cpp ****     }
 117              		.loc 1 7 18
GAS LISTING /tmp/ccGfCJxe.s 			page 4


 118 00bc 97070000 		sd	s1,.LANCHOR0,a5
 118      23B09700 
   9:src/KernelConsole.cpp **** }
 119              		.loc 1 9 5 is_stmt 1
   9:src/KernelConsole.cpp **** }
 120              		.loc 1 9 13 is_stmt 0
 121 00c4 17050000 		ld	a0,.LANCHOR0
 121      03350500 
 122              		.loc 1 10 1
 123 00cc 83308102 		ld	ra,40(sp)
 124              		.cfi_remember_state
 125              		.cfi_restore 1
 126 00d0 03340102 		ld	s0,32(sp)
 127              		.cfi_restore 8
 128              		.cfi_def_cfa 2, 48
 129 00d4 83348101 		ld	s1,24(sp)
 130              		.cfi_restore 9
 131 00d8 03390101 		ld	s2,16(sp)
 132              		.cfi_restore 18
 133 00dc 83398100 		ld	s3,8(sp)
 134              		.cfi_restore 19
 135 00e0 13010103 		addi	sp,sp,48
 136              		.cfi_def_cfa_offset 0
 137 00e4 67800000 		jr	ra
 138              	.LVL12:
 139              	.L9:
 140              		.cfi_restore_state
 141 00e8 93090500 		mv	s3,a0
 142              	.LVL13:
 143              	.LBB23:
 144              	.LBB22:
 145              	.LBB20:
 146              	.LBB21:
  15:src/../h/Buffer.hpp **** 
  16:src/../h/Buffer.hpp ****     void append(T data) {
  17:src/../h/Buffer.hpp ****         spaceAvailable->wait();
  18:src/../h/Buffer.hpp ****         mutex->wait();
  19:src/../h/Buffer.hpp ****         buffer[tail] = data;
  20:src/../h/Buffer.hpp ****         tail = (tail + 1) % N;
  21:src/../h/Buffer.hpp ****         mutex->signal();
  22:src/../h/Buffer.hpp ****         itemAvailable->signal();
  23:src/../h/Buffer.hpp ****     }
  24:src/../h/Buffer.hpp **** 
  25:src/../h/Buffer.hpp ****     T take() {
  26:src/../h/Buffer.hpp ****         itemAvailable->wait();
  27:src/../h/Buffer.hpp ****         mutex->wait();
  28:src/../h/Buffer.hpp ****         T data = buffer[head];
  29:src/../h/Buffer.hpp ****         head = (head + 1) % N;
  30:src/../h/Buffer.hpp ****         mutex->signal();
  31:src/../h/Buffer.hpp ****         spaceAvailable->signal();
  32:src/../h/Buffer.hpp ****         return data;
  33:src/../h/Buffer.hpp ****     }
  34:src/../h/Buffer.hpp **** 
  35:src/../h/Buffer.hpp ****     bool isEmpty() const {
  36:src/../h/Buffer.hpp ****         mutex->wait();
  37:src/../h/Buffer.hpp ****         bool result = head == tail;
  38:src/../h/Buffer.hpp ****         mutex->signal();
GAS LISTING /tmp/ccGfCJxe.s 			page 5


  39:src/../h/Buffer.hpp ****         return result;
  40:src/../h/Buffer.hpp ****     }
  41:src/../h/Buffer.hpp **** 
  42:src/../h/Buffer.hpp ****     ~Buffer() {
  43:src/../h/Buffer.hpp ****         mutex->close();
 147              		.loc 3 43 21
 148 00ec 03B58400 		ld	a0,8(s1)
 149 00f0 97000000 		call	_ZN15KernelSemaphore5closeEv@plt
 149      E7800000 
 150              	.LVL14:
  44:src/../h/Buffer.hpp ****         itemAvailable->close();
 151              		.loc 3 44 29
 152 00f8 03350901 		ld	a0,16(s2)
 153 00fc 97000000 		call	_ZN15KernelSemaphore5closeEv@plt
 153      E7800000 
 154              	.LVL15:
  45:src/../h/Buffer.hpp ****         spaceAvailable->close();
 155              		.loc 3 45 30
 156 0104 03358900 		ld	a0,8(s2)
 157 0108 97000000 		call	_ZN15KernelSemaphore5closeEv@plt
 157      E7800000 
 158              	.LVL16:
  46:src/../h/Buffer.hpp ****         delete mutex;
 159              		.loc 3 46 16
 160 0110 03B58400 		ld	a0,8(s1)
 161              		.loc 3 46 9
 162 0114 63060500 		beqz	a0,.L4
 163 0118 97000000 		call	_ZN11KernelClassdlEPv@plt
 163      E7800000 
 164              	.LVL17:
 165              	.L4:
  47:src/../h/Buffer.hpp ****         delete itemAvailable;
 166              		.loc 3 47 16
 167 0120 03350901 		ld	a0,16(s2)
 168              		.loc 3 47 9
 169 0124 63060500 		beqz	a0,.L5
 170 0128 97000000 		call	_ZN11KernelClassdlEPv@plt
 170      E7800000 
 171              	.LVL18:
 172              	.L5:
  48:src/../h/Buffer.hpp ****         delete spaceAvailable;
 173              		.loc 3 48 16
 174 0130 03358900 		ld	a0,8(s2)
 175              		.loc 3 48 9
 176 0134 63060500 		beqz	a0,.L7
 177 0138 97000000 		call	_ZN11KernelClassdlEPv@plt
 177      E7800000 
 178              	.LVL19:
 179              	.L7:
 180              	.LBE21:
 181              	.LBE20:
 182              	.LBE22:
 183              	.LBE23:
   7:src/KernelConsole.cpp ****     }
 184              		.loc 1 7 24 discriminator 1
 185 0140 13850400 		mv	a0,s1
 186 0144 97000000 		call	_ZN11KernelClassdlEPv@plt
GAS LISTING /tmp/ccGfCJxe.s 			page 6


 186      E7800000 
 187              	.LVL20:
 188 014c 13850900 		mv	a0,s3
 189              	.LEHB3:
 190 0150 97000000 		call	_Unwind_Resume@plt
 190      E7800000 
 191              	.LVL21:
 192              	.LEHE3:
 193              	.L8:
 194 0158 93090500 		mv	s3,a0
 195 015c 6FF05FFE 		j	.L7
 196              		.cfi_endproc
 197              	.LFE18:
 198              		.globl	__gxx_personality_v0
 199              		.section	.gcc_except_table,"a",@progbits
 200              	.LLSDA18:
 201 0000 FF       		.byte	0xff
 202 0001 FF       		.byte	0xff
 203 0002 03       		.byte	0x3
 204 0003 34       		.byte	0x34
 205 0004 00000000 		.4byte	.LEHB0-.LFB18
 206 0008 00000000 		.4byte	.LEHE0-.LEHB0
 207 000c 00000000 		.4byte	0
 208 0010 00       		.byte	0
 209 0011 00000000 		.4byte	.LEHB1-.LFB18
 210 0015 00000000 		.4byte	.LEHE1-.LEHB1
 211 0019 00000000 		.4byte	.L8-.LFB18
 212 001d 00       		.byte	0
 213 001e 00000000 		.4byte	.LEHB2-.LFB18
 214 0022 00000000 		.4byte	.LEHE2-.LEHB2
 215 0026 00000000 		.4byte	.L9-.LFB18
 216 002a 00       		.byte	0
 217 002b 00000000 		.4byte	.LEHB3-.LFB18
 218 002f 00000000 		.4byte	.LEHE3-.LEHB3
 219 0033 00000000 		.4byte	0
 220 0037 00       		.byte	0
 221              		.text
 223              		.align	2
 224              		.globl	_ZN13KernelConsole8getInputEv
 226              	_ZN13KernelConsole8getInputEv:
 227              	.LFB22:
  11:src/KernelConsole.cpp **** 
  12:src/KernelConsole.cpp **** Buffer<char> &KernelConsole::getInput() {
 228              		.loc 1 12 41 is_stmt 1
 229              		.cfi_startproc
 230 0160 130101FF 		addi	sp,sp,-16
 231              		.cfi_def_cfa_offset 16
 232 0164 23341100 		sd	ra,8(sp)
 233 0168 23308100 		sd	s0,0(sp)
 234              		.cfi_offset 1, -8
 235              		.cfi_offset 8, -16
 236 016c 13040101 		addi	s0,sp,16
 237              		.cfi_def_cfa 8, 0
  13:src/KernelConsole.cpp ****     return getInstance().input;
 238              		.loc 1 13 5
 239              		.loc 1 13 24 is_stmt 0
 240 0170 97000000 		call	_ZN13KernelConsole11getInstanceEv
GAS LISTING /tmp/ccGfCJxe.s 			page 7


 240      E7800000 
 241              	.LVL22:
  14:src/KernelConsole.cpp **** }
 242              		.loc 1 14 1
 243 0178 13058500 		addi	a0,a0,8
 244 017c 83308100 		ld	ra,8(sp)
 245              		.cfi_restore 1
 246 0180 03340100 		ld	s0,0(sp)
 247              		.cfi_restore 8
 248              		.cfi_def_cfa 2, 16
 249 0184 13010101 		addi	sp,sp,16
 250              		.cfi_def_cfa_offset 0
 251 0188 67800000 		jr	ra
 252              		.cfi_endproc
 253              	.LFE22:
 255              		.align	2
 256              		.globl	_ZN13KernelConsole9getOutputEv
 258              	_ZN13KernelConsole9getOutputEv:
 259              	.LFB23:
  15:src/KernelConsole.cpp **** 
  16:src/KernelConsole.cpp **** Buffer<char> &KernelConsole::getOutput() {
 260              		.loc 1 16 42 is_stmt 1
 261              		.cfi_startproc
 262 018c 130101FF 		addi	sp,sp,-16
 263              		.cfi_def_cfa_offset 16
 264 0190 23341100 		sd	ra,8(sp)
 265 0194 23308100 		sd	s0,0(sp)
 266              		.cfi_offset 1, -8
 267              		.cfi_offset 8, -16
 268 0198 13040101 		addi	s0,sp,16
 269              		.cfi_def_cfa 8, 0
  17:src/KernelConsole.cpp ****     return getInstance().output;
 270              		.loc 1 17 5
 271              		.loc 1 17 24 is_stmt 0
 272 019c 97000000 		call	_ZN13KernelConsole11getInstanceEv
 272      E7800000 
 273              	.LVL23:
  18:src/KernelConsole.cpp **** }
 274              		.loc 1 18 1
 275 01a4 13058522 		addi	a0,a0,552
 276 01a8 83308100 		ld	ra,8(sp)
 277              		.cfi_restore 1
 278 01ac 03340100 		ld	s0,0(sp)
 279              		.cfi_restore 8
 280              		.cfi_def_cfa 2, 16
 281 01b0 13010101 		addi	sp,sp,16
 282              		.cfi_def_cfa_offset 0
 283 01b4 67800000 		jr	ra
 284              		.cfi_endproc
 285              	.LFE23:
 287              		.globl	_ZN13KernelConsole8instanceE
 288              		.bss
 289              		.align	3
 290              		.set	.LANCHOR0,. + 0
 293              	_ZN13KernelConsole8instanceE:
 294 0000 00000000 		.zero	8
 294      00000000 
GAS LISTING /tmp/ccGfCJxe.s 			page 8


 295              		.text
 296              	.Letext0:
 297              		.file 4 "src/../h/../lib/hw.h"
 298              		.file 5 "src/../h/KernelClass.hpp"
 299              		.file 6 "src/../h/KernelSemaphore.hpp"
 300              		.file 7 "src/../h/../h/List.hpp"
 2612              		.align	3
 2615              	DW.ref.__gxx_personality_v0:
 2616 0000 00000000 		.dword	__gxx_personality_v0
 2616      00000000 
 2617              		.ident	"GCC: (Ubuntu 9.4.0-1ubuntu1~20.04) 9.4.0"
 2618              		.section	.note.GNU-stack,"",@progbits
GAS LISTING /tmp/ccGfCJxe.s 			page 9

