GAS LISTING /tmp/cc4Pt5tV.s 			page 1


   1              		.file	"KernelClass.cpp"
   2              		.option pic
   3              		.option norelax
   4              		.text
   5              	.Ltext0:
   6              		.align	2
   7              		.globl	_Z7kmallocm
   9              	_Z7kmallocm:
  10              	.LFB4:
  11              		.file 1 "src/KernelClass.cpp"
   1:src/KernelClass.cpp **** #include "../h/KernelClass.hpp"
   2:src/KernelClass.cpp **** #include "../h/MemoryAllocator.hpp"
   3:src/KernelClass.cpp **** 
   4:src/KernelClass.cpp **** void *KernelClass::operator new(size_t size) {
   5:src/KernelClass.cpp ****     return kmalloc(size);
   6:src/KernelClass.cpp **** }
   7:src/KernelClass.cpp **** 
   8:src/KernelClass.cpp **** void *KernelClass::operator new[](size_t size) {
   9:src/KernelClass.cpp ****     return kmalloc(size);
  10:src/KernelClass.cpp **** }
  11:src/KernelClass.cpp **** 
  12:src/KernelClass.cpp **** void KernelClass::operator delete(void *memory) {
  13:src/KernelClass.cpp ****     kfree(memory);
  14:src/KernelClass.cpp **** }
  15:src/KernelClass.cpp **** 
  16:src/KernelClass.cpp **** void KernelClass::operator delete[](void *memory) {
  17:src/KernelClass.cpp ****     kfree(memory);
  18:src/KernelClass.cpp **** }
  19:src/KernelClass.cpp **** 
  20:src/KernelClass.cpp **** void *kmalloc(size_t size) {
  12              		.loc 1 20 28
  13              		.cfi_startproc
  14              	.LVL0:
  15 0000 130101FE 		addi	sp,sp,-32
  16              		.cfi_def_cfa_offset 32
  17 0004 233C1100 		sd	ra,24(sp)
  18 0008 23388100 		sd	s0,16(sp)
  19 000c 23349100 		sd	s1,8(sp)
  20              		.cfi_offset 1, -8
  21              		.cfi_offset 8, -16
  22              		.cfi_offset 9, -24
  23 0010 13040102 		addi	s0,sp,32
  24              		.cfi_def_cfa 8, 0
  25 0014 93040500 		mv	s1,a0
  21:src/KernelClass.cpp ****     return MemoryAllocator::getInstance().malloc(size);
  26              		.loc 1 21 5
  27              		.loc 1 21 41 is_stmt 0
  28 0018 97000000 		call	_ZN15MemoryAllocator11getInstanceEv@plt
  28      E7800000 
  29              	.LVL1:
  30              		.loc 1 21 49
  31 0020 93850400 		mv	a1,s1
  32 0024 97000000 		call	_ZN15MemoryAllocator6mallocEm@plt
  32      E7800000 
  33              	.LVL2:
  22:src/KernelClass.cpp **** }
  34              		.loc 1 22 1
GAS LISTING /tmp/cc4Pt5tV.s 			page 2


  35 002c 83308101 		ld	ra,24(sp)
  36              		.cfi_restore 1
  37 0030 03340101 		ld	s0,16(sp)
  38              		.cfi_restore 8
  39              		.cfi_def_cfa 2, 32
  40 0034 83348100 		ld	s1,8(sp)
  41              		.cfi_restore 9
  42              	.LVL3:
  43 0038 13010102 		addi	sp,sp,32
  44              		.cfi_def_cfa_offset 0
  45 003c 67800000 		jr	ra
  46              		.cfi_endproc
  47              	.LFE4:
  49              		.align	2
  50              		.globl	_ZN11KernelClassnwEm
  52              	_ZN11KernelClassnwEm:
  53              	.LFB0:
   4:src/KernelClass.cpp ****     return kmalloc(size);
  54              		.loc 1 4 46 is_stmt 1
  55              		.cfi_startproc
  56              	.LVL4:
  57 0040 130101FF 		addi	sp,sp,-16
  58              		.cfi_def_cfa_offset 16
  59 0044 23341100 		sd	ra,8(sp)
  60 0048 23308100 		sd	s0,0(sp)
  61              		.cfi_offset 1, -8
  62              		.cfi_offset 8, -16
  63 004c 13040101 		addi	s0,sp,16
  64              		.cfi_def_cfa 8, 0
   5:src/KernelClass.cpp **** }
  65              		.loc 1 5 5
   5:src/KernelClass.cpp **** }
  66              		.loc 1 5 19 is_stmt 0
  67 0050 97000000 		call	_Z7kmallocm
  67      E7800000 
  68              	.LVL5:
   6:src/KernelClass.cpp **** 
  69              		.loc 1 6 1
  70 0058 83308100 		ld	ra,8(sp)
  71              		.cfi_restore 1
  72 005c 03340100 		ld	s0,0(sp)
  73              		.cfi_restore 8
  74              		.cfi_def_cfa 2, 16
  75 0060 13010101 		addi	sp,sp,16
  76              		.cfi_def_cfa_offset 0
  77 0064 67800000 		jr	ra
  78              		.cfi_endproc
  79              	.LFE0:
  81              		.align	2
  82              		.globl	_ZN11KernelClassnaEm
  84              	_ZN11KernelClassnaEm:
  85              	.LFB1:
   8:src/KernelClass.cpp ****     return kmalloc(size);
  86              		.loc 1 8 48 is_stmt 1
  87              		.cfi_startproc
  88              	.LVL6:
  89 0068 130101FF 		addi	sp,sp,-16
GAS LISTING /tmp/cc4Pt5tV.s 			page 3


  90              		.cfi_def_cfa_offset 16
  91 006c 23341100 		sd	ra,8(sp)
  92 0070 23308100 		sd	s0,0(sp)
  93              		.cfi_offset 1, -8
  94              		.cfi_offset 8, -16
  95 0074 13040101 		addi	s0,sp,16
  96              		.cfi_def_cfa 8, 0
   9:src/KernelClass.cpp **** }
  97              		.loc 1 9 5
   9:src/KernelClass.cpp **** }
  98              		.loc 1 9 19 is_stmt 0
  99 0078 97000000 		call	_Z7kmallocm
  99      E7800000 
 100              	.LVL7:
  10:src/KernelClass.cpp **** 
 101              		.loc 1 10 1
 102 0080 83308100 		ld	ra,8(sp)
 103              		.cfi_restore 1
 104 0084 03340100 		ld	s0,0(sp)
 105              		.cfi_restore 8
 106              		.cfi_def_cfa 2, 16
 107 0088 13010101 		addi	sp,sp,16
 108              		.cfi_def_cfa_offset 0
 109 008c 67800000 		jr	ra
 110              		.cfi_endproc
 111              	.LFE1:
 113              		.align	2
 114              		.globl	_Z5kfreePv
 116              	_Z5kfreePv:
 117              	.LFB5:
  23:src/KernelClass.cpp **** 
  24:src/KernelClass.cpp **** void kfree(void *memory) {
 118              		.loc 1 24 26 is_stmt 1
 119              		.cfi_startproc
 120              	.LVL8:
 121 0090 130101FE 		addi	sp,sp,-32
 122              		.cfi_def_cfa_offset 32
 123 0094 233C1100 		sd	ra,24(sp)
 124 0098 23388100 		sd	s0,16(sp)
 125 009c 23349100 		sd	s1,8(sp)
 126              		.cfi_offset 1, -8
 127              		.cfi_offset 8, -16
 128              		.cfi_offset 9, -24
 129 00a0 13040102 		addi	s0,sp,32
 130              		.cfi_def_cfa 8, 0
 131 00a4 93040500 		mv	s1,a0
  25:src/KernelClass.cpp ****     MemoryAllocator::getInstance().free(memory);
 132              		.loc 1 25 5
 133              		.loc 1 25 34 is_stmt 0
 134 00a8 97000000 		call	_ZN15MemoryAllocator11getInstanceEv@plt
 134      E7800000 
 135              	.LVL9:
 136              		.loc 1 25 40
 137 00b0 93850400 		mv	a1,s1
 138 00b4 97000000 		call	_ZN15MemoryAllocator4freeEPv@plt
 138      E7800000 
 139              	.LVL10:
GAS LISTING /tmp/cc4Pt5tV.s 			page 4


  26:src/KernelClass.cpp **** }
 140              		.loc 1 26 1
 141 00bc 83308101 		ld	ra,24(sp)
 142              		.cfi_restore 1
 143 00c0 03340101 		ld	s0,16(sp)
 144              		.cfi_restore 8
 145              		.cfi_def_cfa 2, 32
 146 00c4 83348100 		ld	s1,8(sp)
 147              		.cfi_restore 9
 148              	.LVL11:
 149 00c8 13010102 		addi	sp,sp,32
 150              		.cfi_def_cfa_offset 0
 151 00cc 67800000 		jr	ra
 152              		.cfi_endproc
 153              	.LFE5:
 155              		.align	2
 156              		.globl	_ZN11KernelClassdlEPv
 158              	_ZN11KernelClassdlEPv:
 159              	.LFB2:
  12:src/KernelClass.cpp ****     kfree(memory);
 160              		.loc 1 12 49 is_stmt 1
 161              		.cfi_startproc
 162              	.LVL12:
 163 00d0 130101FF 		addi	sp,sp,-16
 164              		.cfi_def_cfa_offset 16
 165 00d4 23341100 		sd	ra,8(sp)
 166 00d8 23308100 		sd	s0,0(sp)
 167              		.cfi_offset 1, -8
 168              		.cfi_offset 8, -16
 169 00dc 13040101 		addi	s0,sp,16
 170              		.cfi_def_cfa 8, 0
  13:src/KernelClass.cpp **** }
 171              		.loc 1 13 5
  13:src/KernelClass.cpp **** }
 172              		.loc 1 13 10 is_stmt 0
 173 00e0 97000000 		call	_Z5kfreePv
 173      E7800000 
 174              	.LVL13:
  14:src/KernelClass.cpp **** 
 175              		.loc 1 14 1
 176 00e8 83308100 		ld	ra,8(sp)
 177              		.cfi_restore 1
 178 00ec 03340100 		ld	s0,0(sp)
 179              		.cfi_restore 8
 180              		.cfi_def_cfa 2, 16
 181 00f0 13010101 		addi	sp,sp,16
 182              		.cfi_def_cfa_offset 0
 183 00f4 67800000 		jr	ra
 184              		.cfi_endproc
 185              	.LFE2:
 187              		.align	2
 188              		.globl	_ZN11KernelClassdaEPv
 190              	_ZN11KernelClassdaEPv:
 191              	.LFB3:
  16:src/KernelClass.cpp ****     kfree(memory);
 192              		.loc 1 16 51 is_stmt 1
 193              		.cfi_startproc
GAS LISTING /tmp/cc4Pt5tV.s 			page 5


 194              	.LVL14:
 195 00f8 130101FF 		addi	sp,sp,-16
 196              		.cfi_def_cfa_offset 16
 197 00fc 23341100 		sd	ra,8(sp)
 198 0100 23308100 		sd	s0,0(sp)
 199              		.cfi_offset 1, -8
 200              		.cfi_offset 8, -16
 201 0104 13040101 		addi	s0,sp,16
 202              		.cfi_def_cfa 8, 0
  17:src/KernelClass.cpp **** }
 203              		.loc 1 17 5
  17:src/KernelClass.cpp **** }
 204              		.loc 1 17 10 is_stmt 0
 205 0108 97000000 		call	_Z5kfreePv
 205      E7800000 
 206              	.LVL15:
  18:src/KernelClass.cpp **** 
 207              		.loc 1 18 1
 208 0110 83308100 		ld	ra,8(sp)
 209              		.cfi_restore 1
 210 0114 03340100 		ld	s0,0(sp)
 211              		.cfi_restore 8
 212              		.cfi_def_cfa 2, 16
 213 0118 13010101 		addi	sp,sp,16
 214              		.cfi_def_cfa_offset 0
 215 011c 67800000 		jr	ra
 216              		.cfi_endproc
 217              	.LFE3:
 219              	.Letext0:
 220              		.file 2 "src/../h/../lib/hw.h"
 221              		.file 3 "src/../h/KernelClass.hpp"
 222              		.file 4 "src/../h/MemoryAllocator.hpp"
GAS LISTING /tmp/cc4Pt5tV.s 			page 6

