GAS LISTING /tmp/ccMZLnQr.s 			page 1


   1              		.file	"main.cpp"
   2              		.option pic
   3              		.option norelax
   4              		.text
   5              	.Ltext0:
   6              		.align	2
   7              		.globl	_Z6writerPv
   9              	_Z6writerPv:
  10              	.LFB37:
  11              		.file 1 "src/main.cpp"
   1:src/main.cpp  **** #include "../h/KernelThread.hpp"
   2:src/main.cpp  **** #include "../h/RISCV.hpp"
   3:src/main.cpp  **** #include "../h/syscall_cpp.hpp"
   4:src/main.cpp  **** #include "../h/KernelConsole.hpp"
   5:src/main.cpp  **** #include "../test/printing.hpp"
   6:src/main.cpp  **** 
   7:src/main.cpp  **** extern void userMain();
   8:src/main.cpp  **** 
   9:src/main.cpp  **** static volatile bool kernelFinished = false;
  10:src/main.cpp  **** void writer(void *arg) {
  12              		.loc 1 10 24
  13              		.cfi_startproc
  14              	.LVL0:
  11:src/main.cpp  ****     while(!kernelFinished) {
  15              		.loc 1 11 5
  16              		.loc 1 11 11
  17              		.loc 1 11 12 is_stmt 0
  18 0000 97070000 		lbu	a5,.LANCHOR0
  18      83C70700 
  19              		.loc 1 11 11
  20 0008 63940710 		bnez	a5,.L10
  10:src/main.cpp  ****     while(!kernelFinished) {
  21              		.loc 1 10 24
  22 000c 130101FD 		addi	sp,sp,-48
  23              		.cfi_def_cfa_offset 48
  24 0010 23341102 		sd	ra,40(sp)
  25 0014 23308102 		sd	s0,32(sp)
  26 0018 233C9100 		sd	s1,24(sp)
  27 001c 23382101 		sd	s2,16(sp)
  28 0020 23343101 		sd	s3,8(sp)
  29              		.cfi_offset 1, -8
  30              		.cfi_offset 8, -16
  31              		.cfi_offset 9, -24
  32              		.cfi_offset 18, -32
  33              		.cfi_offset 19, -40
  34 0024 13040103 		addi	s0,sp,48
  35              		.cfi_def_cfa 8, 0
  36 0028 6F008001 		j	.L4
  37              	.LVL1:
  38              	.L3:
  12:src/main.cpp  ****         while ((*(volatile uint8 *) CONSOLE_STATUS & CONSOLE_TX_STATUS_BIT) && !KernelConsole::getO
  13:src/main.cpp  ****             // write
  14:src/main.cpp  ****             *(volatile uint8 *) CONSOLE_TX_DATA = KernelConsole::getOutput().take();
  15:src/main.cpp  ****         }
  16:src/main.cpp  ****         KernelThread::yield();
  39              		.loc 1 16 9 is_stmt 1 discriminator 4
  40              		.loc 1 16 28 is_stmt 0 discriminator 4
GAS LISTING /tmp/ccMZLnQr.s 			page 2


  41 002c 97000000 		call	_ZN12KernelThread5yieldEv@plt
  41      E7800000 
  42              	.LVL2:
  11:src/main.cpp  ****         while ((*(volatile uint8 *) CONSOLE_STATUS & CONSOLE_TX_STATUS_BIT) && !KernelConsole::getO
  43              		.loc 1 11 5 is_stmt 1 discriminator 4
  11:src/main.cpp  ****         while ((*(volatile uint8 *) CONSOLE_STATUS & CONSOLE_TX_STATUS_BIT) && !KernelConsole::getO
  44              		.loc 1 11 11 discriminator 4
  11:src/main.cpp  ****         while ((*(volatile uint8 *) CONSOLE_STATUS & CONSOLE_TX_STATUS_BIT) && !KernelConsole::getO
  45              		.loc 1 11 12 is_stmt 0 discriminator 4
  46 0034 97070000 		lbu	a5,.LANCHOR0
  46      83C70700 
  11:src/main.cpp  ****         while ((*(volatile uint8 *) CONSOLE_STATUS & CONSOLE_TX_STATUS_BIT) && !KernelConsole::getO
  47              		.loc 1 11 11 discriminator 4
  48 003c 639C070A 		bnez	a5,.L1
  49              	.L4:
  12:src/main.cpp  ****         while ((*(volatile uint8 *) CONSOLE_STATUS & CONSOLE_TX_STATUS_BIT) && !KernelConsole::getO
  50              		.loc 1 12 9 is_stmt 1
  12:src/main.cpp  ****         while ((*(volatile uint8 *) CONSOLE_STATUS & CONSOLE_TX_STATUS_BIT) && !KernelConsole::getO
  51              		.loc 1 12 77
  12:src/main.cpp  ****         while ((*(volatile uint8 *) CONSOLE_STATUS & CONSOLE_TX_STATUS_BIT) && !KernelConsole::getO
  52              		.loc 1 12 17 is_stmt 0
  53 0040 97070000 		la	a5,CONSOLE_STATUS
  53      83B70700 
  54 0048 83B70700 		ld	a5,0(a5)
  55 004c 83C70700 		lbu	a5,0(a5)
  56 0050 93F7F70F 		andi	a5,a5,0xff
  12:src/main.cpp  ****         while ((*(volatile uint8 *) CONSOLE_STATUS & CONSOLE_TX_STATUS_BIT) && !KernelConsole::getO
  57              		.loc 1 12 77
  58 0054 93F70702 		andi	a5,a5,32
  59 0058 E38A07FC 		beqz	a5,.L3
  12:src/main.cpp  ****         while ((*(volatile uint8 *) CONSOLE_STATUS & CONSOLE_TX_STATUS_BIT) && !KernelConsole::getO
  60              		.loc 1 12 106 discriminator 1
  61 005c 97000000 		call	_ZN13KernelConsole9getOutputEv@plt
  61      E7800000 
  62              	.LVL3:
  63 0064 93040500 		mv	s1,a0
  64              	.LVL4:
  65              	.LBB14:
  66              	.LBB15:
  67              		.file 2 "src/../h/Buffer.hpp"
   1:src/../h/Buffer.hpp **** #ifndef NOVI_PROJEKAT_BUFFER_HPP
   2:src/../h/Buffer.hpp **** #define NOVI_PROJEKAT_BUFFER_HPP
   3:src/../h/Buffer.hpp **** 
   4:src/../h/Buffer.hpp **** #include "KernelSemaphore.hpp"
   5:src/../h/Buffer.hpp **** 
   6:src/../h/Buffer.hpp **** template <typename T>
   7:src/../h/Buffer.hpp **** class Buffer : KernelClass {
   8:src/../h/Buffer.hpp **** public:
   9:src/../h/Buffer.hpp ****     static constexpr uint64 N = 512;
  10:src/../h/Buffer.hpp **** 
  11:src/../h/Buffer.hpp ****     Buffer() : mutex(KernelSemaphore::createKernelSemaphore(1)),
  12:src/../h/Buffer.hpp ****                spaceAvailable(KernelSemaphore::createKernelSemaphore(N)),
  13:src/../h/Buffer.hpp ****                itemAvailable(KernelSemaphore::createKernelSemaphore(0)),
  14:src/../h/Buffer.hpp ****                head(0), tail(0) {}
  15:src/../h/Buffer.hpp **** 
  16:src/../h/Buffer.hpp ****     void append(T data) {
  17:src/../h/Buffer.hpp ****         spaceAvailable->wait();
GAS LISTING /tmp/ccMZLnQr.s 			page 3


  18:src/../h/Buffer.hpp ****         mutex->wait();
  19:src/../h/Buffer.hpp ****         buffer[tail] = data;
  20:src/../h/Buffer.hpp ****         tail = (tail + 1) % N;
  21:src/../h/Buffer.hpp ****         mutex->signal();
  22:src/../h/Buffer.hpp ****         itemAvailable->signal();
  23:src/../h/Buffer.hpp ****     }
  24:src/../h/Buffer.hpp **** 
  25:src/../h/Buffer.hpp ****     T take() {
  26:src/../h/Buffer.hpp ****         itemAvailable->wait();
  27:src/../h/Buffer.hpp ****         mutex->wait();
  28:src/../h/Buffer.hpp ****         T data = buffer[head];
  29:src/../h/Buffer.hpp ****         head = (head + 1) % N;
  30:src/../h/Buffer.hpp ****         mutex->signal();
  31:src/../h/Buffer.hpp ****         spaceAvailable->signal();
  32:src/../h/Buffer.hpp ****         return data;
  33:src/../h/Buffer.hpp ****     }
  34:src/../h/Buffer.hpp **** 
  35:src/../h/Buffer.hpp ****     bool isEmpty() const {
  36:src/../h/Buffer.hpp ****         mutex->wait();
  68              		.loc 2 36 20 discriminator 1
  69 0068 03350500 		ld	a0,0(a0)
  70 006c 97000000 		call	_ZN15KernelSemaphore4waitEv@plt
  70      E7800000 
  71              	.LVL5:
  37:src/../h/Buffer.hpp ****         bool result = head == tail;
  72              		.loc 2 37 23 discriminator 1
  73 0074 83A98421 		lw	s3,536(s1)
  74              		.loc 2 37 31 discriminator 1
  75 0078 03A9C421 		lw	s2,540(s1)
  76              	.LVL6:
  38:src/../h/Buffer.hpp ****         mutex->signal();
  77              		.loc 2 38 22 discriminator 1
  78 007c 03B50400 		ld	a0,0(s1)
  79 0080 97000000 		call	_ZN15KernelSemaphore6signalEv@plt
  79      E7800000 
  80              	.LVL7:
  81              	.LBE15:
  82              	.LBE14:
  12:src/main.cpp  ****             // write
  83              		.loc 1 12 77 discriminator 1
  84 0088 E38229FB 		beq	s3,s2,.L3
  14:src/main.cpp  ****         }
  85              		.loc 1 14 13 is_stmt 1
  14:src/main.cpp  ****         }
  86              		.loc 1 14 76 is_stmt 0
  87 008c 97000000 		call	_ZN13KernelConsole9getOutputEv@plt
  87      E7800000 
  88              	.LVL8:
  89 0094 93040500 		mv	s1,a0
  14:src/main.cpp  ****         }
  90              		.loc 1 14 13
  91 0098 97070000 		la	a5,CONSOLE_TX_DATA
  91      83B70700 
  92 00a0 03B90700 		ld	s2,0(a5)
  93              	.LVL9:
  94              	.LBB16:
  95              	.LBB17:
GAS LISTING /tmp/ccMZLnQr.s 			page 4


  26:src/../h/Buffer.hpp ****         mutex->wait();
  96              		.loc 2 26 28
  97 00a4 03350501 		ld	a0,16(a0)
  98 00a8 97000000 		call	_ZN15KernelSemaphore4waitEv@plt
  98      E7800000 
  99              	.LVL10:
  27:src/../h/Buffer.hpp ****         T data = buffer[head];
 100              		.loc 2 27 20
 101 00b0 03B50400 		ld	a0,0(s1)
 102 00b4 97000000 		call	_ZN15KernelSemaphore4waitEv@plt
 102      E7800000 
 103              	.LVL11:
  28:src/../h/Buffer.hpp ****         head = (head + 1) % N;
 104              		.loc 2 28 25
 105 00bc 83A78421 		lw	a5,536(s1)
  28:src/../h/Buffer.hpp ****         head = (head + 1) % N;
 106              		.loc 2 28 11
 107 00c0 3387F400 		add	a4,s1,a5
 108 00c4 83498701 		lbu	s3,24(a4)
 109              	.LVL12:
  29:src/../h/Buffer.hpp ****         mutex->signal();
 110              		.loc 2 29 22
 111 00c8 9B871700 		addiw	a5,a5,1
  29:src/../h/Buffer.hpp ****         mutex->signal();
 112              		.loc 2 29 27
 113 00cc 93F7F71F 		andi	a5,a5,511
  29:src/../h/Buffer.hpp ****         mutex->signal();
 114              		.loc 2 29 9
 115 00d0 23ACF420 		sw	a5,536(s1)
  30:src/../h/Buffer.hpp ****         spaceAvailable->signal();
 116              		.loc 2 30 22
 117 00d4 03B50400 		ld	a0,0(s1)
 118 00d8 97000000 		call	_ZN15KernelSemaphore6signalEv@plt
 118      E7800000 
 119              	.LVL13:
  31:src/../h/Buffer.hpp ****         return data;
 120              		.loc 2 31 31
 121 00e0 03B58400 		ld	a0,8(s1)
 122 00e4 97000000 		call	_ZN15KernelSemaphore6signalEv@plt
 122      E7800000 
 123              	.LVL14:
 124              	.LBE17:
 125              	.LBE16:
  14:src/main.cpp  ****         }
 126              		.loc 1 14 49
 127 00ec 23003901 		sb	s3,0(s2)
  12:src/main.cpp  ****             // write
 128              		.loc 1 12 9
 129 00f0 6FF01FF5 		j	.L4
 130              	.L1:
  17:src/main.cpp  ****     }
  18:src/main.cpp  **** }
 131              		.loc 1 18 1
 132 00f4 83308102 		ld	ra,40(sp)
 133              		.cfi_restore 1
 134 00f8 03340102 		ld	s0,32(sp)
 135              		.cfi_restore 8
GAS LISTING /tmp/ccMZLnQr.s 			page 5


 136              		.cfi_def_cfa 2, 48
 137 00fc 83348101 		ld	s1,24(sp)
 138              		.cfi_restore 9
 139 0100 03390101 		ld	s2,16(sp)
 140              		.cfi_restore 18
 141 0104 83398100 		ld	s3,8(sp)
 142              		.cfi_restore 19
 143 0108 13010103 		addi	sp,sp,48
 144              		.cfi_def_cfa_offset 0
 145 010c 67800000 		jr	ra
 146              	.LVL15:
 147              	.L10:
 148 0110 67800000 		ret
 149              		.cfi_endproc
 150              	.LFE37:
 152              		.align	2
 153              		.globl	main
 155              	main:
 156              	.LFB38:
  19:src/main.cpp  **** 
  20:src/main.cpp  **** void main() {
 157              		.loc 1 20 13 is_stmt 1
 158              		.cfi_startproc
 159 0114 130101FC 		addi	sp,sp,-64
 160              		.cfi_def_cfa_offset 64
 161 0118 233C1102 		sd	ra,56(sp)
 162 011c 23388102 		sd	s0,48(sp)
 163 0120 23349102 		sd	s1,40(sp)
 164 0124 23302103 		sd	s2,32(sp)
 165 0128 233C3101 		sd	s3,24(sp)
 166              		.cfi_offset 1, -8
 167              		.cfi_offset 8, -16
 168              		.cfi_offset 9, -24
 169              		.cfi_offset 18, -32
 170              		.cfi_offset 19, -40
 171 012c 13040104 		addi	s0,sp,64
 172              		.cfi_def_cfa 8, 0
  21:src/main.cpp  ****     KernelThread *threadKernel = KernelThread::createThread(nullptr, nullptr);
 173              		.loc 1 21 5
 174              		.loc 1 21 60 is_stmt 0
 175 0130 93050000 		li	a1,0
 176 0134 13050000 		li	a0,0
 177 0138 97000000 		call	_ZN12KernelThread12createThreadEPFvPvES0_@plt
 177      E7800000 
 178              	.LVL16:
 179 0140 93040500 		mv	s1,a0
 180              	.LVL17:
  22:src/main.cpp  ****     KernelThread::running = threadKernel;
 181              		.loc 1 22 5 is_stmt 1
 182              		.loc 1 22 27 is_stmt 0
 183 0144 97070000 		la	a5,_ZN12KernelThread7runningE
 183      83B70700 
 184 014c 23B0A700 		sd	a0,0(a5)
  23:src/main.cpp  ****     KernelThread *threadWriter = KernelThread::createThread(&writer, nullptr);
 185              		.loc 1 23 5 is_stmt 1
 186              		.loc 1 23 60 is_stmt 0
 187 0150 93050000 		li	a1,0
GAS LISTING /tmp/ccMZLnQr.s 			page 6


 188 0154 17050000 		lla	a0,_Z6writerPv
 188      13050500 
 189 015c 97000000 		call	_ZN12KernelThread12createThreadEPFvPvES0_@plt
 189      E7800000 
 190              	.LVL18:
 191 0164 13090500 		mv	s2,a0
 192              	.LVL19:
  24:src/main.cpp  ****     KernelThread *threadUser;
 193              		.loc 1 24 5 is_stmt 1
  25:src/main.cpp  **** 
  26:src/main.cpp  ****     //printString("Dosli 1\n");
  27:src/main.cpp  **** 
  28:src/main.cpp  ****     RISCV::setStvec((uint64)&RISCV::supervisorTrap);
 194              		.loc 1 28 5
 195              		.loc 1 28 20 is_stmt 0
 196 0168 97070000 		la	a5,_ZN5RISCV14supervisorTrapEv
 196      83B70700 
 197              	.LVL20:
 198              	.LBB18:
 199              	.LBB19:
 200              		.file 3 "src/../h/RISCV.hpp"
   1:src/../h/RISCV.hpp **** #ifndef PROJECT_BASE_V1_1_RISCV_HPP
   2:src/../h/RISCV.hpp **** #define PROJECT_BASE_V1_1_RISCV_HPP
   3:src/../h/RISCV.hpp **** 
   4:src/../h/RISCV.hpp **** #include "../lib/hw.h"
   5:src/../h/RISCV.hpp **** 
   6:src/../h/RISCV.hpp **** class KernelSemaphore;
   7:src/../h/RISCV.hpp **** 
   8:src/../h/RISCV.hpp **** class RISCV {
   9:src/../h/RISCV.hpp **** public:
  10:src/../h/RISCV.hpp ****     static bool volatile flag;
  11:src/../h/RISCV.hpp **** 
  12:src/../h/RISCV.hpp ****     enum SCAUSE {
  13:src/../h/RISCV.hpp ****         TIMER = (1ull << 63) | 1,
  14:src/../h/RISCV.hpp ****         CONSOLE = (1ull << 63) | 9,
  15:src/../h/RISCV.hpp ****         USER = 8,
  16:src/../h/RISCV.hpp ****         SUPERVISOR = 9
  17:src/../h/RISCV.hpp ****     };
  18:src/../h/RISCV.hpp ****     enum SSTATUS {
  19:src/../h/RISCV.hpp ****         SIE = 1 << 1,
  20:src/../h/RISCV.hpp ****         SPIE = 1 << 5,
  21:src/../h/RISCV.hpp ****         SPP = 1 << 8
  22:src/../h/RISCV.hpp ****     };
  23:src/../h/RISCV.hpp ****     enum SIP {
  24:src/../h/RISCV.hpp ****         SSIP = 1 << 1,
  25:src/../h/RISCV.hpp ****         STIP = 1 << 5,
  26:src/../h/RISCV.hpp ****         SEIP = 1 << 9
  27:src/../h/RISCV.hpp ****     };
  28:src/../h/RISCV.hpp **** 
  29:src/../h/RISCV.hpp ****     static uint64 getScause() {
  30:src/../h/RISCV.hpp ****         volatile uint64 scause;
  31:src/../h/RISCV.hpp ****         asm volatile("csrr %0, scause" : "=r"(scause));
  32:src/../h/RISCV.hpp ****         return scause;
  33:src/../h/RISCV.hpp ****     }
  34:src/../h/RISCV.hpp **** 
  35:src/../h/RISCV.hpp ****     static void setScause(uint64 scause) {
  36:src/../h/RISCV.hpp ****         asm volatile("csrw scause, %0" : : "r"(scause));
GAS LISTING /tmp/ccMZLnQr.s 			page 7


  37:src/../h/RISCV.hpp ****     }
  38:src/../h/RISCV.hpp **** 
  39:src/../h/RISCV.hpp ****     static uint64 getSepc() {
  40:src/../h/RISCV.hpp ****         volatile uint64 sepc;
  41:src/../h/RISCV.hpp ****         asm volatile("csrr %0, sepc" : "=r"(sepc));
  42:src/../h/RISCV.hpp ****         return sepc;
  43:src/../h/RISCV.hpp ****     }
  44:src/../h/RISCV.hpp **** 
  45:src/../h/RISCV.hpp ****     static void setSepc(uint64 sepc) {
  46:src/../h/RISCV.hpp ****         asm volatile("csrw sepc, %0" : : "r"(sepc));
  47:src/../h/RISCV.hpp ****     }
  48:src/../h/RISCV.hpp **** 
  49:src/../h/RISCV.hpp ****     static uint64 getSstatus() {
  50:src/../h/RISCV.hpp ****         volatile uint64 sstatus;
  51:src/../h/RISCV.hpp ****         asm volatile("csrr %0, sstatus" : "=r"(sstatus));
  52:src/../h/RISCV.hpp ****         return sstatus;
  53:src/../h/RISCV.hpp ****     }
  54:src/../h/RISCV.hpp **** 
  55:src/../h/RISCV.hpp ****     static void setSstatus(uint64 sstatus) {
  56:src/../h/RISCV.hpp ****         asm volatile("csrw sstatus, %0" : : "r"(sstatus));
  57:src/../h/RISCV.hpp ****     }
  58:src/../h/RISCV.hpp **** 
  59:src/../h/RISCV.hpp ****     static void maskSetSstatus(uint64 mask) {
  60:src/../h/RISCV.hpp ****         asm volatile("csrs sstatus, %0" : : "r"(mask));
  61:src/../h/RISCV.hpp ****     }
  62:src/../h/RISCV.hpp **** 
  63:src/../h/RISCV.hpp ****     static void maskClearSstatus(uint64 mask) {
  64:src/../h/RISCV.hpp ****         asm volatile("csrc sstatus, %0" : : "r"(mask));
  65:src/../h/RISCV.hpp ****     }
  66:src/../h/RISCV.hpp **** 
  67:src/../h/RISCV.hpp ****     static uint64 getStvec() {
  68:src/../h/RISCV.hpp ****         volatile uint64 stvec;
  69:src/../h/RISCV.hpp ****         asm volatile("csrr %0, stvec" : "=r"(stvec));
  70:src/../h/RISCV.hpp ****         return stvec;
  71:src/../h/RISCV.hpp ****     }
  72:src/../h/RISCV.hpp **** 
  73:src/../h/RISCV.hpp ****     static void setStvec(uint64 stvec) {
  74:src/../h/RISCV.hpp ****         asm volatile("csrw stvec, %0" : : "r"(stvec));
 201              		.loc 3 74 9 is_stmt 1
 202              		.loc 3 74 54 is_stmt 0
 203              	#APP
 204              	# 74 "src/../h/RISCV.hpp" 1
  75              	    }
 205              		csrw stvec, a5
 206              	# 0 "" 2
 207              	.LVL21:
 208              	#NO_APP
 209              	.LBE19:
 210              	.LBE18:
  29:src/main.cpp  ****     RISCV::maskSetSstatus(RISCV::SSTATUS::SIE);
 211              		.loc 1 29 5 is_stmt 1
 212              	.LBB20:
 213              	.LBB21:
  60:src/../h/RISCV.hpp ****     }
 214              		.loc 3 60 9
  60:src/../h/RISCV.hpp ****     }
 215              		.loc 3 60 55 is_stmt 0
GAS LISTING /tmp/ccMZLnQr.s 			page 8


 216 0174 93072000 		li	a5,2
 217              	#APP
 218              	# 60 "src/../h/RISCV.hpp" 1
 219              		csrs sstatus, a5
 220              	# 0 "" 2
 221              	.LVL22:
 222              	#NO_APP
 223              	.LBE21:
 224              	.LBE20:
  30:src/main.cpp  **** 
  31:src/main.cpp  ****     RISCV::privileged = false;
 225              		.loc 1 31 5 is_stmt 1
 226              		.loc 1 31 23 is_stmt 0
 227 017c 97070000 		la	a5,_ZN5RISCV10privilegedE
 227      83B70700 
 228 0184 23800700 		sb	zero,0(a5)
  32:src/main.cpp  **** 
  33:src/main.cpp  ****     thread_create(&threadUser, (Body) userMain, nullptr);
 229              		.loc 1 33 5 is_stmt 1
 230              		.loc 1 33 18 is_stmt 0
 231 0188 13060000 		li	a2,0
 232 018c 97050000 		la	a1,_Z8userMainv
 232      83B50500 
 233 0194 130584FC 		addi	a0,s0,-56
 234              	.LVL23:
 235 0198 97000000 		call	_Z13thread_createPP12KernelThreadPFvPvES2_@plt
 235      E7800000 
 236              	.LVL24:
 237              	.L13:
  34:src/main.cpp  **** 
  35:src/main.cpp  ****     while(!threadUser->isFinished()) {
 238              		.loc 1 35 5 is_stmt 1
 239              		.loc 1 35 11
 240              		.loc 1 35 34 is_stmt 0
 241 01a0 033584FC 		ld	a0,-56(s0)
 242 01a4 97000000 		call	_ZNK12KernelThread10isFinishedEv@plt
 242      E7800000 
 243              	.LVL25:
 244              		.loc 1 35 11
 245 01ac 63180500 		bnez	a0,.L12
  36:src/main.cpp  ****         thread_dispatch();
 246              		.loc 1 36 9 is_stmt 1
 247              		.loc 1 36 24 is_stmt 0
 248 01b0 97000000 		call	_Z15thread_dispatchv@plt
 248      E7800000 
 249              	.LVL26:
 250 01b8 6FF09FFE 		j	.L13
 251              	.L12:
  37:src/main.cpp  ****     }
  38:src/main.cpp  ****     kernelFinished = true;
 252              		.loc 1 38 5 is_stmt 1
 253              		.loc 1 38 20 is_stmt 0
 254 01bc 93071000 		li	a5,1
 255 01c0 17070000 		sb	a5,.LANCHOR0,a4
 255      2300F700 
  39:src/main.cpp  **** 
  40:src/main.cpp  ****     /*
GAS LISTING /tmp/ccMZLnQr.s 			page 9


  41:src/main.cpp  ****     while(!KernelConsole::getOutput().isEmpty()) {
  42:src/main.cpp  ****         while ((*(volatile uint8 *) CONSOLE_STATUS & CONSOLE_TX_STATUS_BIT)) {
  43:src/main.cpp  ****             // write
  44:src/main.cpp  ****             *(volatile uint8 *) CONSOLE_TX_DATA = KernelConsole::getOutput().take();
  45:src/main.cpp  ****         }
  46:src/main.cpp  ****     }
  47:src/main.cpp  **** */
  48:src/main.cpp  ****     RISCV::privileged = true;
 256              		.loc 1 48 5 is_stmt 1
 257              		.loc 1 48 23 is_stmt 0
 258 01c8 17070000 		la	a4,_ZN5RISCV10privilegedE
 258      03370700 
 259 01d0 2300F700 		sb	a5,0(a4)
  49:src/main.cpp  **** 
  50:src/main.cpp  ****     delete threadUser;
 260              		.loc 1 50 5 is_stmt 1
 261              		.loc 1 50 12 is_stmt 0
 262 01d4 833984FC 		ld	s3,-56(s0)
 263              		.loc 1 50 22
 264 01d8 638E0900 		beqz	s3,.L14
 265              		.loc 1 50 12 discriminator 1
 266 01dc 13850900 		mv	a0,s3
 267 01e0 97000000 		call	_ZN12KernelThreadD1Ev@plt
 267      E7800000 
 268              	.LVL27:
 269 01e8 13850900 		mv	a0,s3
 270 01ec 97000000 		call	_ZN11KernelClassdlEPv@plt
 270      E7800000 
 271              	.LVL28:
 272              	.L14:
  51:src/main.cpp  ****     delete threadWriter;
 273              		.loc 1 51 5 is_stmt 1
 274              		.loc 1 51 24 is_stmt 0
 275 01f4 630E0900 		beqz	s2,.L15
 276              		.loc 1 51 12 discriminator 1
 277 01f8 13050900 		mv	a0,s2
 278 01fc 97000000 		call	_ZN12KernelThreadD1Ev@plt
 278      E7800000 
 279              	.LVL29:
 280 0204 13050900 		mv	a0,s2
 281 0208 97000000 		call	_ZN11KernelClassdlEPv@plt
 281      E7800000 
 282              	.LVL30:
 283              	.L15:
  52:src/main.cpp  ****     delete threadKernel;
 284              		.loc 1 52 5 is_stmt 1
 285              		.loc 1 52 24 is_stmt 0
 286 0210 638E0400 		beqz	s1,.L16
 287              		.loc 1 52 12 discriminator 1
 288 0214 13850400 		mv	a0,s1
 289 0218 97000000 		call	_ZN12KernelThreadD1Ev@plt
 289      E7800000 
 290              	.LVL31:
 291 0220 13850400 		mv	a0,s1
 292 0224 97000000 		call	_ZN11KernelClassdlEPv@plt
 292      E7800000 
 293              	.LVL32:
GAS LISTING /tmp/ccMZLnQr.s 			page 10


 294              	.L16:
  53:src/main.cpp  ****     RISCV::exit();
 295              		.loc 1 53 5 is_stmt 1
 296              	.LBB22:
 297              	.LBB23:
  76:src/../h/RISCV.hpp **** 
  77:src/../h/RISCV.hpp ****     static uint64 getSip() {
  78:src/../h/RISCV.hpp ****         volatile uint64 sip;
  79:src/../h/RISCV.hpp ****         asm volatile("csrr %0, sip" : "=r"(sip));
  80:src/../h/RISCV.hpp ****         return sip;
  81:src/../h/RISCV.hpp ****     }
  82:src/../h/RISCV.hpp **** 
  83:src/../h/RISCV.hpp ****     static void setSip(uint64 sip) {
  84:src/../h/RISCV.hpp ****         asm volatile("csrw sip, %0" : : "r"(sip));
  85:src/../h/RISCV.hpp ****     }
  86:src/../h/RISCV.hpp **** 
  87:src/../h/RISCV.hpp ****     static void maskSetSip(uint64 mask) {
  88:src/../h/RISCV.hpp ****         asm volatile("csrs sip, %0" : : "r"(mask));
  89:src/../h/RISCV.hpp ****     }
  90:src/../h/RISCV.hpp **** 
  91:src/../h/RISCV.hpp ****     static void maskClearSip(uint64 mask) {
  92:src/../h/RISCV.hpp ****         asm volatile("csrc sip, %0" : : "r"(mask));
  93:src/../h/RISCV.hpp ****     }
  94:src/../h/RISCV.hpp **** 
  95:src/../h/RISCV.hpp ****     static uint64 getRa() {
  96:src/../h/RISCV.hpp ****         volatile uint64 ra;
  97:src/../h/RISCV.hpp ****         asm volatile("mv %0, x1" : "=r"(ra));
  98:src/../h/RISCV.hpp ****         return ra;
  99:src/../h/RISCV.hpp ****     }
 100:src/../h/RISCV.hpp **** 
 101:src/../h/RISCV.hpp ****     static void setRa(uint64 ra) {
 102:src/../h/RISCV.hpp ****         asm volatile("mv x1, %0" : : "r"(ra));
 103:src/../h/RISCV.hpp ****     }
 104:src/../h/RISCV.hpp **** 
 105:src/../h/RISCV.hpp ****     static void supervisorTrap();
 106:src/../h/RISCV.hpp ****     static void handleSupervisorTrap();
 107:src/../h/RISCV.hpp ****     static void popSppSpie();
 108:src/../h/RISCV.hpp **** 
 109:src/../h/RISCV.hpp ****     static void exit() {
 110:src/../h/RISCV.hpp ****         asm volatile("li a0, 0x100000");
 298              		.loc 3 110 9
 299              		.loc 3 110 40 is_stmt 0
 300              	#APP
 301              	# 110 "src/../h/RISCV.hpp" 1
 111              	        asm volatile("li a1, 0x5555");
 302              		li a0, 0x100000
 303              	# 0 "" 2
 304              		.loc 3 111 9 is_stmt 1
 305              		.loc 3 111 38 is_stmt 0
 306              	# 111 "src/../h/RISCV.hpp" 1
 112              	        asm volatile("sw a1, 0(a0)");
 307              		li a1, 0x5555
 308              	# 0 "" 2
 309              		.loc 3 112 9 is_stmt 1
 310              		.loc 3 112 37 is_stmt 0
 311              	# 112 "src/../h/RISCV.hpp" 1
 113              	    }
GAS LISTING /tmp/ccMZLnQr.s 			page 11


 312              		sw a1, 0(a0)
 313              	# 0 "" 2
 314              	#NO_APP
 315              	.LBE23:
 316              	.LBE22:
  54:src/main.cpp  **** }...
 317              		.loc 1 54 1
 318 023c 83308103 		ld	ra,56(sp)
 319              		.cfi_restore 1
 320 0240 03340103 		ld	s0,48(sp)
 321              		.cfi_restore 8
 322              		.cfi_def_cfa 2, 64
 323 0244 83348102 		ld	s1,40(sp)
 324              		.cfi_restore 9
 325              	.LVL33:
 326 0248 03390102 		ld	s2,32(sp)
 327              		.cfi_restore 18
 328              	.LVL34:
 329 024c 83398101 		ld	s3,24(sp)
 330              		.cfi_restore 19
 331 0250 13010104 		addi	sp,sp,64
 332              		.cfi_def_cfa_offset 0
 333 0254 67800000 		jr	ra
 334              		.cfi_endproc
 335              	.LFE38:
 337              		.bss
 338              		.set	.LANCHOR0,. + 0
 341              	_ZL14kernelFinished:
 342 0000 00       		.zero	1
 343              		.text
 344              	.Letext0:
 345              		.file 4 "src/../h/../lib/hw.h"
 346              		.file 5 "src/../h/../h/KernelClass.hpp"
 347              		.file 6 "src/../h/KernelThread.hpp"
 348              		.file 7 "src/../h/KernelSemaphore.hpp"
 349              		.file 8 "src/../h/../h/List.hpp"
 350              		.file 9 "src/../h/KernelConsole.hpp"
 351              		.file 10 "src/../h/syscall_c.hpp"
GAS LISTING /tmp/ccMZLnQr.s 			page 12

