GAS LISTING /tmp/ccSkkQdE.s 			page 1


   1              		.file	"Scheduler.cpp"
   2              		.option pic
   3              		.option norelax
   4              		.text
   5              	.Ltext0:
   6              		.align	2
   8              	_Z41__static_initialization_and_destruction_0ii:
   9              	.LFB20:
  10              		.file 1 "src/Scheduler.cpp"
   1:src/Scheduler.cpp **** #include "../h/Scheduler.hpp"
   2:src/Scheduler.cpp **** 
   3:src/Scheduler.cpp **** List<KernelThread> Scheduler::ready;
   4:src/Scheduler.cpp **** 
   5:src/Scheduler.cpp **** KernelThread *Scheduler::get() {
   6:src/Scheduler.cpp ****     return ready.dequeue();
   7:src/Scheduler.cpp **** }
   8:src/Scheduler.cpp **** 
   9:src/Scheduler.cpp **** void Scheduler::put(KernelThread *thread) {
  10:src/Scheduler.cpp ****     ready.enqueue(thread);
  11:src/Scheduler.cpp **** }
  11              		.loc 1 11 1
  12              		.cfi_startproc
  13              	.LVL0:
  14 0000 130101FF 		addi	sp,sp,-16
  15              		.cfi_def_cfa_offset 16
  16 0004 23348100 		sd	s0,8(sp)
  17              		.cfi_offset 8, -8
  18 0008 13040101 		addi	s0,sp,16
  19              		.cfi_def_cfa 8, 0
  20              		.loc 1 11 1 is_stmt 0
  21 000c 93071000 		li	a5,1
  22 0010 6308F500 		beq	a0,a5,.L4
  23              	.L1:
  24 0014 03348100 		ld	s0,8(sp)
  25              		.cfi_remember_state
  26              		.cfi_restore 8
  27              		.cfi_def_cfa 2, 16
  28 0018 13010101 		addi	sp,sp,16
  29              		.cfi_def_cfa_offset 0
  30 001c 67800000 		jr	ra
  31              	.L4:
  32              		.cfi_restore_state
  33              		.loc 1 11 1 discriminator 1
  34 0020 B7070100 		li	a5,65536
  35 0024 9387F7FF 		addi	a5,a5,-1
  36 0028 E396F5FE 		bne	a1,a5,.L1
  37              	.LVL1:
  38              	.LBB15:
  39              	.LBB16:
  40              	.LBB17:
  41              		.file 2 "src/../h/List.hpp"
   1:src/../h/List.hpp **** #ifndef PROJECT_BASE_V1_1_LIST_HPP
   2:src/../h/List.hpp **** #define PROJECT_BASE_V1_1_LIST_HPP
   3:src/../h/List.hpp **** 
   4:src/../h/List.hpp **** #include "KernelClass.hpp"
   5:src/../h/List.hpp **** 
   6:src/../h/List.hpp **** template<typename T>
GAS LISTING /tmp/ccSkkQdE.s 			page 2


   7:src/../h/List.hpp **** class List : public KernelClass {
   8:src/../h/List.hpp **** public:
   9:src/../h/List.hpp ****     struct Element : public KernelClass {
  10:src/../h/List.hpp ****         T *data;
  11:src/../h/List.hpp ****         Element *next;
  12:src/../h/List.hpp **** 
  13:src/../h/List.hpp ****         Element(T *data, Element *next) : data(data), next(next) {}
  14:src/../h/List.hpp ****     };
  15:src/../h/List.hpp **** 
  16:src/../h/List.hpp ****     Element *head, *tail;
  17:src/../h/List.hpp **** 
  18:src/../h/List.hpp ****     List() : head(0), tail(0) {}
  42              		.loc 2 18 29
  43 002c 97070000 		lla	a5,.LANCHOR0
  43      93870700 
  44 0034 23B00700 		sd	zero,0(a5)
  45 0038 23B40700 		sd	zero,8(a5)
  46              	.LVL2:
  47              	.LBE17:
  48              	.LBE16:
  49              	.LBE15:
  50              		.loc 1 11 1
  51 003c 6FF09FFD 		j	.L1
  52              		.cfi_endproc
  53              	.LFE20:
  55              		.align	2
  56              		.globl	_ZN9Scheduler3getEv
  58              	_ZN9Scheduler3getEv:
  59              	.LFB10:
   5:src/Scheduler.cpp ****     return ready.dequeue();
  60              		.loc 1 5 32 is_stmt 1
  61              		.cfi_startproc
  62 0040 130101FE 		addi	sp,sp,-32
  63              		.cfi_def_cfa_offset 32
  64 0044 233C1100 		sd	ra,24(sp)
  65 0048 23388100 		sd	s0,16(sp)
  66 004c 23349100 		sd	s1,8(sp)
  67              		.cfi_offset 1, -8
  68              		.cfi_offset 8, -16
  69              		.cfi_offset 9, -24
  70 0050 13040102 		addi	s0,sp,32
  71              		.cfi_def_cfa 8, 0
   6:src/Scheduler.cpp **** }
  72              		.loc 1 6 5
  73              	.LVL3:
  74              	.LBB18:
  75              	.LBB19:
  19:src/../h/List.hpp **** 
  20:src/../h/List.hpp ****     List(const List<T> &) = delete;
  21:src/../h/List.hpp ****     List<T> &operator =(const List<T> &) = delete;
  22:src/../h/List.hpp **** 
  23:src/../h/List.hpp ****     void addFirst(T *data) {
  24:src/../h/List.hpp ****         Element *element = new Element(data, head);
  25:src/../h/List.hpp ****         head = element;
  26:src/../h/List.hpp ****         if (!tail) {
  27:src/../h/List.hpp ****             tail = head;
  28:src/../h/List.hpp ****         }
GAS LISTING /tmp/ccSkkQdE.s 			page 3


  29:src/../h/List.hpp ****     }
  30:src/../h/List.hpp ****     void enqueue(T *data) {
  31:src/../h/List.hpp ****         Element *element = new Element(data, 0);
  32:src/../h/List.hpp ****         if (tail) {
  33:src/../h/List.hpp ****             tail->next = element;
  34:src/../h/List.hpp ****             tail = element;
  35:src/../h/List.hpp ****         }
  36:src/../h/List.hpp ****         else {
  37:src/../h/List.hpp ****             head = tail = element;
  38:src/../h/List.hpp ****         }
  39:src/../h/List.hpp ****     }
  40:src/../h/List.hpp **** 
  41:src/../h/List.hpp ****     T *dequeue() {
  42:src/../h/List.hpp ****         if (!head) {
  76              		.loc 2 42 14 is_stmt 0
  77 0054 17050000 		ld	a0,.LANCHOR0
  77      03350500 
  78              		.loc 2 42 9
  79 005c 63020504 		beqz	a0,.L8
  80              	.LVL4:
  43:src/../h/List.hpp ****             return 0;
  44:src/../h/List.hpp ****         }
  45:src/../h/List.hpp ****         Element *element = head;
  46:src/../h/List.hpp ****         head = head->next;
  81              		.loc 2 46 22
  82 0060 83378500 		ld	a5,8(a0)
  83              		.loc 2 46 9
  84 0064 17070000 		sd	a5,.LANCHOR0,a4
  84      2330F700 
  47:src/../h/List.hpp ****         if (!head) {
  85              		.loc 2 47 9
  86 006c 63840702 		beqz	a5,.L10
  87              	.L7:
  48:src/../h/List.hpp ****             tail = 0;
  49:src/../h/List.hpp ****         }
  50:src/../h/List.hpp ****         T *result = element->data;
  88              		.loc 2 50 12
  89 0070 83340500 		ld	s1,0(a0)
  90              	.LVL5:
  51:src/../h/List.hpp ****         delete element;
  91              		.loc 2 51 9
  92 0074 97000000 		call	_ZN11KernelClassdlEPv@plt
  92      E7800000 
  93              	.LVL6:
  94              	.L5:
  95              	.LBE19:
  96              	.LBE18:
   7:src/Scheduler.cpp **** 
  97              		.loc 1 7 1
  98 007c 13850400 		mv	a0,s1
  99 0080 83308101 		ld	ra,24(sp)
 100              		.cfi_remember_state
 101              		.cfi_restore 1
 102 0084 03340101 		ld	s0,16(sp)
 103              		.cfi_restore 8
 104              		.cfi_def_cfa 2, 32
 105 0088 83348100 		ld	s1,8(sp)
GAS LISTING /tmp/ccSkkQdE.s 			page 4


 106              		.cfi_restore 9
 107 008c 13010102 		addi	sp,sp,32
 108              		.cfi_def_cfa_offset 0
 109 0090 67800000 		jr	ra
 110              	.LVL7:
 111              	.L10:
 112              		.cfi_restore_state
 113              	.LBB21:
 114              	.LBB20:
  48:src/../h/List.hpp ****             tail = 0;
 115              		.loc 2 48 13
 116 0094 97070000 		sd	zero,.LANCHOR0+8,a5
 116      23B00700 
 117 009c 6FF05FFD 		j	.L7
 118              	.LVL8:
 119              	.L8:
  43:src/../h/List.hpp ****         }
 120              		.loc 2 43 20
 121 00a0 93040500 		mv	s1,a0
 122              	.LVL9:
 123              	.LBE20:
 124              	.LBE21:
   6:src/Scheduler.cpp **** }
 125              		.loc 1 6 26
 126 00a4 6FF09FFD 		j	.L5
 127              		.cfi_endproc
 128              	.LFE10:
 130              		.align	2
 131              		.globl	_ZN9Scheduler3putEP12KernelThread
 133              	_ZN9Scheduler3putEP12KernelThread:
 134              	.LFB11:
   9:src/Scheduler.cpp ****     ready.enqueue(thread);
 135              		.loc 1 9 43 is_stmt 1
 136              		.cfi_startproc
 137              	.LVL10:
 138 00a8 130101FE 		addi	sp,sp,-32
 139              		.cfi_def_cfa_offset 32
 140 00ac 233C1100 		sd	ra,24(sp)
 141 00b0 23388100 		sd	s0,16(sp)
 142 00b4 23349100 		sd	s1,8(sp)
 143              		.cfi_offset 1, -8
 144              		.cfi_offset 8, -16
 145              		.cfi_offset 9, -24
 146 00b8 13040102 		addi	s0,sp,32
 147              		.cfi_def_cfa 8, 0
 148 00bc 93040500 		mv	s1,a0
  10:src/Scheduler.cpp **** }
 149              		.loc 1 10 5
 150              	.LVL11:
 151              	.LBB22:
 152              	.LBB23:
  31:src/../h/List.hpp ****         if (tail) {
 153              		.loc 2 31 28 is_stmt 0
 154 00c0 13050001 		li	a0,16
 155              	.LVL12:
 156 00c4 97000000 		call	_ZN11KernelClassnwEm@plt
 156      E7800000 
GAS LISTING /tmp/ccSkkQdE.s 			page 5


 157              	.LVL13:
 158              	.LBB24:
 159              	.LBB25:
  13:src/../h/List.hpp ****     };
 160              		.loc 2 13 64
 161 00cc 23309500 		sd	s1,0(a0)
 162 00d0 23340500 		sd	zero,8(a0)
 163              	.LVL14:
 164              	.LBE25:
 165              	.LBE24:
  32:src/../h/List.hpp ****             tail->next = element;
 166              		.loc 2 32 13
 167 00d4 97070000 		ld	a5,.LANCHOR0+8
 167      83B70700 
  32:src/../h/List.hpp ****             tail->next = element;
 168              		.loc 2 32 9
 169 00dc 63820702 		beqz	a5,.L12
  33:src/../h/List.hpp ****             tail = element;
 170              		.loc 2 33 13
 171 00e0 23B4A700 		sd	a0,8(a5)
  34:src/../h/List.hpp ****         }
 172              		.loc 2 34 13
 173 00e4 97070000 		sd	a0,.LANCHOR0+8,a5
 173      23B0A700 
 174              	.LVL15:
 175              	.L11:
 176              	.LBE23:
 177              	.LBE22:
 178              		.loc 1 11 1
 179 00ec 83308101 		ld	ra,24(sp)
 180              		.cfi_remember_state
 181              		.cfi_restore 1
 182 00f0 03340101 		ld	s0,16(sp)
 183              		.cfi_restore 8
 184              		.cfi_def_cfa 2, 32
 185 00f4 83348100 		ld	s1,8(sp)
 186              		.cfi_restore 9
 187              	.LVL16:
 188 00f8 13010102 		addi	sp,sp,32
 189              		.cfi_def_cfa_offset 0
 190 00fc 67800000 		jr	ra
 191              	.LVL17:
 192              	.L12:
 193              		.cfi_restore_state
 194              	.LBB27:
 195              	.LBB26:
  37:src/../h/List.hpp ****         }
 196              		.loc 2 37 13
 197 0100 97070000 		lla	a5,.LANCHOR0
 197      93870700 
 198 0108 23B4A700 		sd	a0,8(a5)
 199 010c 23B0A700 		sd	a0,0(a5)
 200              	.LVL18:
 201              	.LBE26:
 202              	.LBE27:
 203              		.loc 1 11 1
 204 0110 6FF0DFFD 		j	.L11
GAS LISTING /tmp/ccSkkQdE.s 			page 6


 205              		.cfi_endproc
 206              	.LFE11:
 208              		.align	2
 210              	_GLOBAL__sub_I__ZN9Scheduler5readyE:
 211              	.LFB21:
 212              		.loc 1 11 1 is_stmt 1
 213              		.cfi_startproc
 214 0114 130101FF 		addi	sp,sp,-16
 215              		.cfi_def_cfa_offset 16
 216 0118 23341100 		sd	ra,8(sp)
 217 011c 23308100 		sd	s0,0(sp)
 218              		.cfi_offset 1, -8
 219              		.cfi_offset 8, -16
 220 0120 13040101 		addi	s0,sp,16
 221              		.cfi_def_cfa 8, 0
 222              		.loc 1 11 1 is_stmt 0
 223 0124 B7050100 		li	a1,65536
 224 0128 9385F5FF 		addi	a1,a1,-1
 225 012c 13051000 		li	a0,1
 226 0130 97000000 		call	_Z41__static_initialization_and_destruction_0ii
 226      E7800000 
 227              	.LVL19:
 228 0138 83308100 		ld	ra,8(sp)
 229              		.cfi_restore 1
 230 013c 03340100 		ld	s0,0(sp)
 231              		.cfi_restore 8
 232              		.cfi_def_cfa 2, 16
 233 0140 13010101 		addi	sp,sp,16
 234              		.cfi_def_cfa_offset 0
 235 0144 67800000 		jr	ra
 236              		.cfi_endproc
 237              	.LFE21:
 239              		.section	.init_array,"aw"
 240              		.align	3
 241 0000 00000000 		.dword	_GLOBAL__sub_I__ZN9Scheduler5readyE
 241      00000000 
 242              		.globl	_ZN9Scheduler5readyE
 243              		.bss
 244              		.align	3
 245              		.set	.LANCHOR0,. + 0
 248              	_ZN9Scheduler5readyE:
 249 0000 00000000 		.zero	16
 249      00000000 
 249      00000000 
 249      00000000 
 250              		.text
 251              	.Letext0:
 252              		.file 3 "src/../h/../lib/hw.h"
 253              		.file 4 "src/../h/KernelClass.hpp"
 254              		.file 5 "src/../h/Scheduler.hpp"
GAS LISTING /tmp/ccSkkQdE.s 			page 7


DEFINED SYMBOLS
                            *ABS*:0000000000000000 Scheduler.cpp
     /tmp/ccSkkQdE.s:8      .text:0000000000000000 _Z41__static_initialization_and_destruction_0ii
     /tmp/ccSkkQdE.s:12     .text:0000000000000000 .L0 
     /tmp/ccSkkQdE.s:14     .text:0000000000000000 .L0 
     /tmp/ccSkkQdE.s:15     .text:0000000000000004 .L0 
     /tmp/ccSkkQdE.s:17     .text:0000000000000008 .L0 
     /tmp/ccSkkQdE.s:19     .text:000000000000000c .L0 
     /tmp/ccSkkQdE.s:21     .text:000000000000000c .L0 
     /tmp/ccSkkQdE.s:25     .text:0000000000000018 .L0 
     /tmp/ccSkkQdE.s:26     .text:0000000000000018 .L0 
     /tmp/ccSkkQdE.s:27     .text:0000000000000018 .L0 
     /tmp/ccSkkQdE.s:29     .text:000000000000001c .L0 
     /tmp/ccSkkQdE.s:32     .text:0000000000000020 .L0 
     /tmp/ccSkkQdE.s:34     .text:0000000000000020 .L0 
     /tmp/ccSkkQdE.s:43     .text:000000000000002c .L0 
     /tmp/ccSkkQdE.s:51     .text:000000000000003c .L0 
     /tmp/ccSkkQdE.s:52     .text:0000000000000040 .L0 
     /tmp/ccSkkQdE.s:58     .text:0000000000000040 _ZN9Scheduler3getEv
     /tmp/ccSkkQdE.s:61     .text:0000000000000040 .L0 
     /tmp/ccSkkQdE.s:62     .text:0000000000000040 .L0 
     /tmp/ccSkkQdE.s:63     .text:0000000000000044 .L0 
     /tmp/ccSkkQdE.s:67     .text:0000000000000050 .L0 
     /tmp/ccSkkQdE.s:68     .text:0000000000000050 .L0 
     /tmp/ccSkkQdE.s:69     .text:0000000000000050 .L0 
     /tmp/ccSkkQdE.s:71     .text:0000000000000054 .L0 
     /tmp/ccSkkQdE.s:76     .text:0000000000000054 .L0 
     /tmp/ccSkkQdE.s:77     .text:0000000000000054 .L0 
     /tmp/ccSkkQdE.s:79     .text:000000000000005c .L0 
     /tmp/ccSkkQdE.s:82     .text:0000000000000060 .L0 
     /tmp/ccSkkQdE.s:84     .text:0000000000000064 .L0 
     /tmp/ccSkkQdE.s:86     .text:000000000000006c .L0 
     /tmp/ccSkkQdE.s:89     .text:0000000000000070 .L0 
     /tmp/ccSkkQdE.s:92     .text:0000000000000074 .L0 
     /tmp/ccSkkQdE.s:98     .text:000000000000007c .L0 
     /tmp/ccSkkQdE.s:100    .text:0000000000000084 .L0 
     /tmp/ccSkkQdE.s:101    .text:0000000000000084 .L0 
     /tmp/ccSkkQdE.s:103    .text:0000000000000088 .L0 
     /tmp/ccSkkQdE.s:104    .text:0000000000000088 .L0 
     /tmp/ccSkkQdE.s:106    .text:000000000000008c .L0 
     /tmp/ccSkkQdE.s:108    .text:0000000000000090 .L0 
     /tmp/ccSkkQdE.s:112    .text:0000000000000094 .L0 
     /tmp/ccSkkQdE.s:116    .text:0000000000000094 .L0 
     /tmp/ccSkkQdE.s:121    .text:00000000000000a0 .L0 
     /tmp/ccSkkQdE.s:126    .text:00000000000000a4 .L0 
     /tmp/ccSkkQdE.s:127    .text:00000000000000a8 .L0 
     /tmp/ccSkkQdE.s:133    .text:00000000000000a8 _ZN9Scheduler3putEP12KernelThread
     /tmp/ccSkkQdE.s:136    .text:00000000000000a8 .L0 
     /tmp/ccSkkQdE.s:138    .text:00000000000000a8 .L0 
     /tmp/ccSkkQdE.s:139    .text:00000000000000ac .L0 
     /tmp/ccSkkQdE.s:143    .text:00000000000000b8 .L0 
     /tmp/ccSkkQdE.s:144    .text:00000000000000b8 .L0 
     /tmp/ccSkkQdE.s:145    .text:00000000000000b8 .L0 
     /tmp/ccSkkQdE.s:147    .text:00000000000000bc .L0 
     /tmp/ccSkkQdE.s:153    .text:00000000000000c0 .L0 
     /tmp/ccSkkQdE.s:154    .text:00000000000000c0 .L0 
     /tmp/ccSkkQdE.s:161    .text:00000000000000cc .L0 
GAS LISTING /tmp/ccSkkQdE.s 			page 8


     /tmp/ccSkkQdE.s:167    .text:00000000000000d4 .L0 
     /tmp/ccSkkQdE.s:169    .text:00000000000000dc .L0 
     /tmp/ccSkkQdE.s:171    .text:00000000000000e0 .L0 
     /tmp/ccSkkQdE.s:173    .text:00000000000000e4 .L0 
     /tmp/ccSkkQdE.s:179    .text:00000000000000ec .L0 
     /tmp/ccSkkQdE.s:180    .text:00000000000000f0 .L0 
     /tmp/ccSkkQdE.s:181    .text:00000000000000f0 .L0 
     /tmp/ccSkkQdE.s:183    .text:00000000000000f4 .L0 
     /tmp/ccSkkQdE.s:184    .text:00000000000000f4 .L0 
     /tmp/ccSkkQdE.s:186    .text:00000000000000f8 .L0 
     /tmp/ccSkkQdE.s:189    .text:00000000000000fc .L0 
     /tmp/ccSkkQdE.s:193    .text:0000000000000100 .L0 
     /tmp/ccSkkQdE.s:197    .text:0000000000000100 .L0 
     /tmp/ccSkkQdE.s:204    .text:0000000000000110 .L0 
     /tmp/ccSkkQdE.s:205    .text:0000000000000114 .L0 
     /tmp/ccSkkQdE.s:210    .text:0000000000000114 _GLOBAL__sub_I__ZN9Scheduler5readyE
     /tmp/ccSkkQdE.s:213    .text:0000000000000114 .L0 
     /tmp/ccSkkQdE.s:214    .text:0000000000000114 .L0 
     /tmp/ccSkkQdE.s:215    .text:0000000000000118 .L0 
     /tmp/ccSkkQdE.s:218    .text:0000000000000120 .L0 
     /tmp/ccSkkQdE.s:219    .text:0000000000000120 .L0 
     /tmp/ccSkkQdE.s:221    .text:0000000000000124 .L0 
     /tmp/ccSkkQdE.s:223    .text:0000000000000124 .L0 
     /tmp/ccSkkQdE.s:229    .text:000000000000013c .L0 
     /tmp/ccSkkQdE.s:231    .text:0000000000000140 .L0 
     /tmp/ccSkkQdE.s:232    .text:0000000000000140 .L0 
     /tmp/ccSkkQdE.s:234    .text:0000000000000144 .L0 
     /tmp/ccSkkQdE.s:236    .text:0000000000000148 .L0 
     /tmp/ccSkkQdE.s:248    .bss:0000000000000000 _ZN9Scheduler5readyE
     /tmp/ccSkkQdE.s:245    .bss:0000000000000000 .LANCHOR0
     /tmp/ccSkkQdE.s:255    .text:0000000000000148 .L0 
     /tmp/ccSkkQdE.s:43     .text:000000000000002c .L0 
     /tmp/ccSkkQdE.s:77     .text:0000000000000054 .L0 
     /tmp/ccSkkQdE.s:84     .text:0000000000000064 .L0 
     /tmp/ccSkkQdE.s:116    .text:0000000000000094 .L0 
     /tmp/ccSkkQdE.s:167    .text:00000000000000d4 .L0 
     /tmp/ccSkkQdE.s:173    .text:00000000000000e4 .L0 
     /tmp/ccSkkQdE.s:197    .text:0000000000000100 .L0 
     /tmp/ccSkkQdE.s:31     .text:0000000000000020 .L4
     /tmp/ccSkkQdE.s:23     .text:0000000000000014 .L1
     /tmp/ccSkkQdE.s:119    .text:00000000000000a0 .L8
     /tmp/ccSkkQdE.s:111    .text:0000000000000094 .L10
     /tmp/ccSkkQdE.s:87     .text:0000000000000070 .L7
     /tmp/ccSkkQdE.s:94     .text:000000000000007c .L5
     /tmp/ccSkkQdE.s:192    .text:0000000000000100 .L12
     /tmp/ccSkkQdE.s:175    .text:00000000000000ec .L11
     /tmp/ccSkkQdE.s:984    .debug_abbrev:0000000000000000 .Ldebug_abbrev0
     /tmp/ccSkkQdE.s:2050   .debug_str:0000000000000308 .LASF63
     /tmp/ccSkkQdE.s:2056   .debug_str:0000000000000405 .LASF64
     /tmp/ccSkkQdE.s:2040   .debug_str:00000000000002a1 .LASF65
     /tmp/ccSkkQdE.s:5      .text:0000000000000000 .Ltext0
     /tmp/ccSkkQdE.s:251    .text:0000000000000148 .Letext0
     /tmp/ccSkkQdE.s:1970   .debug_line:0000000000000000 .Ldebug_line0
     /tmp/ccSkkQdE.s:2062   .debug_str:0000000000000435 .LASF0
     /tmp/ccSkkQdE.s:2038   .debug_str:000000000000028e .LASF1
     /tmp/ccSkkQdE.s:2028   .debug_str:000000000000020b .LASF2
     /tmp/ccSkkQdE.s:1994   .debug_str:00000000000000eb .LASF4
GAS LISTING /tmp/ccSkkQdE.s 			page 9


     /tmp/ccSkkQdE.s:2036   .debug_str:000000000000027c .LASF3
     /tmp/ccSkkQdE.s:1980   .debug_str:0000000000000064 .LASF5
     /tmp/ccSkkQdE.s:1974   .debug_str:0000000000000021 .LASF6
     /tmp/ccSkkQdE.s:2018   .debug_str:00000000000001b3 .LASF7
     /tmp/ccSkkQdE.s:2076   .debug_str:000000000000049f .LASF8
     /tmp/ccSkkQdE.s:1992   .debug_str:00000000000000dd .LASF9
     /tmp/ccSkkQdE.s:2118   .debug_str:0000000000000613 .LASF10
     /tmp/ccSkkQdE.s:2024   .debug_str:00000000000001f2 .LASF11
     /tmp/ccSkkQdE.s:2098   .debug_str:0000000000000554 .LASF12
     /tmp/ccSkkQdE.s:2080   .debug_str:00000000000004c5 .LASF13
     /tmp/ccSkkQdE.s:2042   .debug_str:00000000000002c0 .LASF14
     /tmp/ccSkkQdE.s:2004   .debug_str:0000000000000137 .LASF15
     /tmp/ccSkkQdE.s:2078   .debug_str:00000000000004af .LASF16
     /tmp/ccSkkQdE.s:2112   .debug_str:00000000000005de .LASF21
     /tmp/ccSkkQdE.s:2102   .debug_str:000000000000056e .LASF17
     /tmp/ccSkkQdE.s:2000   .debug_str:000000000000010c .LASF19
     /tmp/ccSkkQdE.s:2106   .debug_str:0000000000000580 .LASF18
     /tmp/ccSkkQdE.s:2058   .debug_str:0000000000000417 .LASF20
     /tmp/ccSkkQdE.s:2068   .debug_str:0000000000000455 .LASF23
     /tmp/ccSkkQdE.s:2054   .debug_str:00000000000003ef .LASF66
     /tmp/ccSkkQdE.s:2088   .debug_str:0000000000000501 .LASF27
     /tmp/ccSkkQdE.s:2002   .debug_str:0000000000000121 .LASF29
     /tmp/ccSkkQdE.s:2016   .debug_str:00000000000001a9 .LASF22
     /tmp/ccSkkQdE.s:1990   .debug_str:00000000000000c9 .LASF67
     /tmp/ccSkkQdE.s:2072   .debug_str:0000000000000474 .LASF68
     /tmp/ccSkkQdE.s:2066   .debug_str:000000000000044f .LASF69
     /tmp/ccSkkQdE.s:2064   .debug_str:0000000000000442 .LASF70
     /tmp/ccSkkQdE.s:2034   .debug_str:0000000000000269 .LASF24
     /tmp/ccSkkQdE.s:2006   .debug_str:000000000000014d .LASF28
     /tmp/ccSkkQdE.s:2022   .debug_str:00000000000001ed .LASF25
     /tmp/ccSkkQdE.s:1982   .debug_str:000000000000006b .LASF26
     /tmp/ccSkkQdE.s:2030   .debug_str:0000000000000219 .LASF30
     /tmp/ccSkkQdE.s:2104   .debug_str:000000000000057b .LASF31
     /tmp/ccSkkQdE.s:2094   .debug_str:0000000000000547 .LASF32
     /tmp/ccSkkQdE.s:2008   .debug_str:0000000000000155 .LASF33
     /tmp/ccSkkQdE.s:2086   .debug_str:00000000000004e4 .LASF34
     /tmp/ccSkkQdE.s:1972   .debug_str:0000000000000000 .LASF40
     /tmp/ccSkkQdE.s:2100   .debug_str:0000000000000564 .LASF71
     /tmp/ccSkkQdE.s:2116   .debug_str:00000000000005f2 .LASF72
     /tmp/ccSkkQdE.s:2060   .debug_str:000000000000042c .LASF35
     /tmp/ccSkkQdE.s:2010   .debug_str:000000000000015a .LASF36
     /tmp/ccSkkQdE.s:2084   .debug_str:00000000000004dc .LASF37
     /tmp/ccSkkQdE.s:1986   .debug_str:0000000000000077 .LASF38
     /tmp/ccSkkQdE.s:2096   .debug_str:000000000000054c .LASF39
     /tmp/ccSkkQdE.s:2052   .debug_str:00000000000003cc .LASF41
     /tmp/ccSkkQdE.s:2026   .debug_str:0000000000000201 .LASF42
     /tmp/ccSkkQdE.s:1976   .debug_str:0000000000000034 .LASF43
     /tmp/ccSkkQdE.s:2012   .debug_str:0000000000000181 .LASF44
     /tmp/ccSkkQdE.s:2020   .debug_str:00000000000001c6 .LASF45
     /tmp/ccSkkQdE.s:2074   .debug_str:0000000000000496 .LASF46
     /tmp/ccSkkQdE.s:2092   .debug_str:0000000000000523 .LASF47
     /tmp/ccSkkQdE.s:2048   .debug_str:0000000000000300 .LASF48
     /tmp/ccSkkQdE.s:2110   .debug_str:00000000000005ba .LASF49
     /tmp/ccSkkQdE.s:2090   .debug_str:0000000000000514 .LASF50
     /tmp/ccSkkQdE.s:2044   .debug_str:00000000000002cc .LASF51
     /tmp/ccSkkQdE.s:1998   .debug_str:0000000000000107 .LASF52
     /tmp/ccSkkQdE.s:1996   .debug_str:00000000000000f2 .LASF73
GAS LISTING /tmp/ccSkkQdE.s 			page 10


     /tmp/ccSkkQdE.s:2032   .debug_str:0000000000000245 .LASF53
     /tmp/ccSkkQdE.s:211    .text:0000000000000114 .LFB21
     /tmp/ccSkkQdE.s:237    .text:0000000000000148 .LFE21
     /tmp/ccSkkQdE.s:227    .text:0000000000000138 .LVL19
     /tmp/ccSkkQdE.s:2108   .debug_str:0000000000000590 .LASF54
     /tmp/ccSkkQdE.s:9      .text:0000000000000000 .LFB20
     /tmp/ccSkkQdE.s:53     .text:0000000000000040 .LFE20
     /tmp/ccSkkQdE.s:2070   .debug_str:0000000000000465 .LASF55
     /tmp/ccSkkQdE.s:1978   .debug_str:0000000000000059 .LASF56
     /tmp/ccSkkQdE.s:38     .text:000000000000002c .LBB15
     /tmp/ccSkkQdE.s:49     .text:000000000000003c .LBE15
     /tmp/ccSkkQdE.s:1827   .debug_loc:0000000000000000 .LLST0
     /tmp/ccSkkQdE.s:2046   .debug_str:00000000000002fb .LASF57
     /tmp/ccSkkQdE.s:1988   .debug_str:000000000000009d .LASF60
     /tmp/ccSkkQdE.s:2114   .debug_str:00000000000005ea .LASF58
     /tmp/ccSkkQdE.s:1984   .debug_str:0000000000000070 .LASF59
     /tmp/ccSkkQdE.s:2014   .debug_str:000000000000018c .LASF61
     /tmp/ccSkkQdE.s:134    .text:00000000000000a8 .LFB11
     /tmp/ccSkkQdE.s:206    .text:0000000000000114 .LFE11
     /tmp/ccSkkQdE.s:2082   .debug_str:00000000000004d5 .LASF62
     /tmp/ccSkkQdE.s:1836   .debug_loc:000000000000002c .LLST4
     /tmp/ccSkkQdE.s:151    .text:00000000000000c0 .LBB22
     /tmp/ccSkkQdE.s:1956   .debug_ranges:0000000000000000 .Ldebug_ranges0
     /tmp/ccSkkQdE.s:1858   .debug_loc:000000000000008b .LLST5
     /tmp/ccSkkQdE.s:1873   .debug_loc:00000000000000d4 .LLST6
     /tmp/ccSkkQdE.s:158    .text:00000000000000cc .LBB24
     /tmp/ccSkkQdE.s:165    .text:00000000000000d4 .LBE24
     /tmp/ccSkkQdE.s:1888   .debug_loc:000000000000011c .LLST7
     /tmp/ccSkkQdE.s:1896   .debug_loc:0000000000000140 .LLST8
     /tmp/ccSkkQdE.s:1903   .debug_loc:0000000000000163 .LLST9
     /tmp/ccSkkQdE.s:157    .text:00000000000000cc .LVL13
     /tmp/ccSkkQdE.s:59     .text:0000000000000040 .LFB10
     /tmp/ccSkkQdE.s:128    .text:00000000000000a8 .LFE10
     /tmp/ccSkkQdE.s:74     .text:0000000000000054 .LBB18
     /tmp/ccSkkQdE.s:1910   .debug_loc:0000000000000186 .LLST1
     /tmp/ccSkkQdE.s:1925   .debug_loc:00000000000001ce .LLST2
     /tmp/ccSkkQdE.s:1936   .debug_loc:0000000000000204 .LLST3
     /tmp/ccSkkQdE.s:93     .text:000000000000007c .LVL6
     /tmp/ccSkkQdE.s:37     .text:000000000000002c .LVL1
     /tmp/ccSkkQdE.s:46     .text:000000000000003c .LVL2
     /tmp/ccSkkQdE.s:137    .text:00000000000000a8 .LVL10
     /tmp/ccSkkQdE.s:155    .text:00000000000000c4 .LVL12
     /tmp/ccSkkQdE.s:187    .text:00000000000000f8 .LVL16
     /tmp/ccSkkQdE.s:191    .text:0000000000000100 .LVL17
     /tmp/ccSkkQdE.s:150    .text:00000000000000c0 .LVL11
     /tmp/ccSkkQdE.s:174    .text:00000000000000ec .LVL15
     /tmp/ccSkkQdE.s:200    .text:0000000000000110 .LVL18
     /tmp/ccSkkQdE.s:163    .text:00000000000000d4 .LVL14
     /tmp/ccSkkQdE.s:73     .text:0000000000000054 .LVL3
     /tmp/ccSkkQdE.s:110    .text:0000000000000094 .LVL7
     /tmp/ccSkkQdE.s:122    .text:00000000000000a4 .LVL9
     /tmp/ccSkkQdE.s:80     .text:0000000000000060 .LVL4
     /tmp/ccSkkQdE.s:118    .text:00000000000000a0 .LVL8
     /tmp/ccSkkQdE.s:90     .text:0000000000000074 .LVL5
     /tmp/ccSkkQdE.s:256    .debug_info:0000000000000000 .Ldebug_info0
     /tmp/ccSkkQdE.s:96     .text:000000000000007c .LBE18
     /tmp/ccSkkQdE.s:113    .text:0000000000000094 .LBB21
GAS LISTING /tmp/ccSkkQdE.s 			page 11


     /tmp/ccSkkQdE.s:124    .text:00000000000000a4 .LBE21
     /tmp/ccSkkQdE.s:177    .text:00000000000000ec .LBE22
     /tmp/ccSkkQdE.s:194    .text:0000000000000100 .LBB27
     /tmp/ccSkkQdE.s:202    .text:0000000000000110 .LBE27

UNDEFINED SYMBOLS
_ZN11KernelClassdlEPv
_ZN11KernelClassnwEm
