GAS LISTING /tmp/cc1OoZM1.s 			page 1


   1              		.file	"Timer.cpp"
   2              		.option pic
   3              		.option norelax
   4              		.text
   5              	.Ltext0:
   6              		.align	2
   7              		.globl	_ZN5Timer3nowEv
   9              	_ZN5Timer3nowEv:
  10              	.LFB0:
  11              		.file 1 "src/Timer.cpp"
   1:src/Timer.cpp **** #include "../h/Timer.hpp"
   2:src/Timer.cpp **** 
   3:src/Timer.cpp **** uint64 Timer::timeCounter = 0;
   4:src/Timer.cpp **** 
   5:src/Timer.cpp **** uint64 Timer::now() {
  12              		.loc 1 5 21
  13              		.cfi_startproc
  14 0000 130101FF 		addi	sp,sp,-16
  15              		.cfi_def_cfa_offset 16
  16 0004 23348100 		sd	s0,8(sp)
  17              		.cfi_offset 8, -8
  18 0008 13040101 		addi	s0,sp,16
  19              		.cfi_def_cfa 8, 0
   6:src/Timer.cpp ****     return timeCounter;
  20              		.loc 1 6 5
   7:src/Timer.cpp **** }
  21              		.loc 1 7 1 is_stmt 0
  22 000c 17050000 		ld	a0,.LANCHOR0
  22      03350500 
  23 0014 03348100 		ld	s0,8(sp)
  24              		.cfi_restore 8
  25              		.cfi_def_cfa 2, 16
  26 0018 13010101 		addi	sp,sp,16
  27              		.cfi_def_cfa_offset 0
  28 001c 67800000 		jr	ra
  29              		.cfi_endproc
  30              	.LFE0:
  32              		.align	2
  33              		.globl	_ZN5Timer6updateEv
  35              	_ZN5Timer6updateEv:
  36              	.LFB1:
   8:src/Timer.cpp **** 
   9:src/Timer.cpp **** void Timer::update() {
  37              		.loc 1 9 22 is_stmt 1
  38              		.cfi_startproc
  39 0020 130101FF 		addi	sp,sp,-16
  40              		.cfi_def_cfa_offset 16
  41 0024 23348100 		sd	s0,8(sp)
  42              		.cfi_offset 8, -8
  43 0028 13040101 		addi	s0,sp,16
  44              		.cfi_def_cfa 8, 0
  10:src/Timer.cpp ****     timeCounter++;
  45              		.loc 1 10 5
  46              		.loc 1 10 16 is_stmt 0
  47 002c 17070000 		lla	a4,.LANCHOR0
  47      13070700 
  48 0034 83370700 		ld	a5,0(a4)
GAS LISTING /tmp/cc1OoZM1.s 			page 2


  49 0038 93871700 		addi	a5,a5,1
  50 003c 2330F700 		sd	a5,0(a4)
  11:src/Timer.cpp **** }
  51              		.loc 1 11 1
  52 0040 03348100 		ld	s0,8(sp)
  53              		.cfi_restore 8
  54              		.cfi_def_cfa 2, 16
  55 0044 13010101 		addi	sp,sp,16
  56              		.cfi_def_cfa_offset 0
  57 0048 67800000 		jr	ra
  58              		.cfi_endproc
  59              	.LFE1:
  61              		.globl	_ZN5Timer11timeCounterE
  62              		.bss
  63              		.align	3
  64              		.set	.LANCHOR0,. + 0
  67              	_ZN5Timer11timeCounterE:
  68 0000 00000000 		.zero	8
  68      00000000 
  69              		.text
  70              	.Letext0:
  71              		.file 2 "src/../h/../lib/hw.h"
  72              		.file 3 "src/../h/Timer.hpp"
GAS LISTING /tmp/cc1OoZM1.s 			page 3

