GAS LISTING /tmp/ccGwpvCv.s 			page 1


   1              		.file	"ConsumerProducer_CPP_Sync_API_test.cpp"
   2              		.option pic
   3              		.option norelax
   4              		.text
   5              	.Ltext0:
   6              		.section	.text._ZN12ConsumerSyncD2Ev,"axG",@progbits,_ZN12ConsumerSyncD5Ev,comdat
   7              		.align	2
   8              		.weak	_ZN12ConsumerSyncD2Ev
  10              	_ZN12ConsumerSyncD2Ev:
  11              	.LFB22:
  12              		.file 1 "test/ConsumerProducer_CPP_Sync_API_test.cpp"
   1:test/ConsumerProducer_CPP_Sync_API_test.cpp **** #include "../h/syscall_cpp.hpp"
   2:test/ConsumerProducer_CPP_Sync_API_test.cpp **** 
   3:test/ConsumerProducer_CPP_Sync_API_test.cpp **** #include "buffer_CPP_API.hpp"
   4:test/ConsumerProducer_CPP_Sync_API_test.cpp **** 
   5:test/ConsumerProducer_CPP_Sync_API_test.cpp **** static Semaphore* waitForAll;
   6:test/ConsumerProducer_CPP_Sync_API_test.cpp **** 
   7:test/ConsumerProducer_CPP_Sync_API_test.cpp **** struct thread_data {
   8:test/ConsumerProducer_CPP_Sync_API_test.cpp ****     int id;
   9:test/ConsumerProducer_CPP_Sync_API_test.cpp ****     BufferCPP *buffer;
  10:test/ConsumerProducer_CPP_Sync_API_test.cpp ****     Semaphore* wait;
  11:test/ConsumerProducer_CPP_Sync_API_test.cpp **** };
  12:test/ConsumerProducer_CPP_Sync_API_test.cpp **** 
  13:test/ConsumerProducer_CPP_Sync_API_test.cpp **** static volatile int threadEnd = 0;
  14:test/ConsumerProducer_CPP_Sync_API_test.cpp **** 
  15:test/ConsumerProducer_CPP_Sync_API_test.cpp **** class ProducerKeyboard:public Thread {
  16:test/ConsumerProducer_CPP_Sync_API_test.cpp ****     thread_data* td;
  17:test/ConsumerProducer_CPP_Sync_API_test.cpp ****     void producerKeyboard(void *arg);
  18:test/ConsumerProducer_CPP_Sync_API_test.cpp **** public:
  19:test/ConsumerProducer_CPP_Sync_API_test.cpp ****     ProducerKeyboard(thread_data* _td):Thread(), td(_td) {}
  20:test/ConsumerProducer_CPP_Sync_API_test.cpp **** 
  21:test/ConsumerProducer_CPP_Sync_API_test.cpp ****     void run() override {
  22:test/ConsumerProducer_CPP_Sync_API_test.cpp ****         producerKeyboard(td);
  23:test/ConsumerProducer_CPP_Sync_API_test.cpp ****     }
  24:test/ConsumerProducer_CPP_Sync_API_test.cpp **** };
  25:test/ConsumerProducer_CPP_Sync_API_test.cpp **** 
  26:test/ConsumerProducer_CPP_Sync_API_test.cpp **** void ProducerKeyboard::producerKeyboard(void *arg) {
  27:test/ConsumerProducer_CPP_Sync_API_test.cpp ****     struct thread_data *data = (struct thread_data *) arg;
  28:test/ConsumerProducer_CPP_Sync_API_test.cpp **** 
  29:test/ConsumerProducer_CPP_Sync_API_test.cpp ****     int key;
  30:test/ConsumerProducer_CPP_Sync_API_test.cpp ****     int i = 0;
  31:test/ConsumerProducer_CPP_Sync_API_test.cpp ****     while ((key = getc()) != 0x1b) {
  32:test/ConsumerProducer_CPP_Sync_API_test.cpp ****         data->buffer->put(key);
  33:test/ConsumerProducer_CPP_Sync_API_test.cpp ****         i++;
  34:test/ConsumerProducer_CPP_Sync_API_test.cpp **** 
  35:test/ConsumerProducer_CPP_Sync_API_test.cpp ****         if (i % (10 * data->id) == 0) {
  36:test/ConsumerProducer_CPP_Sync_API_test.cpp ****             Thread::dispatch();
  37:test/ConsumerProducer_CPP_Sync_API_test.cpp ****         }
  38:test/ConsumerProducer_CPP_Sync_API_test.cpp ****     }
  39:test/ConsumerProducer_CPP_Sync_API_test.cpp **** 
  40:test/ConsumerProducer_CPP_Sync_API_test.cpp ****     threadEnd = 1;
  41:test/ConsumerProducer_CPP_Sync_API_test.cpp ****     td->buffer->put('!');
  42:test/ConsumerProducer_CPP_Sync_API_test.cpp **** 
  43:test/ConsumerProducer_CPP_Sync_API_test.cpp ****     data->wait->signal();
  44:test/ConsumerProducer_CPP_Sync_API_test.cpp **** }
  45:test/ConsumerProducer_CPP_Sync_API_test.cpp **** 
  46:test/ConsumerProducer_CPP_Sync_API_test.cpp **** class ProducerSync:public Thread {
GAS LISTING /tmp/ccGwpvCv.s 			page 2


  47:test/ConsumerProducer_CPP_Sync_API_test.cpp ****     thread_data* td;
  48:test/ConsumerProducer_CPP_Sync_API_test.cpp ****     void producer(void *arg);
  49:test/ConsumerProducer_CPP_Sync_API_test.cpp **** public:
  50:test/ConsumerProducer_CPP_Sync_API_test.cpp ****     ProducerSync(thread_data* _td):Thread(), td(_td) {}
  51:test/ConsumerProducer_CPP_Sync_API_test.cpp **** 
  52:test/ConsumerProducer_CPP_Sync_API_test.cpp ****     void run() override {
  53:test/ConsumerProducer_CPP_Sync_API_test.cpp ****         producer(td);
  54:test/ConsumerProducer_CPP_Sync_API_test.cpp ****     }
  55:test/ConsumerProducer_CPP_Sync_API_test.cpp **** };
  56:test/ConsumerProducer_CPP_Sync_API_test.cpp **** 
  57:test/ConsumerProducer_CPP_Sync_API_test.cpp **** void ProducerSync::producer(void *arg) {
  58:test/ConsumerProducer_CPP_Sync_API_test.cpp ****     struct thread_data *data = (struct thread_data *) arg;
  59:test/ConsumerProducer_CPP_Sync_API_test.cpp **** 
  60:test/ConsumerProducer_CPP_Sync_API_test.cpp ****     int i = 0;
  61:test/ConsumerProducer_CPP_Sync_API_test.cpp ****     while (!threadEnd) {
  62:test/ConsumerProducer_CPP_Sync_API_test.cpp ****         data->buffer->put(data->id + '0');
  63:test/ConsumerProducer_CPP_Sync_API_test.cpp ****         i++;
  64:test/ConsumerProducer_CPP_Sync_API_test.cpp **** 
  65:test/ConsumerProducer_CPP_Sync_API_test.cpp ****         if (i % (10 * data->id) == 0) {
  66:test/ConsumerProducer_CPP_Sync_API_test.cpp ****             Thread::dispatch();
  67:test/ConsumerProducer_CPP_Sync_API_test.cpp ****         }
  68:test/ConsumerProducer_CPP_Sync_API_test.cpp ****     }
  69:test/ConsumerProducer_CPP_Sync_API_test.cpp **** 
  70:test/ConsumerProducer_CPP_Sync_API_test.cpp ****     data->wait->signal();
  71:test/ConsumerProducer_CPP_Sync_API_test.cpp **** }
  72:test/ConsumerProducer_CPP_Sync_API_test.cpp **** 
  73:test/ConsumerProducer_CPP_Sync_API_test.cpp **** class ConsumerSync:public Thread {
  13              		.loc 1 73 7
  14              		.cfi_startproc
  15              	.LVL0:
  16 0000 130101FF 		addi	sp,sp,-16
  17              		.cfi_def_cfa_offset 16
  18 0004 23341100 		sd	ra,8(sp)
  19 0008 23308100 		sd	s0,0(sp)
  20              		.cfi_offset 1, -8
  21              		.cfi_offset 8, -16
  22 000c 13040101 		addi	s0,sp,16
  23              		.cfi_def_cfa 8, 0
  24              	.LBB38:
  25              		.loc 1 73 7 is_stmt 0
  26 0010 97070000 		lla	a5,_ZTV12ConsumerSync+16
  26      93870700 
  27 0018 2330F500 		sd	a5,0(a0)
  28 001c 97000000 		call	_ZN6ThreadD2Ev@plt
  28      E7800000 
  29              	.LVL1:
  30              	.LBE38:
  31 0024 83308100 		ld	ra,8(sp)
  32              		.cfi_restore 1
  33 0028 03340100 		ld	s0,0(sp)
  34              		.cfi_restore 8
  35              		.cfi_def_cfa 2, 16
  36 002c 13010101 		addi	sp,sp,16
  37              		.cfi_def_cfa_offset 0
  38 0030 67800000 		jr	ra
  39              		.cfi_endproc
  40              	.LFE22:
GAS LISTING /tmp/ccGwpvCv.s 			page 3


  42              		.weak	_ZN12ConsumerSyncD1Ev
  43              		.set	_ZN12ConsumerSyncD1Ev,_ZN12ConsumerSyncD2Ev
  44              		.section	.text._ZN12ConsumerSyncD0Ev,"axG",@progbits,_ZN12ConsumerSyncD5Ev,comdat
  45              		.align	2
  46              		.weak	_ZN12ConsumerSyncD0Ev
  48              	_ZN12ConsumerSyncD0Ev:
  49              	.LFB24:
  50              		.loc 1 73 7 is_stmt 1
  51              		.cfi_startproc
  52              	.LVL2:
  53 0000 130101FE 		addi	sp,sp,-32
  54              		.cfi_def_cfa_offset 32
  55 0004 233C1100 		sd	ra,24(sp)
  56 0008 23388100 		sd	s0,16(sp)
  57 000c 23349100 		sd	s1,8(sp)
  58              		.cfi_offset 1, -8
  59              		.cfi_offset 8, -16
  60              		.cfi_offset 9, -24
  61 0010 13040102 		addi	s0,sp,32
  62              		.cfi_def_cfa 8, 0
  63 0014 93040500 		mv	s1,a0
  64              	.LVL3:
  65              	.LBB39:
  66              	.LBB40:
  67              		.loc 1 73 7 is_stmt 0
  68 0018 97070000 		lla	a5,_ZTV12ConsumerSync+16
  68      93870700 
  69 0020 2330F500 		sd	a5,0(a0)
  70 0024 97000000 		call	_ZN6ThreadD2Ev@plt
  70      E7800000 
  71              	.LVL4:
  72              	.LBE40:
  73              	.LBE39:
  74 002c 13850400 		mv	a0,s1
  75 0030 97000000 		call	_ZdlPv@plt
  75      E7800000 
  76              	.LVL5:
  77 0038 83308101 		ld	ra,24(sp)
  78              		.cfi_restore 1
  79 003c 03340101 		ld	s0,16(sp)
  80              		.cfi_restore 8
  81              		.cfi_def_cfa 2, 32
  82 0040 83348100 		ld	s1,8(sp)
  83              		.cfi_restore 9
  84              	.LVL6:
  85 0044 13010102 		addi	sp,sp,32
  86              		.cfi_def_cfa_offset 0
  87 0048 67800000 		jr	ra
  88              		.cfi_endproc
  89              	.LFE24:
  91              		.section	.text._ZN12ProducerSyncD2Ev,"axG",@progbits,_ZN12ProducerSyncD5Ev,comdat
  92              		.align	2
  93              		.weak	_ZN12ProducerSyncD2Ev
  95              	_ZN12ProducerSyncD2Ev:
  96              	.LFB26:
  46:test/ConsumerProducer_CPP_Sync_API_test.cpp ****     thread_data* td;
  97              		.loc 1 46 7 is_stmt 1
GAS LISTING /tmp/ccGwpvCv.s 			page 4


  98              		.cfi_startproc
  99              	.LVL7:
 100 0000 130101FF 		addi	sp,sp,-16
 101              		.cfi_def_cfa_offset 16
 102 0004 23341100 		sd	ra,8(sp)
 103 0008 23308100 		sd	s0,0(sp)
 104              		.cfi_offset 1, -8
 105              		.cfi_offset 8, -16
 106 000c 13040101 		addi	s0,sp,16
 107              		.cfi_def_cfa 8, 0
 108              	.LBB41:
  46:test/ConsumerProducer_CPP_Sync_API_test.cpp ****     thread_data* td;
 109              		.loc 1 46 7 is_stmt 0
 110 0010 97070000 		lla	a5,_ZTV12ProducerSync+16
 110      93870700 
 111 0018 2330F500 		sd	a5,0(a0)
 112 001c 97000000 		call	_ZN6ThreadD2Ev@plt
 112      E7800000 
 113              	.LVL8:
 114              	.LBE41:
 115 0024 83308100 		ld	ra,8(sp)
 116              		.cfi_restore 1
 117 0028 03340100 		ld	s0,0(sp)
 118              		.cfi_restore 8
 119              		.cfi_def_cfa 2, 16
 120 002c 13010101 		addi	sp,sp,16
 121              		.cfi_def_cfa_offset 0
 122 0030 67800000 		jr	ra
 123              		.cfi_endproc
 124              	.LFE26:
 126              		.weak	_ZN12ProducerSyncD1Ev
 127              		.set	_ZN12ProducerSyncD1Ev,_ZN12ProducerSyncD2Ev
 128              		.section	.text._ZN12ProducerSyncD0Ev,"axG",@progbits,_ZN12ProducerSyncD5Ev,comdat
 129              		.align	2
 130              		.weak	_ZN12ProducerSyncD0Ev
 132              	_ZN12ProducerSyncD0Ev:
 133              	.LFB28:
  46:test/ConsumerProducer_CPP_Sync_API_test.cpp ****     thread_data* td;
 134              		.loc 1 46 7 is_stmt 1
 135              		.cfi_startproc
 136              	.LVL9:
 137 0000 130101FE 		addi	sp,sp,-32
 138              		.cfi_def_cfa_offset 32
 139 0004 233C1100 		sd	ra,24(sp)
 140 0008 23388100 		sd	s0,16(sp)
 141 000c 23349100 		sd	s1,8(sp)
 142              		.cfi_offset 1, -8
 143              		.cfi_offset 8, -16
 144              		.cfi_offset 9, -24
 145 0010 13040102 		addi	s0,sp,32
 146              		.cfi_def_cfa 8, 0
 147 0014 93040500 		mv	s1,a0
 148              	.LVL10:
 149              	.LBB42:
 150              	.LBB43:
  46:test/ConsumerProducer_CPP_Sync_API_test.cpp ****     thread_data* td;
 151              		.loc 1 46 7 is_stmt 0
GAS LISTING /tmp/ccGwpvCv.s 			page 5


 152 0018 97070000 		lla	a5,_ZTV12ProducerSync+16
 152      93870700 
 153 0020 2330F500 		sd	a5,0(a0)
 154 0024 97000000 		call	_ZN6ThreadD2Ev@plt
 154      E7800000 
 155              	.LVL11:
 156              	.LBE43:
 157              	.LBE42:
 158 002c 13850400 		mv	a0,s1
 159 0030 97000000 		call	_ZdlPv@plt
 159      E7800000 
 160              	.LVL12:
 161 0038 83308101 		ld	ra,24(sp)
 162              		.cfi_restore 1
 163 003c 03340101 		ld	s0,16(sp)
 164              		.cfi_restore 8
 165              		.cfi_def_cfa 2, 32
 166 0040 83348100 		ld	s1,8(sp)
 167              		.cfi_restore 9
 168              	.LVL13:
 169 0044 13010102 		addi	sp,sp,32
 170              		.cfi_def_cfa_offset 0
 171 0048 67800000 		jr	ra
 172              		.cfi_endproc
 173              	.LFE28:
 175              		.section	.text._ZN16ProducerKeyboardD2Ev,"axG",@progbits,_ZN16ProducerKeyboardD5Ev,comdat
 176              		.align	2
 177              		.weak	_ZN16ProducerKeyboardD2Ev
 179              	_ZN16ProducerKeyboardD2Ev:
 180              	.LFB30:
  15:test/ConsumerProducer_CPP_Sync_API_test.cpp ****     thread_data* td;
 181              		.loc 1 15 7 is_stmt 1
 182              		.cfi_startproc
 183              	.LVL14:
 184 0000 130101FF 		addi	sp,sp,-16
 185              		.cfi_def_cfa_offset 16
 186 0004 23341100 		sd	ra,8(sp)
 187 0008 23308100 		sd	s0,0(sp)
 188              		.cfi_offset 1, -8
 189              		.cfi_offset 8, -16
 190 000c 13040101 		addi	s0,sp,16
 191              		.cfi_def_cfa 8, 0
 192              	.LBB44:
  15:test/ConsumerProducer_CPP_Sync_API_test.cpp ****     thread_data* td;
 193              		.loc 1 15 7 is_stmt 0
 194 0010 97070000 		lla	a5,_ZTV16ProducerKeyboard+16
 194      93870700 
 195 0018 2330F500 		sd	a5,0(a0)
 196 001c 97000000 		call	_ZN6ThreadD2Ev@plt
 196      E7800000 
 197              	.LVL15:
 198              	.LBE44:
 199 0024 83308100 		ld	ra,8(sp)
 200              		.cfi_restore 1
 201 0028 03340100 		ld	s0,0(sp)
 202              		.cfi_restore 8
 203              		.cfi_def_cfa 2, 16
GAS LISTING /tmp/ccGwpvCv.s 			page 6


 204 002c 13010101 		addi	sp,sp,16
 205              		.cfi_def_cfa_offset 0
 206 0030 67800000 		jr	ra
 207              		.cfi_endproc
 208              	.LFE30:
 210              		.weak	_ZN16ProducerKeyboardD1Ev
 211              		.set	_ZN16ProducerKeyboardD1Ev,_ZN16ProducerKeyboardD2Ev
 212              		.section	.text._ZN16ProducerKeyboardD0Ev,"axG",@progbits,_ZN16ProducerKeyboardD5Ev,comdat
 213              		.align	2
 214              		.weak	_ZN16ProducerKeyboardD0Ev
 216              	_ZN16ProducerKeyboardD0Ev:
 217              	.LFB32:
  15:test/ConsumerProducer_CPP_Sync_API_test.cpp ****     thread_data* td;
 218              		.loc 1 15 7 is_stmt 1
 219              		.cfi_startproc
 220              	.LVL16:
 221 0000 130101FE 		addi	sp,sp,-32
 222              		.cfi_def_cfa_offset 32
 223 0004 233C1100 		sd	ra,24(sp)
 224 0008 23388100 		sd	s0,16(sp)
 225 000c 23349100 		sd	s1,8(sp)
 226              		.cfi_offset 1, -8
 227              		.cfi_offset 8, -16
 228              		.cfi_offset 9, -24
 229 0010 13040102 		addi	s0,sp,32
 230              		.cfi_def_cfa 8, 0
 231 0014 93040500 		mv	s1,a0
 232              	.LVL17:
 233              	.LBB45:
 234              	.LBB46:
  15:test/ConsumerProducer_CPP_Sync_API_test.cpp ****     thread_data* td;
 235              		.loc 1 15 7 is_stmt 0
 236 0018 97070000 		lla	a5,_ZTV16ProducerKeyboard+16
 236      93870700 
 237 0020 2330F500 		sd	a5,0(a0)
 238 0024 97000000 		call	_ZN6ThreadD2Ev@plt
 238      E7800000 
 239              	.LVL18:
 240              	.LBE46:
 241              	.LBE45:
 242 002c 13850400 		mv	a0,s1
 243 0030 97000000 		call	_ZdlPv@plt
 243      E7800000 
 244              	.LVL19:
 245 0038 83308101 		ld	ra,24(sp)
 246              		.cfi_restore 1
 247 003c 03340101 		ld	s0,16(sp)
 248              		.cfi_restore 8
 249              		.cfi_def_cfa 2, 32
 250 0040 83348100 		ld	s1,8(sp)
 251              		.cfi_restore 9
 252              	.LVL20:
 253 0044 13010102 		addi	sp,sp,32
 254              		.cfi_def_cfa_offset 0
 255 0048 67800000 		jr	ra
 256              		.cfi_endproc
 257              	.LFE32:
GAS LISTING /tmp/ccGwpvCv.s 			page 7


 259              		.text
 260              		.align	2
 261              		.globl	_ZN16ProducerKeyboard16producerKeyboardEPv
 263              	_ZN16ProducerKeyboard16producerKeyboardEPv:
 264              	.LFB9:
  26:test/ConsumerProducer_CPP_Sync_API_test.cpp ****     struct thread_data *data = (struct thread_data *) arg;
 265              		.loc 1 26 52 is_stmt 1
 266              		.cfi_startproc
 267              	.LVL21:
 268 0000 130101FD 		addi	sp,sp,-48
 269              		.cfi_def_cfa_offset 48
 270 0004 23341102 		sd	ra,40(sp)
 271 0008 23308102 		sd	s0,32(sp)
 272 000c 233C9100 		sd	s1,24(sp)
 273 0010 23382101 		sd	s2,16(sp)
 274 0014 23343101 		sd	s3,8(sp)
 275              		.cfi_offset 1, -8
 276              		.cfi_offset 8, -16
 277              		.cfi_offset 9, -24
 278              		.cfi_offset 18, -32
 279              		.cfi_offset 19, -40
 280 0018 13040103 		addi	s0,sp,48
 281              		.cfi_def_cfa 8, 0
 282 001c 93090500 		mv	s3,a0
 283 0020 93840500 		mv	s1,a1
  27:test/ConsumerProducer_CPP_Sync_API_test.cpp **** 
 284              		.loc 1 27 5
 285              	.LVL22:
  29:test/ConsumerProducer_CPP_Sync_API_test.cpp ****     int i = 0;
 286              		.loc 1 29 5
  30:test/ConsumerProducer_CPP_Sync_API_test.cpp ****     while ((key = getc()) != 0x1b) {
 287              		.loc 1 30 5
  30:test/ConsumerProducer_CPP_Sync_API_test.cpp ****     while ((key = getc()) != 0x1b) {
 288              		.loc 1 30 9 is_stmt 0
 289 0024 13090000 		li	s2,0
 290 0028 6F00C000 		j	.L14
 291              	.LVL23:
 292              	.L18:
  36:test/ConsumerProducer_CPP_Sync_API_test.cpp ****         }
 293              		.loc 1 36 13 is_stmt 1
  36:test/ConsumerProducer_CPP_Sync_API_test.cpp ****         }
 294              		.loc 1 36 29 is_stmt 0
 295 002c 97000000 		call	_ZN6Thread8dispatchEv@plt
 295      E7800000 
 296              	.LVL24:
 297              	.L14:
  31:test/ConsumerProducer_CPP_Sync_API_test.cpp ****         data->buffer->put(key);
 298              		.loc 1 31 5 is_stmt 1
  31:test/ConsumerProducer_CPP_Sync_API_test.cpp ****         data->buffer->put(key);
 299              		.loc 1 31 27
  31:test/ConsumerProducer_CPP_Sync_API_test.cpp ****         data->buffer->put(key);
 300              		.loc 1 31 23 is_stmt 0
 301 0034 97000000 		call	_Z4getcv@plt
 301      E7800000 
 302              	.LVL25:
 303 003c 93050500 		mv	a1,a0
 304              	.LVL26:
GAS LISTING /tmp/ccGwpvCv.s 			page 8


  31:test/ConsumerProducer_CPP_Sync_API_test.cpp ****         data->buffer->put(key);
 305              		.loc 1 31 27
 306 0040 9307B001 		li	a5,27
 307 0044 630AF502 		beq	a0,a5,.L15
  32:test/ConsumerProducer_CPP_Sync_API_test.cpp ****         i++;
 308              		.loc 1 32 9 is_stmt 1
  32:test/ConsumerProducer_CPP_Sync_API_test.cpp ****         i++;
 309              		.loc 1 32 26 is_stmt 0
 310 0048 03B58400 		ld	a0,8(s1)
 311              	.LVL27:
 312 004c 97000000 		call	_ZN9BufferCPP3putEi@plt
 312      E7800000 
 313              	.LVL28:
  33:test/ConsumerProducer_CPP_Sync_API_test.cpp **** 
 314              		.loc 1 33 9 is_stmt 1
  33:test/ConsumerProducer_CPP_Sync_API_test.cpp **** 
 315              		.loc 1 33 10 is_stmt 0
 316 0054 1B071900 		addiw	a4,s2,1
 317 0058 1B090700 		sext.w	s2,a4
 318              	.LVL29:
  35:test/ConsumerProducer_CPP_Sync_API_test.cpp ****             Thread::dispatch();
 319              		.loc 1 35 9 is_stmt 1
  35:test/ConsumerProducer_CPP_Sync_API_test.cpp ****             Thread::dispatch();
 320              		.loc 1 35 29 is_stmt 0
 321 005c 83A60400 		lw	a3,0(s1)
  35:test/ConsumerProducer_CPP_Sync_API_test.cpp ****             Thread::dispatch();
 322              		.loc 1 35 21
 323 0060 9B972600 		slliw	a5,a3,2
 324 0064 BB87D700 		addw	a5,a5,a3
 325 0068 9B971700 		slliw	a5,a5,1
  35:test/ConsumerProducer_CPP_Sync_API_test.cpp ****             Thread::dispatch();
 326              		.loc 1 35 15
 327 006c BB67F702 		remw	a5,a4,a5
  35:test/ConsumerProducer_CPP_Sync_API_test.cpp ****             Thread::dispatch();
 328              		.loc 1 35 9
 329 0070 E39207FC 		bnez	a5,.L14
 330 0074 6FF09FFB 		j	.L18
 331              	.LVL30:
 332              	.L15:
  40:test/ConsumerProducer_CPP_Sync_API_test.cpp ****     td->buffer->put('!');
 333              		.loc 1 40 5 is_stmt 1
  40:test/ConsumerProducer_CPP_Sync_API_test.cpp ****     td->buffer->put('!');
 334              		.loc 1 40 15 is_stmt 0
 335 0078 93071000 		li	a5,1
 336 007c 17070000 		sw	a5,.LANCHOR0,a4
 336      2320F700 
  41:test/ConsumerProducer_CPP_Sync_API_test.cpp **** 
 337              		.loc 1 41 5 is_stmt 1
 338 0084 83B70902 		ld	a5,32(s3)
  41:test/ConsumerProducer_CPP_Sync_API_test.cpp **** 
 339              		.loc 1 41 20 is_stmt 0
 340 0088 93051002 		li	a1,33
 341 008c 03B58700 		ld	a0,8(a5)
 342              	.LVL31:
 343 0090 97000000 		call	_ZN9BufferCPP3putEi@plt
 343      E7800000 
 344              	.LVL32:
GAS LISTING /tmp/ccGwpvCv.s 			page 9


  43:test/ConsumerProducer_CPP_Sync_API_test.cpp **** }
 345              		.loc 1 43 5 is_stmt 1
  43:test/ConsumerProducer_CPP_Sync_API_test.cpp **** }
 346              		.loc 1 43 23 is_stmt 0
 347 0098 03B50401 		ld	a0,16(s1)
 348 009c 97000000 		call	_ZN9Semaphore6signalEv@plt
 348      E7800000 
 349              	.LVL33:
  44:test/ConsumerProducer_CPP_Sync_API_test.cpp **** 
 350              		.loc 1 44 1
 351 00a4 83308102 		ld	ra,40(sp)
 352              		.cfi_restore 1
 353 00a8 03340102 		ld	s0,32(sp)
 354              		.cfi_restore 8
 355              		.cfi_def_cfa 2, 48
 356 00ac 83348101 		ld	s1,24(sp)
 357              		.cfi_restore 9
 358              	.LVL34:
 359 00b0 03390101 		ld	s2,16(sp)
 360              		.cfi_restore 18
 361              	.LVL35:
 362 00b4 83398100 		ld	s3,8(sp)
 363              		.cfi_restore 19
 364              	.LVL36:
 365 00b8 13010103 		addi	sp,sp,48
 366              		.cfi_def_cfa_offset 0
 367 00bc 67800000 		jr	ra
 368              		.cfi_endproc
 369              	.LFE9:
 371              		.section	.text._ZN16ProducerKeyboard3runEv,"axG",@progbits,_ZN16ProducerKeyboard3runEv,comdat
 372              		.align	2
 373              		.weak	_ZN16ProducerKeyboard3runEv
 375              	_ZN16ProducerKeyboard3runEv:
 376              	.LFB8:
  21:test/ConsumerProducer_CPP_Sync_API_test.cpp ****         producerKeyboard(td);
 377              		.loc 1 21 10 is_stmt 1
 378              		.cfi_startproc
 379              	.LVL37:
 380 0000 130101FF 		addi	sp,sp,-16
 381              		.cfi_def_cfa_offset 16
 382 0004 23341100 		sd	ra,8(sp)
 383 0008 23308100 		sd	s0,0(sp)
 384              		.cfi_offset 1, -8
 385              		.cfi_offset 8, -16
 386 000c 13040101 		addi	s0,sp,16
 387              		.cfi_def_cfa 8, 0
  22:test/ConsumerProducer_CPP_Sync_API_test.cpp ****     }
 388              		.loc 1 22 9
  22:test/ConsumerProducer_CPP_Sync_API_test.cpp ****     }
 389              		.loc 1 22 25 is_stmt 0
 390 0010 83350502 		ld	a1,32(a0)
 391 0014 97000000 		call	_ZN16ProducerKeyboard16producerKeyboardEPv
 391      E7800000 
 392              	.LVL38:
  23:test/ConsumerProducer_CPP_Sync_API_test.cpp **** };
 393              		.loc 1 23 5
 394 001c 83308100 		ld	ra,8(sp)
GAS LISTING /tmp/ccGwpvCv.s 			page 10


 395              		.cfi_restore 1
 396 0020 03340100 		ld	s0,0(sp)
 397              		.cfi_restore 8
 398              		.cfi_def_cfa 2, 16
 399 0024 13010101 		addi	sp,sp,16
 400              		.cfi_def_cfa_offset 0
 401 0028 67800000 		jr	ra
 402              		.cfi_endproc
 403              	.LFE8:
 405              		.text
 406              		.align	2
 407              		.globl	_ZN12ProducerSync8producerEPv
 409              	_ZN12ProducerSync8producerEPv:
 410              	.LFB14:
  57:test/ConsumerProducer_CPP_Sync_API_test.cpp ****     struct thread_data *data = (struct thread_data *) arg;
 411              		.loc 1 57 40 is_stmt 1
 412              		.cfi_startproc
 413              	.LVL39:
 414 00c0 130101FE 		addi	sp,sp,-32
 415              		.cfi_def_cfa_offset 32
 416 00c4 233C1100 		sd	ra,24(sp)
 417 00c8 23388100 		sd	s0,16(sp)
 418 00cc 23349100 		sd	s1,8(sp)
 419 00d0 23302101 		sd	s2,0(sp)
 420              		.cfi_offset 1, -8
 421              		.cfi_offset 8, -16
 422              		.cfi_offset 9, -24
 423              		.cfi_offset 18, -32
 424 00d4 13040102 		addi	s0,sp,32
 425              		.cfi_def_cfa 8, 0
 426 00d8 93840500 		mv	s1,a1
  58:test/ConsumerProducer_CPP_Sync_API_test.cpp **** 
 427              		.loc 1 58 5
 428              	.LVL40:
  60:test/ConsumerProducer_CPP_Sync_API_test.cpp ****     while (!threadEnd) {
 429              		.loc 1 60 5
  60:test/ConsumerProducer_CPP_Sync_API_test.cpp ****     while (!threadEnd) {
 430              		.loc 1 60 9 is_stmt 0
 431 00dc 13090000 		li	s2,0
 432 00e0 6F00C000 		j	.L22
 433              	.LVL41:
 434              	.L26:
  66:test/ConsumerProducer_CPP_Sync_API_test.cpp ****         }
 435              		.loc 1 66 13 is_stmt 1
  66:test/ConsumerProducer_CPP_Sync_API_test.cpp ****         }
 436              		.loc 1 66 29 is_stmt 0
 437 00e4 97000000 		call	_ZN6Thread8dispatchEv@plt
 437      E7800000 
 438              	.LVL42:
 439              	.L22:
  61:test/ConsumerProducer_CPP_Sync_API_test.cpp ****         data->buffer->put(data->id + '0');
 440              		.loc 1 61 5 is_stmt 1
  61:test/ConsumerProducer_CPP_Sync_API_test.cpp ****         data->buffer->put(data->id + '0');
 441              		.loc 1 61 12
 442 00ec 97070000 		lw	a5,.LANCHOR0
 442      83A70700 
 443 00f4 639E0702 		bnez	a5,.L23
GAS LISTING /tmp/ccGwpvCv.s 			page 11


  62:test/ConsumerProducer_CPP_Sync_API_test.cpp ****         i++;
 444              		.loc 1 62 9
  62:test/ConsumerProducer_CPP_Sync_API_test.cpp ****         i++;
 445              		.loc 1 62 33 is_stmt 0
 446 00f8 83A50400 		lw	a1,0(s1)
  62:test/ConsumerProducer_CPP_Sync_API_test.cpp ****         i++;
 447              		.loc 1 62 26
 448 00fc 9B850503 		addiw	a1,a1,48
 449 0100 03B58400 		ld	a0,8(s1)
 450 0104 97000000 		call	_ZN9BufferCPP3putEi@plt
 450      E7800000 
 451              	.LVL43:
  63:test/ConsumerProducer_CPP_Sync_API_test.cpp **** 
 452              		.loc 1 63 9 is_stmt 1
  63:test/ConsumerProducer_CPP_Sync_API_test.cpp **** 
 453              		.loc 1 63 10 is_stmt 0
 454 010c 1B071900 		addiw	a4,s2,1
 455 0110 1B090700 		sext.w	s2,a4
 456              	.LVL44:
  65:test/ConsumerProducer_CPP_Sync_API_test.cpp ****             Thread::dispatch();
 457              		.loc 1 65 9 is_stmt 1
  65:test/ConsumerProducer_CPP_Sync_API_test.cpp ****             Thread::dispatch();
 458              		.loc 1 65 29 is_stmt 0
 459 0114 83A60400 		lw	a3,0(s1)
  65:test/ConsumerProducer_CPP_Sync_API_test.cpp ****             Thread::dispatch();
 460              		.loc 1 65 21
 461 0118 9B972600 		slliw	a5,a3,2
 462 011c BB87D700 		addw	a5,a5,a3
 463 0120 9B971700 		slliw	a5,a5,1
  65:test/ConsumerProducer_CPP_Sync_API_test.cpp ****             Thread::dispatch();
 464              		.loc 1 65 15
 465 0124 BB67F702 		remw	a5,a4,a5
  65:test/ConsumerProducer_CPP_Sync_API_test.cpp ****             Thread::dispatch();
 466              		.loc 1 65 9
 467 0128 E39207FC 		bnez	a5,.L22
 468 012c 6FF09FFB 		j	.L26
 469              	.LVL45:
 470              	.L23:
  70:test/ConsumerProducer_CPP_Sync_API_test.cpp **** }
 471              		.loc 1 70 5 is_stmt 1
  70:test/ConsumerProducer_CPP_Sync_API_test.cpp **** }
 472              		.loc 1 70 23 is_stmt 0
 473 0130 03B50401 		ld	a0,16(s1)
 474 0134 97000000 		call	_ZN9Semaphore6signalEv@plt
 474      E7800000 
 475              	.LVL46:
  71:test/ConsumerProducer_CPP_Sync_API_test.cpp **** 
 476              		.loc 1 71 1
 477 013c 83308101 		ld	ra,24(sp)
 478              		.cfi_restore 1
 479 0140 03340101 		ld	s0,16(sp)
 480              		.cfi_restore 8
 481              		.cfi_def_cfa 2, 32
 482 0144 83348100 		ld	s1,8(sp)
 483              		.cfi_restore 9
 484              	.LVL47:
 485 0148 03390100 		ld	s2,0(sp)
GAS LISTING /tmp/ccGwpvCv.s 			page 12


 486              		.cfi_restore 18
 487              	.LVL48:
 488 014c 13010102 		addi	sp,sp,32
 489              		.cfi_def_cfa_offset 0
 490 0150 67800000 		jr	ra
 491              		.cfi_endproc
 492              	.LFE14:
 494              		.section	.text._ZN12ProducerSync3runEv,"axG",@progbits,_ZN12ProducerSync3runEv,comdat
 495              		.align	2
 496              		.weak	_ZN12ProducerSync3runEv
 498              	_ZN12ProducerSync3runEv:
 499              	.LFB13:
  52:test/ConsumerProducer_CPP_Sync_API_test.cpp ****         producer(td);
 500              		.loc 1 52 10 is_stmt 1
 501              		.cfi_startproc
 502              	.LVL49:
 503 0000 130101FF 		addi	sp,sp,-16
 504              		.cfi_def_cfa_offset 16
 505 0004 23341100 		sd	ra,8(sp)
 506 0008 23308100 		sd	s0,0(sp)
 507              		.cfi_offset 1, -8
 508              		.cfi_offset 8, -16
 509 000c 13040101 		addi	s0,sp,16
 510              		.cfi_def_cfa 8, 0
  53:test/ConsumerProducer_CPP_Sync_API_test.cpp ****     }
 511              		.loc 1 53 9
  53:test/ConsumerProducer_CPP_Sync_API_test.cpp ****     }
 512              		.loc 1 53 17 is_stmt 0
 513 0010 83350502 		ld	a1,32(a0)
 514 0014 97000000 		call	_ZN12ProducerSync8producerEPv
 514      E7800000 
 515              	.LVL50:
  54:test/ConsumerProducer_CPP_Sync_API_test.cpp **** };
 516              		.loc 1 54 5
 517 001c 83308100 		ld	ra,8(sp)
 518              		.cfi_restore 1
 519 0020 03340100 		ld	s0,0(sp)
 520              		.cfi_restore 8
 521              		.cfi_def_cfa 2, 16
 522 0024 13010101 		addi	sp,sp,16
 523              		.cfi_def_cfa_offset 0
 524 0028 67800000 		jr	ra
 525              		.cfi_endproc
 526              	.LFE13:
 528              		.text
 529              		.align	2
 530              		.globl	_ZN12ConsumerSync8consumerEPv
 532              	_ZN12ConsumerSync8consumerEPv:
 533              	.LFB19:
  74:test/ConsumerProducer_CPP_Sync_API_test.cpp ****     thread_data* td;
  75:test/ConsumerProducer_CPP_Sync_API_test.cpp ****     void consumer(void *arg);
  76:test/ConsumerProducer_CPP_Sync_API_test.cpp **** public:
  77:test/ConsumerProducer_CPP_Sync_API_test.cpp ****     ConsumerSync(thread_data* _td):Thread(), td(_td) {}
  78:test/ConsumerProducer_CPP_Sync_API_test.cpp **** 
  79:test/ConsumerProducer_CPP_Sync_API_test.cpp ****     void run() override {
  80:test/ConsumerProducer_CPP_Sync_API_test.cpp ****         consumer(td);
  81:test/ConsumerProducer_CPP_Sync_API_test.cpp ****     }
GAS LISTING /tmp/ccGwpvCv.s 			page 13


  82:test/ConsumerProducer_CPP_Sync_API_test.cpp **** };
  83:test/ConsumerProducer_CPP_Sync_API_test.cpp **** 
  84:test/ConsumerProducer_CPP_Sync_API_test.cpp **** void ConsumerSync::consumer(void *arg) {
 534              		.loc 1 84 40 is_stmt 1
 535              		.cfi_startproc
 536              	.LVL51:
 537 0154 130101FD 		addi	sp,sp,-48
 538              		.cfi_def_cfa_offset 48
 539 0158 23341102 		sd	ra,40(sp)
 540 015c 23308102 		sd	s0,32(sp)
 541 0160 233C9100 		sd	s1,24(sp)
 542 0164 23382101 		sd	s2,16(sp)
 543 0168 23343101 		sd	s3,8(sp)
 544 016c 23304101 		sd	s4,0(sp)
 545              		.cfi_offset 1, -8
 546              		.cfi_offset 8, -16
 547              		.cfi_offset 9, -24
 548              		.cfi_offset 18, -32
 549              		.cfi_offset 19, -40
 550              		.cfi_offset 20, -48
 551 0170 13040103 		addi	s0,sp,48
 552              		.cfi_def_cfa 8, 0
 553 0174 93090500 		mv	s3,a0
 554 0178 13890500 		mv	s2,a1
  85:test/ConsumerProducer_CPP_Sync_API_test.cpp ****     struct thread_data *data = (struct thread_data *) arg;
 555              		.loc 1 85 5
 556              	.LVL52:
  86:test/ConsumerProducer_CPP_Sync_API_test.cpp **** 
  87:test/ConsumerProducer_CPP_Sync_API_test.cpp ****     int i = 0;
 557              		.loc 1 87 5
 558              		.loc 1 87 9 is_stmt 0
 559 017c 130A0000 		li	s4,0
 560 0180 6F00C001 		j	.L30
 561              	.LVL53:
 562              	.L36:
 563              	.LBB47:
  88:test/ConsumerProducer_CPP_Sync_API_test.cpp ****     while (!threadEnd) {
  89:test/ConsumerProducer_CPP_Sync_API_test.cpp ****         int key = data->buffer->get();
  90:test/ConsumerProducer_CPP_Sync_API_test.cpp ****         i++;
  91:test/ConsumerProducer_CPP_Sync_API_test.cpp **** 
  92:test/ConsumerProducer_CPP_Sync_API_test.cpp ****         putc(key);
  93:test/ConsumerProducer_CPP_Sync_API_test.cpp **** 
  94:test/ConsumerProducer_CPP_Sync_API_test.cpp ****         if (i % (5 * data->id) == 0) {
  95:test/ConsumerProducer_CPP_Sync_API_test.cpp ****             Thread::dispatch();
 564              		.loc 1 95 13 is_stmt 1
 565              		.loc 1 95 29 is_stmt 0
 566 0184 97000000 		call	_ZN6Thread8dispatchEv@plt
 566      E7800000 
 567              	.LVL54:
 568 018c 6F000005 		j	.L32
 569              	.LVL55:
 570              	.L37:
  96:test/ConsumerProducer_CPP_Sync_API_test.cpp ****         }
  97:test/ConsumerProducer_CPP_Sync_API_test.cpp **** 
  98:test/ConsumerProducer_CPP_Sync_API_test.cpp ****         if (i % 80 == 0) {
  99:test/ConsumerProducer_CPP_Sync_API_test.cpp ****             putc('\n');
 571              		.loc 1 99 13 is_stmt 1
GAS LISTING /tmp/ccGwpvCv.s 			page 14


 572              		.loc 1 99 17 is_stmt 0
 573 0190 1305A000 		li	a0,10
 574 0194 97000000 		call	_Z4putcc@plt
 574      E7800000 
 575              	.LVL56:
 576              	.L30:
 577              	.LBE47:
  88:test/ConsumerProducer_CPP_Sync_API_test.cpp ****     while (!threadEnd) {
 578              		.loc 1 88 5 is_stmt 1
  88:test/ConsumerProducer_CPP_Sync_API_test.cpp ****     while (!threadEnd) {
 579              		.loc 1 88 12
 580 019c 97070000 		lw	a5,.LANCHOR0
 580      83A70700 
 581 01a4 63920706 		bnez	a5,.L31
 582              	.LBB48:
  89:test/ConsumerProducer_CPP_Sync_API_test.cpp ****         i++;
 583              		.loc 1 89 9
  89:test/ConsumerProducer_CPP_Sync_API_test.cpp ****         i++;
 584              		.loc 1 89 36 is_stmt 0
 585 01a8 03358900 		ld	a0,8(s2)
 586 01ac 97000000 		call	_ZN9BufferCPP3getEv@plt
 586      E7800000 
 587              	.LVL57:
  90:test/ConsumerProducer_CPP_Sync_API_test.cpp **** 
 588              		.loc 1 90 9 is_stmt 1
  90:test/ConsumerProducer_CPP_Sync_API_test.cpp **** 
 589              		.loc 1 90 10 is_stmt 0
 590 01b4 9B041A00 		addiw	s1,s4,1
 591 01b8 1B8A0400 		sext.w	s4,s1
 592              	.LVL58:
  92:test/ConsumerProducer_CPP_Sync_API_test.cpp **** 
 593              		.loc 1 92 9 is_stmt 1
  92:test/ConsumerProducer_CPP_Sync_API_test.cpp **** 
 594              		.loc 1 92 13 is_stmt 0
 595 01bc 1375F50F 		andi	a0,a0,0xff
 596              	.LVL59:
 597 01c0 97000000 		call	_Z4putcc@plt
 597      E7800000 
 598              	.LVL60:
  94:test/ConsumerProducer_CPP_Sync_API_test.cpp ****             Thread::dispatch();
 599              		.loc 1 94 9 is_stmt 1
  94:test/ConsumerProducer_CPP_Sync_API_test.cpp ****             Thread::dispatch();
 600              		.loc 1 94 28 is_stmt 0
 601 01c8 03270900 		lw	a4,0(s2)
  94:test/ConsumerProducer_CPP_Sync_API_test.cpp ****             Thread::dispatch();
 602              		.loc 1 94 20
 603 01cc 9B172700 		slliw	a5,a4,2
 604 01d0 BB87E700 		addw	a5,a5,a4
  94:test/ConsumerProducer_CPP_Sync_API_test.cpp ****             Thread::dispatch();
 605              		.loc 1 94 15
 606 01d4 BBE7F402 		remw	a5,s1,a5
  94:test/ConsumerProducer_CPP_Sync_API_test.cpp ****             Thread::dispatch();
 607              		.loc 1 94 9
 608 01d8 E38607FA 		beqz	a5,.L36
 609              	.L32:
  98:test/ConsumerProducer_CPP_Sync_API_test.cpp ****             putc('\n');
 610              		.loc 1 98 9 is_stmt 1
GAS LISTING /tmp/ccGwpvCv.s 			page 15


  98:test/ConsumerProducer_CPP_Sync_API_test.cpp ****             putc('\n');
 611              		.loc 1 98 15 is_stmt 0
 612 01dc 93070005 		li	a5,80
 613 01e0 BBE4F402 		remw	s1,s1,a5
 614              	.LVL61:
  98:test/ConsumerProducer_CPP_Sync_API_test.cpp ****             putc('\n');
 615              		.loc 1 98 9
 616 01e4 E39C04FA 		bnez	s1,.L30
 617 01e8 6FF09FFA 		j	.L37
 618              	.L38:
 619              	.LBE48:
 620              	.LBB49:
 100:test/ConsumerProducer_CPP_Sync_API_test.cpp ****         }
 101:test/ConsumerProducer_CPP_Sync_API_test.cpp ****     }
 102:test/ConsumerProducer_CPP_Sync_API_test.cpp **** 
 103:test/ConsumerProducer_CPP_Sync_API_test.cpp **** 
 104:test/ConsumerProducer_CPP_Sync_API_test.cpp ****     while (td->buffer->getCnt() > 0) {
 105:test/ConsumerProducer_CPP_Sync_API_test.cpp ****         int key = td->buffer->get();
 621              		.loc 1 105 9 is_stmt 1
 622              		.loc 1 105 19 is_stmt 0
 623 01ec 83B70902 		ld	a5,32(s3)
 624              		.loc 1 105 34
 625 01f0 03B58700 		ld	a0,8(a5)
 626 01f4 97000000 		call	_ZN9BufferCPP3getEv@plt
 626      E7800000 
 627              	.LVL62:
 106:test/ConsumerProducer_CPP_Sync_API_test.cpp ****         Console::putc(key);
 628              		.loc 1 106 9 is_stmt 1
 629              		.loc 1 106 22 is_stmt 0
 630 01fc 1375F50F 		andi	a0,a0,0xff
 631              	.LVL63:
 632 0200 97000000 		call	_ZN7Console4putcEc@plt
 632      E7800000 
 633              	.LVL64:
 634              	.L31:
 635              	.LBE49:
 104:test/ConsumerProducer_CPP_Sync_API_test.cpp ****         int key = td->buffer->get();
 636              		.loc 1 104 5 is_stmt 1
 104:test/ConsumerProducer_CPP_Sync_API_test.cpp ****         int key = td->buffer->get();
 637              		.loc 1 104 33
 104:test/ConsumerProducer_CPP_Sync_API_test.cpp ****         int key = td->buffer->get();
 638              		.loc 1 104 12 is_stmt 0
 639 0208 83B70902 		ld	a5,32(s3)
 104:test/ConsumerProducer_CPP_Sync_API_test.cpp ****         int key = td->buffer->get();
 640              		.loc 1 104 30
 641 020c 03B58700 		ld	a0,8(a5)
 642 0210 97000000 		call	_ZN9BufferCPP6getCntEv@plt
 642      E7800000 
 643              	.LVL65:
 104:test/ConsumerProducer_CPP_Sync_API_test.cpp ****         int key = td->buffer->get();
 644              		.loc 1 104 33
 645 0218 E34AA0FC 		bgtz	a0,.L38
 107:test/ConsumerProducer_CPP_Sync_API_test.cpp ****     }
 108:test/ConsumerProducer_CPP_Sync_API_test.cpp **** 
 109:test/ConsumerProducer_CPP_Sync_API_test.cpp ****     data->wait->signal();
 646              		.loc 1 109 5 is_stmt 1
 647              		.loc 1 109 23 is_stmt 0
GAS LISTING /tmp/ccGwpvCv.s 			page 16


 648 021c 03350901 		ld	a0,16(s2)
 649 0220 97000000 		call	_ZN9Semaphore6signalEv@plt
 649      E7800000 
 650              	.LVL66:
 110:test/ConsumerProducer_CPP_Sync_API_test.cpp **** }
 651              		.loc 1 110 1
 652 0228 83308102 		ld	ra,40(sp)
 653              		.cfi_restore 1
 654 022c 03340102 		ld	s0,32(sp)
 655              		.cfi_restore 8
 656              		.cfi_def_cfa 2, 48
 657 0230 83348101 		ld	s1,24(sp)
 658              		.cfi_restore 9
 659 0234 03390101 		ld	s2,16(sp)
 660              		.cfi_restore 18
 661              	.LVL67:
 662 0238 83398100 		ld	s3,8(sp)
 663              		.cfi_restore 19
 664              	.LVL68:
 665 023c 033A0100 		ld	s4,0(sp)
 666              		.cfi_restore 20
 667              	.LVL69:
 668 0240 13010103 		addi	sp,sp,48
 669              		.cfi_def_cfa_offset 0
 670 0244 67800000 		jr	ra
 671              		.cfi_endproc
 672              	.LFE19:
 674              		.section	.text._ZN12ConsumerSync3runEv,"axG",@progbits,_ZN12ConsumerSync3runEv,comdat
 675              		.align	2
 676              		.weak	_ZN12ConsumerSync3runEv
 678              	_ZN12ConsumerSync3runEv:
 679              	.LFB18:
  79:test/ConsumerProducer_CPP_Sync_API_test.cpp ****         consumer(td);
 680              		.loc 1 79 10 is_stmt 1
 681              		.cfi_startproc
 682              	.LVL70:
 683 0000 130101FF 		addi	sp,sp,-16
 684              		.cfi_def_cfa_offset 16
 685 0004 23341100 		sd	ra,8(sp)
 686 0008 23308100 		sd	s0,0(sp)
 687              		.cfi_offset 1, -8
 688              		.cfi_offset 8, -16
 689 000c 13040101 		addi	s0,sp,16
 690              		.cfi_def_cfa 8, 0
  80:test/ConsumerProducer_CPP_Sync_API_test.cpp ****     }
 691              		.loc 1 80 9
  80:test/ConsumerProducer_CPP_Sync_API_test.cpp ****     }
 692              		.loc 1 80 17 is_stmt 0
 693 0010 83350502 		ld	a1,32(a0)
 694 0014 97000000 		call	_ZN12ConsumerSync8consumerEPv
 694      E7800000 
 695              	.LVL71:
  81:test/ConsumerProducer_CPP_Sync_API_test.cpp **** };
 696              		.loc 1 81 5
 697 001c 83308100 		ld	ra,8(sp)
 698              		.cfi_restore 1
 699 0020 03340100 		ld	s0,0(sp)
GAS LISTING /tmp/ccGwpvCv.s 			page 17


 700              		.cfi_restore 8
 701              		.cfi_def_cfa 2, 16
 702 0024 13010101 		addi	sp,sp,16
 703              		.cfi_def_cfa_offset 0
 704 0028 67800000 		jr	ra
 705              		.cfi_endproc
 706              	.LFE18:
 708              		.section	.rodata.str1.8,"aMS",@progbits,1
 709              		.align	3
 710              	.LC0:
 711 0000 556E6573 		.string	"Unesite broj proizvodjaca?\n"
 711      69746520 
 711      62726F6A 
 711      2070726F 
 711      697A766F 
 712 001c 00000000 		.align	3
 713              	.LC1:
 714 0020 556E6573 		.string	"Unesite velicinu bafera?\n"
 714      69746520 
 714      76656C69 
 714      63696E75 
 714      20626166 
 715 003a 00000000 		.align	3
 715      0000
 716              	.LC2:
 717 0040 42726F6A 		.string	"Broj proizvodjaca "
 717      2070726F 
 717      697A766F 
 717      646A6163 
 717      612000
 718 0053 00000000 		.align	3
 718      00
 719              	.LC3:
 720 0058 20692076 		.string	" i velicina bafera "
 720      656C6963 
 720      696E6120 
 720      62616665 
 720      72612000 
 721 006c 00000000 		.align	3
 722              	.LC4:
 723 0070 2E0A00   		.string	".\n"
 724 0073 00000000 		.align	3
 724      00
 725              	.LC5:
 726 0078 42726F6A 		.string	"Broj proizvodjaca ne sme biti manji od velicine bafera!\n"
 726      2070726F 
 726      697A766F 
 726      646A6163 
 726      61206E65 
 727 00b1 00000000 		.align	3
 727      000000
 728              	.LC6:
 729 00b8 42726F6A 		.string	"Broj proizvodjaca mora biti veci od nula!\n"
 729      2070726F 
 729      697A766F 
 729      646A6163 
 729      61206D6F 
GAS LISTING /tmp/ccGwpvCv.s 			page 18


 730              		.text
 731              		.align	2
 732              		.globl	_Z29producerConsumer_CPP_Sync_APIv
 734              	_Z29producerConsumer_CPP_Sync_APIv:
 735              	.LFB20:
 111:test/ConsumerProducer_CPP_Sync_API_test.cpp **** 
 112:test/ConsumerProducer_CPP_Sync_API_test.cpp **** void producerConsumer_CPP_Sync_API() {
 736              		.loc 1 112 38 is_stmt 1
 737              		.cfi_startproc
 738              		.cfi_personality 0x9b,DW.ref.__gxx_personality_v0
 739              		.cfi_lsda 0x1b,.LLSDA20
 740 0248 130101F9 		addi	sp,sp,-112
 741              		.cfi_def_cfa_offset 112
 742 024c 23341106 		sd	ra,104(sp)
 743 0250 23308106 		sd	s0,96(sp)
 744 0254 233C9104 		sd	s1,88(sp)
 745 0258 23382105 		sd	s2,80(sp)
 746 025c 23343105 		sd	s3,72(sp)
 747 0260 23304105 		sd	s4,64(sp)
 748 0264 233C5103 		sd	s5,56(sp)
 749 0268 23386103 		sd	s6,48(sp)
 750 026c 23347103 		sd	s7,40(sp)
 751 0270 23308103 		sd	s8,32(sp)
 752              		.cfi_offset 1, -8
 753              		.cfi_offset 8, -16
 754              		.cfi_offset 9, -24
 755              		.cfi_offset 18, -32
 756              		.cfi_offset 19, -40
 757              		.cfi_offset 20, -48
 758              		.cfi_offset 21, -56
 759              		.cfi_offset 22, -64
 760              		.cfi_offset 23, -72
 761              		.cfi_offset 24, -80
 762 0274 13040107 		addi	s0,sp,112
 763              		.cfi_def_cfa 8, 0
 113:test/ConsumerProducer_CPP_Sync_API_test.cpp ****     char input[30];
 114:test/ConsumerProducer_CPP_Sync_API_test.cpp ****     int n, threadNum;
 115:test/ConsumerProducer_CPP_Sync_API_test.cpp **** 
 116:test/ConsumerProducer_CPP_Sync_API_test.cpp ****     printString("Unesite broj proizvodjaca?\n");
 117:test/ConsumerProducer_CPP_Sync_API_test.cpp ****     getString(input, 30);
 118:test/ConsumerProducer_CPP_Sync_API_test.cpp ****     threadNum = stringToInt(input);
 119:test/ConsumerProducer_CPP_Sync_API_test.cpp **** 
 120:test/ConsumerProducer_CPP_Sync_API_test.cpp ****     printString("Unesite velicinu bafera?\n");
 121:test/ConsumerProducer_CPP_Sync_API_test.cpp ****     getString(input, 30);
 122:test/ConsumerProducer_CPP_Sync_API_test.cpp ****     n = stringToInt(input);
 123:test/ConsumerProducer_CPP_Sync_API_test.cpp **** 
 124:test/ConsumerProducer_CPP_Sync_API_test.cpp ****     printString("Broj proizvodjaca "); printInt(threadNum);
 125:test/ConsumerProducer_CPP_Sync_API_test.cpp ****     printString(" i velicina bafera "); printInt(n);
 126:test/ConsumerProducer_CPP_Sync_API_test.cpp ****     printString(".\n");
 127:test/ConsumerProducer_CPP_Sync_API_test.cpp **** 
 128:test/ConsumerProducer_CPP_Sync_API_test.cpp ****     if(threadNum > n) {
 129:test/ConsumerProducer_CPP_Sync_API_test.cpp ****         printString("Broj proizvodjaca ne sme biti manji od velicine bafera!\n");
 130:test/ConsumerProducer_CPP_Sync_API_test.cpp ****         return;
 131:test/ConsumerProducer_CPP_Sync_API_test.cpp ****     } else if (threadNum < 1) {
 132:test/ConsumerProducer_CPP_Sync_API_test.cpp ****         printString("Broj proizvodjaca mora biti veci od nula!\n");
 133:test/ConsumerProducer_CPP_Sync_API_test.cpp ****         return;
 134:test/ConsumerProducer_CPP_Sync_API_test.cpp ****     }
GAS LISTING /tmp/ccGwpvCv.s 			page 19


 135:test/ConsumerProducer_CPP_Sync_API_test.cpp **** 
 136:test/ConsumerProducer_CPP_Sync_API_test.cpp ****     BufferCPP *buffer = new BufferCPP(n);
 137:test/ConsumerProducer_CPP_Sync_API_test.cpp **** 
 138:test/ConsumerProducer_CPP_Sync_API_test.cpp ****     waitForAll = new Semaphore(0);
 139:test/ConsumerProducer_CPP_Sync_API_test.cpp **** 
 140:test/ConsumerProducer_CPP_Sync_API_test.cpp ****     Thread* threads[threadNum];
 141:test/ConsumerProducer_CPP_Sync_API_test.cpp ****     Thread* consumerThread;
 142:test/ConsumerProducer_CPP_Sync_API_test.cpp **** 
 143:test/ConsumerProducer_CPP_Sync_API_test.cpp ****     struct thread_data data[threadNum + 1];
 144:test/ConsumerProducer_CPP_Sync_API_test.cpp **** 
 145:test/ConsumerProducer_CPP_Sync_API_test.cpp ****     data[threadNum].id = threadNum;
 146:test/ConsumerProducer_CPP_Sync_API_test.cpp ****     data[threadNum].buffer = buffer;
 147:test/ConsumerProducer_CPP_Sync_API_test.cpp ****     data[threadNum].wait = waitForAll;
 148:test/ConsumerProducer_CPP_Sync_API_test.cpp ****     consumerThread = new ConsumerSync(data+threadNum);
 149:test/ConsumerProducer_CPP_Sync_API_test.cpp ****     consumerThread->start();
 150:test/ConsumerProducer_CPP_Sync_API_test.cpp **** 
 151:test/ConsumerProducer_CPP_Sync_API_test.cpp ****     for (int i = 0; i < threadNum; i++) {
 152:test/ConsumerProducer_CPP_Sync_API_test.cpp ****         data[i].id = i;
 153:test/ConsumerProducer_CPP_Sync_API_test.cpp ****         data[i].buffer = buffer;
 154:test/ConsumerProducer_CPP_Sync_API_test.cpp ****         data[i].wait = waitForAll;
 155:test/ConsumerProducer_CPP_Sync_API_test.cpp **** 
 156:test/ConsumerProducer_CPP_Sync_API_test.cpp ****         if(i>0) {
 157:test/ConsumerProducer_CPP_Sync_API_test.cpp ****             threads[i] = new ProducerSync(data+i);
 158:test/ConsumerProducer_CPP_Sync_API_test.cpp ****         } else {
 159:test/ConsumerProducer_CPP_Sync_API_test.cpp ****             threads[i] = new ProducerKeyboard(data+i);
 160:test/ConsumerProducer_CPP_Sync_API_test.cpp ****         }
 161:test/ConsumerProducer_CPP_Sync_API_test.cpp **** 
 162:test/ConsumerProducer_CPP_Sync_API_test.cpp ****         threads[i]->start();
 163:test/ConsumerProducer_CPP_Sync_API_test.cpp ****     }
 164:test/ConsumerProducer_CPP_Sync_API_test.cpp **** 
 165:test/ConsumerProducer_CPP_Sync_API_test.cpp ****     Thread::dispatch();
 166:test/ConsumerProducer_CPP_Sync_API_test.cpp **** 
 167:test/ConsumerProducer_CPP_Sync_API_test.cpp ****     for (int i = 0; i <= threadNum; i++) {
 168:test/ConsumerProducer_CPP_Sync_API_test.cpp ****         waitForAll->wait();
 169:test/ConsumerProducer_CPP_Sync_API_test.cpp ****     }
 170:test/ConsumerProducer_CPP_Sync_API_test.cpp **** 
 171:test/ConsumerProducer_CPP_Sync_API_test.cpp ****     for (int i = 0; i < threadNum; i++) {
 172:test/ConsumerProducer_CPP_Sync_API_test.cpp ****         delete threads[i];
 173:test/ConsumerProducer_CPP_Sync_API_test.cpp ****     }
 174:test/ConsumerProducer_CPP_Sync_API_test.cpp ****     delete consumerThread;
 175:test/ConsumerProducer_CPP_Sync_API_test.cpp ****     delete waitForAll;
 176:test/ConsumerProducer_CPP_Sync_API_test.cpp ****     delete buffer;
 764              		.loc 1 176 18 is_stmt 0
 765 0278 930B0100 		mv	s7,sp
 113:test/ConsumerProducer_CPP_Sync_API_test.cpp ****     char input[30];
 766              		.loc 1 113 5 is_stmt 1
 114:test/ConsumerProducer_CPP_Sync_API_test.cpp **** 
 767              		.loc 1 114 5
 116:test/ConsumerProducer_CPP_Sync_API_test.cpp ****     getString(input, 30);
 768              		.loc 1 116 5
 116:test/ConsumerProducer_CPP_Sync_API_test.cpp ****     getString(input, 30);
 769              		.loc 1 116 16 is_stmt 0
 770 027c 17050000 		lla	a0,.LC0
 770      13050500 
 771              	.LEHB0:
 772 0284 97000000 		call	_Z11printStringPKc@plt
 772      E7800000 
GAS LISTING /tmp/ccGwpvCv.s 			page 20


 773              	.LVL72:
 117:test/ConsumerProducer_CPP_Sync_API_test.cpp ****     threadNum = stringToInt(input);
 774              		.loc 1 117 5 is_stmt 1
 117:test/ConsumerProducer_CPP_Sync_API_test.cpp ****     threadNum = stringToInt(input);
 775              		.loc 1 117 14 is_stmt 0
 776 028c 9305E001 		li	a1,30
 777 0290 930404F9 		addi	s1,s0,-112
 778 0294 13850400 		mv	a0,s1
 779 0298 97000000 		call	_Z9getStringPci@plt
 779      E7800000 
 780              	.LVL73:
 118:test/ConsumerProducer_CPP_Sync_API_test.cpp **** 
 781              		.loc 1 118 5 is_stmt 1
 118:test/ConsumerProducer_CPP_Sync_API_test.cpp **** 
 782              		.loc 1 118 28 is_stmt 0
 783 02a0 13850400 		mv	a0,s1
 784 02a4 97000000 		call	_Z11stringToIntPKc@plt
 784      E7800000 
 785              	.LVL74:
 786 02ac 13090500 		mv	s2,a0
 787              	.LVL75:
 120:test/ConsumerProducer_CPP_Sync_API_test.cpp ****     getString(input, 30);
 788              		.loc 1 120 5 is_stmt 1
 120:test/ConsumerProducer_CPP_Sync_API_test.cpp ****     getString(input, 30);
 789              		.loc 1 120 16 is_stmt 0
 790 02b0 17050000 		lla	a0,.LC1
 790      13050500 
 791 02b8 97000000 		call	_Z11printStringPKc@plt
 791      E7800000 
 792              	.LVL76:
 121:test/ConsumerProducer_CPP_Sync_API_test.cpp ****     n = stringToInt(input);
 793              		.loc 1 121 5 is_stmt 1
 121:test/ConsumerProducer_CPP_Sync_API_test.cpp ****     n = stringToInt(input);
 794              		.loc 1 121 14 is_stmt 0
 795 02c0 9305E001 		li	a1,30
 796 02c4 13850400 		mv	a0,s1
 797 02c8 97000000 		call	_Z9getStringPci@plt
 797      E7800000 
 798              	.LVL77:
 122:test/ConsumerProducer_CPP_Sync_API_test.cpp **** 
 799              		.loc 1 122 5 is_stmt 1
 122:test/ConsumerProducer_CPP_Sync_API_test.cpp **** 
 800              		.loc 1 122 20 is_stmt 0
 801 02d0 13850400 		mv	a0,s1
 802 02d4 97000000 		call	_Z11stringToIntPKc@plt
 802      E7800000 
 803              	.LVL78:
 804 02dc 93040500 		mv	s1,a0
 805              	.LVL79:
 124:test/ConsumerProducer_CPP_Sync_API_test.cpp ****     printString(" i velicina bafera "); printInt(n);
 806              		.loc 1 124 5 is_stmt 1
 124:test/ConsumerProducer_CPP_Sync_API_test.cpp ****     printString(" i velicina bafera "); printInt(n);
 807              		.loc 1 124 16 is_stmt 0
 808 02e0 17050000 		lla	a0,.LC2
 808      13050500 
 809 02e8 97000000 		call	_Z11printStringPKc@plt
 809      E7800000 
GAS LISTING /tmp/ccGwpvCv.s 			page 21


 810              	.LVL80:
 124:test/ConsumerProducer_CPP_Sync_API_test.cpp ****     printString(" i velicina bafera "); printInt(n);
 811              		.loc 1 124 40 is_stmt 1
 124:test/ConsumerProducer_CPP_Sync_API_test.cpp ****     printString(" i velicina bafera "); printInt(n);
 812              		.loc 1 124 48 is_stmt 0
 813 02f0 13060000 		li	a2,0
 814 02f4 9305A000 		li	a1,10
 815 02f8 13050900 		mv	a0,s2
 816 02fc 97000000 		call	_Z8printIntiii@plt
 816      E7800000 
 817              	.LVL81:
 125:test/ConsumerProducer_CPP_Sync_API_test.cpp ****     printString(".\n");
 818              		.loc 1 125 5 is_stmt 1
 125:test/ConsumerProducer_CPP_Sync_API_test.cpp ****     printString(".\n");
 819              		.loc 1 125 16 is_stmt 0
 820 0304 17050000 		lla	a0,.LC3
 820      13050500 
 821 030c 97000000 		call	_Z11printStringPKc@plt
 821      E7800000 
 822              	.LVL82:
 125:test/ConsumerProducer_CPP_Sync_API_test.cpp ****     printString(".\n");
 823              		.loc 1 125 41 is_stmt 1
 125:test/ConsumerProducer_CPP_Sync_API_test.cpp ****     printString(".\n");
 824              		.loc 1 125 49 is_stmt 0
 825 0314 13060000 		li	a2,0
 826 0318 9305A000 		li	a1,10
 827 031c 13850400 		mv	a0,s1
 828 0320 97000000 		call	_Z8printIntiii@plt
 828      E7800000 
 829              	.LVL83:
 126:test/ConsumerProducer_CPP_Sync_API_test.cpp **** 
 830              		.loc 1 126 5 is_stmt 1
 126:test/ConsumerProducer_CPP_Sync_API_test.cpp **** 
 831              		.loc 1 126 16 is_stmt 0
 832 0328 17050000 		lla	a0,.LC4
 832      13050500 
 833 0330 97000000 		call	_Z11printStringPKc@plt
 833      E7800000 
 834              	.LVL84:
 128:test/ConsumerProducer_CPP_Sync_API_test.cpp ****         printString("Broj proizvodjaca ne sme biti manji od velicine bafera!\n");
 835              		.loc 1 128 5 is_stmt 1
 836 0338 63C42403 		bgt	s2,s1,.L63
 131:test/ConsumerProducer_CPP_Sync_API_test.cpp ****         printString("Broj proizvodjaca mora biti veci od nula!\n");
 837              		.loc 1 131 12
 838 033c 635C2003 		blez	s2,.L64
 136:test/ConsumerProducer_CPP_Sync_API_test.cpp **** 
 839              		.loc 1 136 5
 136:test/ConsumerProducer_CPP_Sync_API_test.cpp **** 
 840              		.loc 1 136 40 is_stmt 0
 841 0340 13058003 		li	a0,56
 842 0344 97000000 		call	_Znwm@plt
 842      E7800000 
 843              	.LVL85:
 844              	.LEHE0:
 845 034c 930A0500 		mv	s5,a0
 846 0350 93850400 		mv	a1,s1
 847              	.LEHB1:
GAS LISTING /tmp/ccGwpvCv.s 			page 22


 848 0354 97000000 		call	_ZN9BufferCPPC1Ei@plt
 848      E7800000 
 849              	.LVL86:
 850              	.LEHE1:
 851 035c 6F000003 		j	.L65
 852              	.L63:
 129:test/ConsumerProducer_CPP_Sync_API_test.cpp ****         return;
 853              		.loc 1 129 9 is_stmt 1
 129:test/ConsumerProducer_CPP_Sync_API_test.cpp ****         return;
 854              		.loc 1 129 20 is_stmt 0
 855 0360 17050000 		lla	a0,.LC5
 855      13050500 
 856              	.LEHB2:
 857 0368 97000000 		call	_Z11printStringPKc@plt
 857      E7800000 
 858              	.LVL87:
 130:test/ConsumerProducer_CPP_Sync_API_test.cpp ****     } else if (threadNum < 1) {
 859              		.loc 1 130 9 is_stmt 1
 860 0370 6F004001 		j	.L43
 861              	.L64:
 132:test/ConsumerProducer_CPP_Sync_API_test.cpp ****         return;
 862              		.loc 1 132 9
 132:test/ConsumerProducer_CPP_Sync_API_test.cpp ****         return;
 863              		.loc 1 132 20 is_stmt 0
 864 0374 17050000 		lla	a0,.LC6
 864      13050500 
 865 037c 97000000 		call	_Z11printStringPKc@plt
 865      E7800000 
 866              	.LVL88:
 133:test/ConsumerProducer_CPP_Sync_API_test.cpp ****     }
 867              		.loc 1 133 9 is_stmt 1
 868              	.L43:
 869 0384 13810B00 		mv	sp,s7
 870 0388 6F000021 		j	.L41
 871              	.L65:
 872              	.LVL89:
 138:test/ConsumerProducer_CPP_Sync_API_test.cpp **** 
 873              		.loc 1 138 5 discriminator 3
 138:test/ConsumerProducer_CPP_Sync_API_test.cpp **** 
 874              		.loc 1 138 33 is_stmt 0 discriminator 3
 875 038c 13050001 		li	a0,16
 876 0390 97000000 		call	_Znwm@plt
 876      E7800000 
 877              	.LVL90:
 878              	.LEHE2:
 879 0398 93040500 		mv	s1,a0
 880              	.LVL91:
 881 039c 93050000 		li	a1,0
 882              	.LEHB3:
 883 03a0 97000000 		call	_ZN9SemaphoreC1Ej@plt
 883      E7800000 
 884              	.LVL92:
 885              	.LEHE3:
 138:test/ConsumerProducer_CPP_Sync_API_test.cpp **** 
 886              		.loc 1 138 16 discriminator 3
 887 03a8 97070000 		sd	s1,.LANCHOR0+8,a5
 887      23B09700 
GAS LISTING /tmp/ccGwpvCv.s 			page 23


 140:test/ConsumerProducer_CPP_Sync_API_test.cpp ****     Thread* consumerThread;
 888              		.loc 1 140 5 is_stmt 1 discriminator 3
 889              	.LVL93:
 140:test/ConsumerProducer_CPP_Sync_API_test.cpp ****     Thread* consumerThread;
 890              		.loc 1 140 13 is_stmt 0 discriminator 3
 891 03b0 93173900 		slli	a5,s2,3
 892 03b4 9387F700 		addi	a5,a5,15
 893 03b8 93F707FF 		andi	a5,a5,-16
 894 03bc 3301F140 		sub	sp,sp,a5
 895 03c0 93090100 		mv	s3,sp
 896              	.LVL94:
 141:test/ConsumerProducer_CPP_Sync_API_test.cpp **** 
 897              		.loc 1 141 5 is_stmt 1 discriminator 3
 143:test/ConsumerProducer_CPP_Sync_API_test.cpp **** 
 898              		.loc 1 143 5 discriminator 3
 143:test/ConsumerProducer_CPP_Sync_API_test.cpp **** 
 899              		.loc 1 143 39 is_stmt 0 discriminator 3
 900 03c4 1B071900 		addiw	a4,s2,1
 901              	.LVL95:
 143:test/ConsumerProducer_CPP_Sync_API_test.cpp **** 
 902              		.loc 1 143 24 discriminator 3
 903 03c8 93171700 		slli	a5,a4,1
 904 03cc B387E700 		add	a5,a5,a4
 905 03d0 93973700 		slli	a5,a5,3
 906 03d4 9387F700 		addi	a5,a5,15
 907 03d8 93F707FF 		andi	a5,a5,-16
 908 03dc 3301F140 		sub	sp,sp,a5
 909              	.LVL96:
 910 03e0 130A0100 		mv	s4,sp
 911              	.LVL97:
 145:test/ConsumerProducer_CPP_Sync_API_test.cpp ****     data[threadNum].buffer = buffer;
 912              		.loc 1 145 5 is_stmt 1 discriminator 3
 145:test/ConsumerProducer_CPP_Sync_API_test.cpp ****     data[threadNum].buffer = buffer;
 913              		.loc 1 145 24 is_stmt 0 discriminator 3
 914 03e4 131C1900 		slli	s8,s2,1
 915 03e8 B3072C01 		add	a5,s8,s2
 916 03ec 93973700 		slli	a5,a5,3
 917 03f0 B307FA00 		add	a5,s4,a5
 918 03f4 23A02701 		sw	s2,0(a5)
 146:test/ConsumerProducer_CPP_Sync_API_test.cpp ****     data[threadNum].wait = waitForAll;
 919              		.loc 1 146 5 is_stmt 1 discriminator 3
 146:test/ConsumerProducer_CPP_Sync_API_test.cpp ****     data[threadNum].wait = waitForAll;
 920              		.loc 1 146 28 is_stmt 0 discriminator 3
 921 03f8 23B45701 		sd	s5,8(a5)
 147:test/ConsumerProducer_CPP_Sync_API_test.cpp ****     consumerThread = new ConsumerSync(data+threadNum);
 922              		.loc 1 147 5 is_stmt 1 discriminator 3
 147:test/ConsumerProducer_CPP_Sync_API_test.cpp ****     consumerThread = new ConsumerSync(data+threadNum);
 923              		.loc 1 147 26 is_stmt 0 discriminator 3
 924 03fc 23B89700 		sd	s1,16(a5)
 148:test/ConsumerProducer_CPP_Sync_API_test.cpp ****     consumerThread->start();
 925              		.loc 1 148 5 is_stmt 1 discriminator 3
 148:test/ConsumerProducer_CPP_Sync_API_test.cpp ****     consumerThread->start();
 926              		.loc 1 148 53 is_stmt 0 discriminator 3
 927 0400 13058002 		li	a0,40
 928              	.LEHB4:
 929 0404 97000000 		call	_Znwm@plt
 929      E7800000 
GAS LISTING /tmp/ccGwpvCv.s 			page 24


 930              	.LVL98:
 931 040c 130B0500 		mv	s6,a0
 148:test/ConsumerProducer_CPP_Sync_API_test.cpp ****     consumerThread->start();
 932              		.loc 1 148 43 discriminator 3
 933 0410 330C2C01 		add	s8,s8,s2
 934 0414 131C3C00 		slli	s8,s8,3
 148:test/ConsumerProducer_CPP_Sync_API_test.cpp ****     consumerThread->start();
 935              		.loc 1 148 53 discriminator 3
 936 0418 330C8A01 		add	s8,s4,s8
 937              	.LVL99:
 938              	.LBB50:
 939              	.LBB51:
  77:test/ConsumerProducer_CPP_Sync_API_test.cpp **** 
 940              		.loc 1 77 52 discriminator 3
 941 041c 97070000 		lla	a5,_ZTV12ConsumerSync+16
 941      93870700 
 942 0424 2330F500 		sd	a5,0(a0)
 943 0428 23308503 		sd	s8,32(a0)
 944              	.LVL100:
 945              	.LBE51:
 946              	.LBE50:
 149:test/ConsumerProducer_CPP_Sync_API_test.cpp **** 
 947              		.loc 1 149 5 is_stmt 1 discriminator 3
 149:test/ConsumerProducer_CPP_Sync_API_test.cpp **** 
 948              		.loc 1 149 26 is_stmt 0 discriminator 3
 949 042c 97000000 		call	_ZN6Thread5startEv@plt
 949      E7800000 
 950              	.LVL101:
 951              	.LBB52:
 151:test/ConsumerProducer_CPP_Sync_API_test.cpp ****         data[i].id = i;
 952              		.loc 1 151 14 discriminator 3
 953 0434 93040000 		li	s1,0
 954 0438 6F004005 		j	.L48
 955              	.LVL102:
 956              	.L66:
 157:test/ConsumerProducer_CPP_Sync_API_test.cpp ****         } else {
 957              		.loc 1 157 13 is_stmt 1
 157:test/ConsumerProducer_CPP_Sync_API_test.cpp ****         } else {
 958              		.loc 1 157 49 is_stmt 0
 959 043c 13058002 		li	a0,40
 960 0440 97000000 		call	_Znwm@plt
 960      E7800000 
 961              	.LVL103:
 157:test/ConsumerProducer_CPP_Sync_API_test.cpp ****         } else {
 962              		.loc 1 157 47
 963 0448 93971400 		slli	a5,s1,1
 964 044c B3879700 		add	a5,a5,s1
 965 0450 93973700 		slli	a5,a5,3
 157:test/ConsumerProducer_CPP_Sync_API_test.cpp ****         } else {
 966              		.loc 1 157 49
 967 0454 B307FA00 		add	a5,s4,a5
 968              	.LVL104:
 969              	.LBB53:
 970              	.LBB54:
  50:test/ConsumerProducer_CPP_Sync_API_test.cpp **** 
 971              		.loc 1 50 52
 972 0458 17070000 		lla	a4,_ZTV12ProducerSync+16
GAS LISTING /tmp/ccGwpvCv.s 			page 25


 972      13070700 
 973 0460 2330E500 		sd	a4,0(a0)
 974 0464 2330F502 		sd	a5,32(a0)
 975              	.LVL105:
 976              	.LBE54:
 977              	.LBE53:
 157:test/ConsumerProducer_CPP_Sync_API_test.cpp ****         } else {
 978              		.loc 1 157 24
 979 0468 93973400 		slli	a5,s1,3
 980 046c B387F900 		add	a5,s3,a5
 981 0470 23B0A700 		sd	a0,0(a5)
 982              	.L47:
 162:test/ConsumerProducer_CPP_Sync_API_test.cpp ****     }
 983              		.loc 1 162 9 is_stmt 1
 162:test/ConsumerProducer_CPP_Sync_API_test.cpp ****     }
 984              		.loc 1 162 18 is_stmt 0
 985 0474 93973400 		slli	a5,s1,3
 986 0478 B387F900 		add	a5,s3,a5
 162:test/ConsumerProducer_CPP_Sync_API_test.cpp ****     }
 987              		.loc 1 162 26
 988 047c 03B50700 		ld	a0,0(a5)
 989 0480 97000000 		call	_ZN6Thread5startEv@plt
 989      E7800000 
 990              	.LVL106:
 151:test/ConsumerProducer_CPP_Sync_API_test.cpp ****         data[i].id = i;
 991              		.loc 1 151 5 is_stmt 1
 992 0488 9B841400 		addiw	s1,s1,1
 993              	.LVL107:
 994              	.L48:
 151:test/ConsumerProducer_CPP_Sync_API_test.cpp ****         data[i].id = i;
 995              		.loc 1 151 23 discriminator 1
 996 048c 63D42407 		bge	s1,s2,.L45
 152:test/ConsumerProducer_CPP_Sync_API_test.cpp ****         data[i].buffer = buffer;
 997              		.loc 1 152 9
 152:test/ConsumerProducer_CPP_Sync_API_test.cpp ****         data[i].buffer = buffer;
 998              		.loc 1 152 20 is_stmt 0
 999 0490 93971400 		slli	a5,s1,1
 1000 0494 B3879700 		add	a5,a5,s1
 1001 0498 93973700 		slli	a5,a5,3
 1002 049c B307FA00 		add	a5,s4,a5
 1003 04a0 23A09700 		sw	s1,0(a5)
 153:test/ConsumerProducer_CPP_Sync_API_test.cpp ****         data[i].wait = waitForAll;
 1004              		.loc 1 153 9 is_stmt 1
 153:test/ConsumerProducer_CPP_Sync_API_test.cpp ****         data[i].wait = waitForAll;
 1005              		.loc 1 153 24 is_stmt 0
 1006 04a4 23B45701 		sd	s5,8(a5)
 154:test/ConsumerProducer_CPP_Sync_API_test.cpp **** 
 1007              		.loc 1 154 9 is_stmt 1
 154:test/ConsumerProducer_CPP_Sync_API_test.cpp **** 
 1008              		.loc 1 154 22 is_stmt 0
 1009 04a8 17070000 		ld	a4,.LANCHOR0+8
 1009      03370700 
 1010 04b0 23B8E700 		sd	a4,16(a5)
 156:test/ConsumerProducer_CPP_Sync_API_test.cpp ****             threads[i] = new ProducerSync(data+i);
 1011              		.loc 1 156 9 is_stmt 1
 1012 04b4 E34490F8 		bgtz	s1,.L66
 159:test/ConsumerProducer_CPP_Sync_API_test.cpp ****         }
GAS LISTING /tmp/ccGwpvCv.s 			page 26


 1013              		.loc 1 159 13
 159:test/ConsumerProducer_CPP_Sync_API_test.cpp ****         }
 1014              		.loc 1 159 53 is_stmt 0
 1015 04b8 13058002 		li	a0,40
 1016 04bc 97000000 		call	_Znwm@plt
 1016      E7800000 
 1017              	.LVL108:
 159:test/ConsumerProducer_CPP_Sync_API_test.cpp ****         }
 1018              		.loc 1 159 51
 1019 04c4 93971400 		slli	a5,s1,1
 1020 04c8 B3879700 		add	a5,a5,s1
 1021 04cc 93973700 		slli	a5,a5,3
 159:test/ConsumerProducer_CPP_Sync_API_test.cpp ****         }
 1022              		.loc 1 159 53
 1023 04d0 B307FA00 		add	a5,s4,a5
 1024              	.LVL109:
 1025              	.LBB55:
 1026              	.LBB56:
  19:test/ConsumerProducer_CPP_Sync_API_test.cpp **** 
 1027              		.loc 1 19 56
 1028 04d4 17070000 		lla	a4,_ZTV16ProducerKeyboard+16
 1028      13070700 
 1029 04dc 2330E500 		sd	a4,0(a0)
 1030 04e0 2330F502 		sd	a5,32(a0)
 1031              	.LVL110:
 1032              	.LBE56:
 1033              	.LBE55:
 159:test/ConsumerProducer_CPP_Sync_API_test.cpp ****         }
 1034              		.loc 1 159 24
 1035 04e4 93973400 		slli	a5,s1,3
 1036 04e8 B387F900 		add	a5,s3,a5
 1037 04ec 23B0A700 		sd	a0,0(a5)
 1038 04f0 6FF05FF8 		j	.L47
 1039              	.L45:
 1040              	.LBE52:
 165:test/ConsumerProducer_CPP_Sync_API_test.cpp **** 
 1041              		.loc 1 165 5 is_stmt 1
 165:test/ConsumerProducer_CPP_Sync_API_test.cpp **** 
 1042              		.loc 1 165 21 is_stmt 0
 1043 04f4 97000000 		call	_ZN6Thread8dispatchEv@plt
 1043      E7800000 
 1044              	.LVL111:
 1045              	.LBB57:
 167:test/ConsumerProducer_CPP_Sync_API_test.cpp ****         waitForAll->wait();
 1046              		.loc 1 167 14
 1047 04fc 93040000 		li	s1,0
 1048              	.LVL112:
 1049              	.L50:
 167:test/ConsumerProducer_CPP_Sync_API_test.cpp ****         waitForAll->wait();
 1050              		.loc 1 167 23 is_stmt 1 discriminator 1
 1051 0500 634E9900 		bgt	s1,s2,.L59
 168:test/ConsumerProducer_CPP_Sync_API_test.cpp ****     }
 1052              		.loc 1 168 9
 168:test/ConsumerProducer_CPP_Sync_API_test.cpp ****     }
 1053              		.loc 1 168 25 is_stmt 0
 1054 0504 17050000 		ld	a0,.LANCHOR0+8
 1054      03350500 
GAS LISTING /tmp/ccGwpvCv.s 			page 27


 1055 050c 97000000 		call	_ZN9Semaphore4waitEv@plt
 1055      E7800000 
 1056              	.LVL113:
 167:test/ConsumerProducer_CPP_Sync_API_test.cpp ****         waitForAll->wait();
 1057              		.loc 1 167 5 is_stmt 1
 1058 0514 9B841400 		addiw	s1,s1,1
 1059              	.LVL114:
 1060 0518 6FF09FFE 		j	.L50
 1061              	.LVL115:
 1062              	.L59:
 1063              	.LBE57:
 1064              	.LBB58:
 171:test/ConsumerProducer_CPP_Sync_API_test.cpp ****         delete threads[i];
 1065              		.loc 1 171 14 is_stmt 0
 1066 051c 93040000 		li	s1,0
 1067              	.LVL116:
 1068 0520 6F008000 		j	.L49
 1069              	.LVL117:
 1070              	.L52:
 171:test/ConsumerProducer_CPP_Sync_API_test.cpp ****         delete threads[i];
 1071              		.loc 1 171 5 is_stmt 1 discriminator 2
 1072 0524 9B841400 		addiw	s1,s1,1
 1073              	.LVL118:
 1074              	.L49:
 171:test/ConsumerProducer_CPP_Sync_API_test.cpp ****         delete threads[i];
 1075              		.loc 1 171 23 discriminator 1
 1076 0528 63D22403 		bge	s1,s2,.L51
 172:test/ConsumerProducer_CPP_Sync_API_test.cpp ****     }
 1077              		.loc 1 172 9
 172:test/ConsumerProducer_CPP_Sync_API_test.cpp ****     }
 1078              		.loc 1 172 25 is_stmt 0
 1079 052c 93973400 		slli	a5,s1,3
 1080 0530 B387F900 		add	a5,s3,a5
 1081 0534 03B50700 		ld	a0,0(a5)
 172:test/ConsumerProducer_CPP_Sync_API_test.cpp ****     }
 1082              		.loc 1 172 26
 1083 0538 E30605FE 		beqz	a0,.L52
 172:test/ConsumerProducer_CPP_Sync_API_test.cpp ****     }
 1084              		.loc 1 172 25 discriminator 1
 1085 053c 83370500 		ld	a5,0(a0)
 1086 0540 83B78700 		ld	a5,8(a5)
 1087 0544 E7800700 		jalr	a5
 1088              	.LVL119:
 1089 0548 6FF0DFFD 		j	.L52
 1090              	.L51:
 1091              	.LBE58:
 174:test/ConsumerProducer_CPP_Sync_API_test.cpp ****     delete waitForAll;
 1092              		.loc 1 174 5 is_stmt 1
 174:test/ConsumerProducer_CPP_Sync_API_test.cpp ****     delete waitForAll;
 1093              		.loc 1 174 26 is_stmt 0
 1094 054c 630A0B00 		beqz	s6,.L53
 174:test/ConsumerProducer_CPP_Sync_API_test.cpp ****     delete waitForAll;
 1095              		.loc 1 174 12 discriminator 1
 1096 0550 83370B00 		ld	a5,0(s6)
 1097 0554 83B78700 		ld	a5,8(a5)
 1098 0558 13050B00 		mv	a0,s6
 1099 055c E7800700 		jalr	a5
GAS LISTING /tmp/ccGwpvCv.s 			page 28


 1100              	.LVL120:
 1101              	.L53:
 175:test/ConsumerProducer_CPP_Sync_API_test.cpp ****     delete buffer;
 1102              		.loc 1 175 5 is_stmt 1
 175:test/ConsumerProducer_CPP_Sync_API_test.cpp ****     delete buffer;
 1103              		.loc 1 175 12 is_stmt 0
 1104 0560 17050000 		ld	a0,.LANCHOR0+8
 1104      03350500 
 175:test/ConsumerProducer_CPP_Sync_API_test.cpp ****     delete buffer;
 1105              		.loc 1 175 22
 1106 0568 63080500 		beqz	a0,.L54
 175:test/ConsumerProducer_CPP_Sync_API_test.cpp ****     delete buffer;
 1107              		.loc 1 175 12 discriminator 1
 1108 056c 83370500 		ld	a5,0(a0)
 1109 0570 83B78700 		ld	a5,8(a5)
 1110 0574 E7800700 		jalr	a5
 1111              	.LVL121:
 1112              	.L54:
 1113              		.loc 1 176 5 is_stmt 1
 1114              		.loc 1 176 18 is_stmt 0
 1115 0578 638E0A00 		beqz	s5,.L55
 1116              		.loc 1 176 12 discriminator 1
 1117 057c 13850A00 		mv	a0,s5
 1118 0580 97000000 		call	_ZN9BufferCPPD1Ev@plt
 1118      E7800000 
 1119              	.LVL122:
 1120 0588 13850A00 		mv	a0,s5
 1121 058c 97000000 		call	_ZdlPv@plt
 1121      E7800000 
 1122              	.LVL123:
 1123              	.LEHE4:
 1124              	.L55:
 1125 0594 13810B00 		mv	sp,s7
 1126              	.LVL124:
 1127              	.L41:
 177:test/ConsumerProducer_CPP_Sync_API_test.cpp **** 
 178:test/ConsumerProducer_CPP_Sync_API_test.cpp **** }
 1128              		.loc 1 178 1
 1129 0598 130104F9 		addi	sp,s0,-112
 1130              		.cfi_remember_state
 1131              		.cfi_def_cfa 2, 112
 1132 059c 83308106 		ld	ra,104(sp)
 1133              		.cfi_restore 1
 1134 05a0 03340106 		ld	s0,96(sp)
 1135              		.cfi_restore 8
 1136 05a4 83348105 		ld	s1,88(sp)
 1137              		.cfi_restore 9
 1138 05a8 03390105 		ld	s2,80(sp)
 1139              		.cfi_restore 18
 1140              	.LVL125:
 1141 05ac 83398104 		ld	s3,72(sp)
 1142              		.cfi_restore 19
 1143 05b0 033A0104 		ld	s4,64(sp)
 1144              		.cfi_restore 20
 1145 05b4 833A8103 		ld	s5,56(sp)
 1146              		.cfi_restore 21
 1147 05b8 033B0103 		ld	s6,48(sp)
GAS LISTING /tmp/ccGwpvCv.s 			page 29


 1148              		.cfi_restore 22
 1149 05bc 833B8102 		ld	s7,40(sp)
 1150              		.cfi_restore 23
 1151 05c0 033C0102 		ld	s8,32(sp)
 1152              		.cfi_restore 24
 1153 05c4 13010107 		addi	sp,sp,112
 1154              		.cfi_def_cfa_offset 0
 1155 05c8 67800000 		jr	ra
 1156              	.LVL126:
 1157              	.L60:
 1158              		.cfi_restore_state
 1159 05cc 93040500 		mv	s1,a0
 1160              	.LVL127:
 136:test/ConsumerProducer_CPP_Sync_API_test.cpp **** 
 1161              		.loc 1 136 40
 1162 05d0 13850A00 		mv	a0,s5
 1163 05d4 97000000 		call	_ZdlPv@plt
 1163      E7800000 
 1164              	.LVL128:
 1165 05dc 13850400 		mv	a0,s1
 1166              	.LEHB5:
 1167 05e0 97000000 		call	_Unwind_Resume@plt
 1167      E7800000 
 1168              	.LVL129:
 1169              	.LEHE5:
 1170              	.L61:
 1171 05e8 13090500 		mv	s2,a0
 1172              	.LVL130:
 138:test/ConsumerProducer_CPP_Sync_API_test.cpp **** 
 1173              		.loc 1 138 33
 1174 05ec 13850400 		mv	a0,s1
 1175 05f0 97000000 		call	_ZdlPv@plt
 1175      E7800000 
 1176              	.LVL131:
 1177 05f8 13050900 		mv	a0,s2
 1178              	.LEHB6:
 1179 05fc 97000000 		call	_Unwind_Resume@plt
 1179      E7800000 
 1180              	.LVL132:
 1181              	.LEHE6:
 1182              		.cfi_endproc
 1183              	.LFE20:
 1184              		.globl	__gxx_personality_v0
 1185              		.section	.gcc_except_table,"a",@progbits
 1186              	.LLSDA20:
 1187 0000 FF       		.byte	0xff
 1188 0001 FF       		.byte	0xff
 1189 0002 03       		.byte	0x3
 1190 0003 5B       		.byte	0x5b
 1191 0004 00000000 		.4byte	.LEHB0-.LFB20
 1192 0008 00000000 		.4byte	.LEHE0-.LEHB0
 1193 000c 00000000 		.4byte	0
 1194 0010 00       		.byte	0
 1195 0011 00000000 		.4byte	.LEHB1-.LFB20
 1196 0015 00000000 		.4byte	.LEHE1-.LEHB1
 1197 0019 00000000 		.4byte	.L60-.LFB20
 1198 001d 00       		.byte	0
GAS LISTING /tmp/ccGwpvCv.s 			page 30


 1199 001e 00000000 		.4byte	.LEHB2-.LFB20
 1200 0022 00000000 		.4byte	.LEHE2-.LEHB2
 1201 0026 00000000 		.4byte	0
 1202 002a 00       		.byte	0
 1203 002b 00000000 		.4byte	.LEHB3-.LFB20
 1204 002f 00000000 		.4byte	.LEHE3-.LEHB3
 1205 0033 00000000 		.4byte	.L61-.LFB20
 1206 0037 00       		.byte	0
 1207 0038 00000000 		.4byte	.LEHB4-.LFB20
 1208 003c 00000000 		.4byte	.LEHE4-.LEHB4
 1209 0040 00000000 		.4byte	0
 1210 0044 00       		.byte	0
 1211 0045 00000000 		.4byte	.LEHB5-.LFB20
 1212 0049 00000000 		.4byte	.LEHE5-.LEHB5
 1213 004d 00000000 		.4byte	0
 1214 0051 00       		.byte	0
 1215 0052 00000000 		.4byte	.LEHB6-.LFB20
 1216 0056 00000000 		.4byte	.LEHE6-.LEHB6
 1217 005a 00000000 		.4byte	0
 1218 005e 00       		.byte	0
 1219              		.text
 1221              		.weak	_ZTV16ProducerKeyboard
 1222              		.section	.data.rel.ro.local._ZTV16ProducerKeyboard,"awG",@progbits,_ZTV16ProducerKeyboard,comdat
 1223              		.align	3
 1226              	_ZTV16ProducerKeyboard:
 1227 0000 00000000 		.dword	0
 1227      00000000 
 1228 0008 00000000 		.dword	0
 1228      00000000 
 1229 0010 00000000 		.dword	_ZN16ProducerKeyboardD1Ev
 1229      00000000 
 1230 0018 00000000 		.dword	_ZN16ProducerKeyboardD0Ev
 1230      00000000 
 1231 0020 00000000 		.dword	_ZN16ProducerKeyboard3runEv
 1231      00000000 
 1232              		.weak	_ZTV12ProducerSync
 1233              		.section	.data.rel.ro.local._ZTV12ProducerSync,"awG",@progbits,_ZTV12ProducerSync,comdat
 1234              		.align	3
 1237              	_ZTV12ProducerSync:
 1238 0000 00000000 		.dword	0
 1238      00000000 
 1239 0008 00000000 		.dword	0
 1239      00000000 
 1240 0010 00000000 		.dword	_ZN12ProducerSyncD1Ev
 1240      00000000 
 1241 0018 00000000 		.dword	_ZN12ProducerSyncD0Ev
 1241      00000000 
 1242 0020 00000000 		.dword	_ZN12ProducerSync3runEv
 1242      00000000 
 1243              		.weak	_ZTV12ConsumerSync
 1244              		.section	.data.rel.ro.local._ZTV12ConsumerSync,"awG",@progbits,_ZTV12ConsumerSync,comdat
 1245              		.align	3
 1248              	_ZTV12ConsumerSync:
 1249 0000 00000000 		.dword	0
 1249      00000000 
 1250 0008 00000000 		.dword	0
 1250      00000000 
GAS LISTING /tmp/ccGwpvCv.s 			page 31


 1251 0010 00000000 		.dword	_ZN12ConsumerSyncD1Ev
 1251      00000000 
 1252 0018 00000000 		.dword	_ZN12ConsumerSyncD0Ev
 1252      00000000 
 1253 0020 00000000 		.dword	_ZN12ConsumerSync3runEv
 1253      00000000 
 1254              		.bss
 1255              		.align	3
 1256              		.set	.LANCHOR0,. + 0
 1259              	_ZL9threadEnd:
 1260 0000 00000000 		.zero	4
 1261 0004 00000000 		.zero	4
 1264              	_ZL10waitForAll:
 1265 0008 00000000 		.zero	8
 1265      00000000 
 1266              		.text
 1267              	.Letext0:
 1268              		.file 2 "test/../h/../lib/hw.h"
 1269              		.file 3 "test/../h/syscall_cpp.hpp"
 1270              		.file 4 "test/buffer_CPP_API.hpp"
 1271              		.file 5 "test/../h/syscall_c.hpp"
 1272              		.file 6 "test/printing.hpp"
 5071              		.align	3
 5074              	DW.ref.__gxx_personality_v0:
 5075 0000 00000000 		.dword	__gxx_personality_v0
 5075      00000000 
 5076              		.ident	"GCC: (Ubuntu 9.4.0-1ubuntu1~20.04) 9.4.0"
 5077              		.section	.note.GNU-stack,"",@progbits
GAS LISTING /tmp/ccGwpvCv.s 			page 32


DEFINED SYMBOLS
                            *ABS*:0000000000000000 ConsumerProducer_CPP_Sync_API_test.cpp
     /tmp/ccGwpvCv.s:10     .text._ZN12ConsumerSyncD2Ev:0000000000000000 _ZN12ConsumerSyncD2Ev
     /tmp/ccGwpvCv.s:14     .text._ZN12ConsumerSyncD2Ev:0000000000000000 .L0 
     /tmp/ccGwpvCv.s:16     .text._ZN12ConsumerSyncD2Ev:0000000000000000 .L0 
     /tmp/ccGwpvCv.s:17     .text._ZN12ConsumerSyncD2Ev:0000000000000004 .L0 
     /tmp/ccGwpvCv.s:20     .text._ZN12ConsumerSyncD2Ev:000000000000000c .L0 
     /tmp/ccGwpvCv.s:21     .text._ZN12ConsumerSyncD2Ev:000000000000000c .L0 
     /tmp/ccGwpvCv.s:23     .text._ZN12ConsumerSyncD2Ev:0000000000000010 .L0 
     /tmp/ccGwpvCv.s:1248   .data.rel.ro.local._ZTV12ConsumerSync:0000000000000000 _ZTV12ConsumerSync
     /tmp/ccGwpvCv.s:26     .text._ZN12ConsumerSyncD2Ev:0000000000000010 .L0 
     /tmp/ccGwpvCv.s:32     .text._ZN12ConsumerSyncD2Ev:0000000000000028 .L0 
     /tmp/ccGwpvCv.s:34     .text._ZN12ConsumerSyncD2Ev:000000000000002c .L0 
     /tmp/ccGwpvCv.s:35     .text._ZN12ConsumerSyncD2Ev:000000000000002c .L0 
     /tmp/ccGwpvCv.s:37     .text._ZN12ConsumerSyncD2Ev:0000000000000030 .L0 
     /tmp/ccGwpvCv.s:39     .text._ZN12ConsumerSyncD2Ev:0000000000000034 .L0 
     /tmp/ccGwpvCv.s:10     .text._ZN12ConsumerSyncD2Ev:0000000000000000 _ZN12ConsumerSyncD1Ev
     /tmp/ccGwpvCv.s:48     .text._ZN12ConsumerSyncD0Ev:0000000000000000 _ZN12ConsumerSyncD0Ev
     /tmp/ccGwpvCv.s:51     .text._ZN12ConsumerSyncD0Ev:0000000000000000 .L0 
     /tmp/ccGwpvCv.s:53     .text._ZN12ConsumerSyncD0Ev:0000000000000000 .L0 
     /tmp/ccGwpvCv.s:54     .text._ZN12ConsumerSyncD0Ev:0000000000000004 .L0 
     /tmp/ccGwpvCv.s:58     .text._ZN12ConsumerSyncD0Ev:0000000000000010 .L0 
     /tmp/ccGwpvCv.s:59     .text._ZN12ConsumerSyncD0Ev:0000000000000010 .L0 
     /tmp/ccGwpvCv.s:60     .text._ZN12ConsumerSyncD0Ev:0000000000000010 .L0 
     /tmp/ccGwpvCv.s:62     .text._ZN12ConsumerSyncD0Ev:0000000000000014 .L0 
     /tmp/ccGwpvCv.s:68     .text._ZN12ConsumerSyncD0Ev:0000000000000018 .L0 
     /tmp/ccGwpvCv.s:78     .text._ZN12ConsumerSyncD0Ev:000000000000003c .L0 
     /tmp/ccGwpvCv.s:80     .text._ZN12ConsumerSyncD0Ev:0000000000000040 .L0 
     /tmp/ccGwpvCv.s:81     .text._ZN12ConsumerSyncD0Ev:0000000000000040 .L0 
     /tmp/ccGwpvCv.s:83     .text._ZN12ConsumerSyncD0Ev:0000000000000044 .L0 
     /tmp/ccGwpvCv.s:86     .text._ZN12ConsumerSyncD0Ev:0000000000000048 .L0 
     /tmp/ccGwpvCv.s:88     .text._ZN12ConsumerSyncD0Ev:000000000000004c .L0 
     /tmp/ccGwpvCv.s:95     .text._ZN12ProducerSyncD2Ev:0000000000000000 _ZN12ProducerSyncD2Ev
     /tmp/ccGwpvCv.s:98     .text._ZN12ProducerSyncD2Ev:0000000000000000 .L0 
     /tmp/ccGwpvCv.s:100    .text._ZN12ProducerSyncD2Ev:0000000000000000 .L0 
     /tmp/ccGwpvCv.s:101    .text._ZN12ProducerSyncD2Ev:0000000000000004 .L0 
     /tmp/ccGwpvCv.s:104    .text._ZN12ProducerSyncD2Ev:000000000000000c .L0 
     /tmp/ccGwpvCv.s:105    .text._ZN12ProducerSyncD2Ev:000000000000000c .L0 
     /tmp/ccGwpvCv.s:107    .text._ZN12ProducerSyncD2Ev:0000000000000010 .L0 
     /tmp/ccGwpvCv.s:1237   .data.rel.ro.local._ZTV12ProducerSync:0000000000000000 _ZTV12ProducerSync
     /tmp/ccGwpvCv.s:110    .text._ZN12ProducerSyncD2Ev:0000000000000010 .L0 
     /tmp/ccGwpvCv.s:116    .text._ZN12ProducerSyncD2Ev:0000000000000028 .L0 
     /tmp/ccGwpvCv.s:118    .text._ZN12ProducerSyncD2Ev:000000000000002c .L0 
     /tmp/ccGwpvCv.s:119    .text._ZN12ProducerSyncD2Ev:000000000000002c .L0 
     /tmp/ccGwpvCv.s:121    .text._ZN12ProducerSyncD2Ev:0000000000000030 .L0 
     /tmp/ccGwpvCv.s:123    .text._ZN12ProducerSyncD2Ev:0000000000000034 .L0 
     /tmp/ccGwpvCv.s:95     .text._ZN12ProducerSyncD2Ev:0000000000000000 _ZN12ProducerSyncD1Ev
     /tmp/ccGwpvCv.s:132    .text._ZN12ProducerSyncD0Ev:0000000000000000 _ZN12ProducerSyncD0Ev
     /tmp/ccGwpvCv.s:135    .text._ZN12ProducerSyncD0Ev:0000000000000000 .L0 
     /tmp/ccGwpvCv.s:137    .text._ZN12ProducerSyncD0Ev:0000000000000000 .L0 
     /tmp/ccGwpvCv.s:138    .text._ZN12ProducerSyncD0Ev:0000000000000004 .L0 
     /tmp/ccGwpvCv.s:142    .text._ZN12ProducerSyncD0Ev:0000000000000010 .L0 
     /tmp/ccGwpvCv.s:143    .text._ZN12ProducerSyncD0Ev:0000000000000010 .L0 
     /tmp/ccGwpvCv.s:144    .text._ZN12ProducerSyncD0Ev:0000000000000010 .L0 
     /tmp/ccGwpvCv.s:146    .text._ZN12ProducerSyncD0Ev:0000000000000014 .L0 
     /tmp/ccGwpvCv.s:152    .text._ZN12ProducerSyncD0Ev:0000000000000018 .L0 
     /tmp/ccGwpvCv.s:162    .text._ZN12ProducerSyncD0Ev:000000000000003c .L0 
GAS LISTING /tmp/ccGwpvCv.s 			page 33


     /tmp/ccGwpvCv.s:164    .text._ZN12ProducerSyncD0Ev:0000000000000040 .L0 
     /tmp/ccGwpvCv.s:165    .text._ZN12ProducerSyncD0Ev:0000000000000040 .L0 
     /tmp/ccGwpvCv.s:167    .text._ZN12ProducerSyncD0Ev:0000000000000044 .L0 
     /tmp/ccGwpvCv.s:170    .text._ZN12ProducerSyncD0Ev:0000000000000048 .L0 
     /tmp/ccGwpvCv.s:172    .text._ZN12ProducerSyncD0Ev:000000000000004c .L0 
     /tmp/ccGwpvCv.s:179    .text._ZN16ProducerKeyboardD2Ev:0000000000000000 _ZN16ProducerKeyboardD2Ev
     /tmp/ccGwpvCv.s:182    .text._ZN16ProducerKeyboardD2Ev:0000000000000000 .L0 
     /tmp/ccGwpvCv.s:184    .text._ZN16ProducerKeyboardD2Ev:0000000000000000 .L0 
     /tmp/ccGwpvCv.s:185    .text._ZN16ProducerKeyboardD2Ev:0000000000000004 .L0 
     /tmp/ccGwpvCv.s:188    .text._ZN16ProducerKeyboardD2Ev:000000000000000c .L0 
     /tmp/ccGwpvCv.s:189    .text._ZN16ProducerKeyboardD2Ev:000000000000000c .L0 
     /tmp/ccGwpvCv.s:191    .text._ZN16ProducerKeyboardD2Ev:0000000000000010 .L0 
     /tmp/ccGwpvCv.s:1226   .data.rel.ro.local._ZTV16ProducerKeyboard:0000000000000000 _ZTV16ProducerKeyboard
     /tmp/ccGwpvCv.s:194    .text._ZN16ProducerKeyboardD2Ev:0000000000000010 .L0 
     /tmp/ccGwpvCv.s:200    .text._ZN16ProducerKeyboardD2Ev:0000000000000028 .L0 
     /tmp/ccGwpvCv.s:202    .text._ZN16ProducerKeyboardD2Ev:000000000000002c .L0 
     /tmp/ccGwpvCv.s:203    .text._ZN16ProducerKeyboardD2Ev:000000000000002c .L0 
     /tmp/ccGwpvCv.s:205    .text._ZN16ProducerKeyboardD2Ev:0000000000000030 .L0 
     /tmp/ccGwpvCv.s:207    .text._ZN16ProducerKeyboardD2Ev:0000000000000034 .L0 
     /tmp/ccGwpvCv.s:179    .text._ZN16ProducerKeyboardD2Ev:0000000000000000 _ZN16ProducerKeyboardD1Ev
     /tmp/ccGwpvCv.s:216    .text._ZN16ProducerKeyboardD0Ev:0000000000000000 _ZN16ProducerKeyboardD0Ev
     /tmp/ccGwpvCv.s:219    .text._ZN16ProducerKeyboardD0Ev:0000000000000000 .L0 
     /tmp/ccGwpvCv.s:221    .text._ZN16ProducerKeyboardD0Ev:0000000000000000 .L0 
     /tmp/ccGwpvCv.s:222    .text._ZN16ProducerKeyboardD0Ev:0000000000000004 .L0 
     /tmp/ccGwpvCv.s:226    .text._ZN16ProducerKeyboardD0Ev:0000000000000010 .L0 
     /tmp/ccGwpvCv.s:227    .text._ZN16ProducerKeyboardD0Ev:0000000000000010 .L0 
     /tmp/ccGwpvCv.s:228    .text._ZN16ProducerKeyboardD0Ev:0000000000000010 .L0 
     /tmp/ccGwpvCv.s:230    .text._ZN16ProducerKeyboardD0Ev:0000000000000014 .L0 
     /tmp/ccGwpvCv.s:236    .text._ZN16ProducerKeyboardD0Ev:0000000000000018 .L0 
     /tmp/ccGwpvCv.s:246    .text._ZN16ProducerKeyboardD0Ev:000000000000003c .L0 
     /tmp/ccGwpvCv.s:248    .text._ZN16ProducerKeyboardD0Ev:0000000000000040 .L0 
     /tmp/ccGwpvCv.s:249    .text._ZN16ProducerKeyboardD0Ev:0000000000000040 .L0 
     /tmp/ccGwpvCv.s:251    .text._ZN16ProducerKeyboardD0Ev:0000000000000044 .L0 
     /tmp/ccGwpvCv.s:254    .text._ZN16ProducerKeyboardD0Ev:0000000000000048 .L0 
     /tmp/ccGwpvCv.s:256    .text._ZN16ProducerKeyboardD0Ev:000000000000004c .L0 
     /tmp/ccGwpvCv.s:263    .text:0000000000000000 _ZN16ProducerKeyboard16producerKeyboardEPv
     /tmp/ccGwpvCv.s:266    .text:0000000000000000 .L0 
     /tmp/ccGwpvCv.s:268    .text:0000000000000000 .L0 
     /tmp/ccGwpvCv.s:269    .text:0000000000000004 .L0 
     /tmp/ccGwpvCv.s:275    .text:0000000000000018 .L0 
     /tmp/ccGwpvCv.s:276    .text:0000000000000018 .L0 
     /tmp/ccGwpvCv.s:277    .text:0000000000000018 .L0 
     /tmp/ccGwpvCv.s:278    .text:0000000000000018 .L0 
     /tmp/ccGwpvCv.s:279    .text:0000000000000018 .L0 
     /tmp/ccGwpvCv.s:281    .text:000000000000001c .L0 
     /tmp/ccGwpvCv.s:286    .text:0000000000000024 .L0 
     /tmp/ccGwpvCv.s:287    .text:0000000000000024 .L0 
     /tmp/ccGwpvCv.s:288    .text:0000000000000024 .L0 
     /tmp/ccGwpvCv.s:289    .text:0000000000000024 .L0 
     /tmp/ccGwpvCv.s:294    .text:000000000000002c .L0 
     /tmp/ccGwpvCv.s:295    .text:000000000000002c .L0 
     /tmp/ccGwpvCv.s:299    .text:0000000000000034 .L0 
     /tmp/ccGwpvCv.s:300    .text:0000000000000034 .L0 
     /tmp/ccGwpvCv.s:301    .text:0000000000000034 .L0 
     /tmp/ccGwpvCv.s:306    .text:0000000000000040 .L0 
     /tmp/ccGwpvCv.s:309    .text:0000000000000048 .L0 
     /tmp/ccGwpvCv.s:310    .text:0000000000000048 .L0 
GAS LISTING /tmp/ccGwpvCv.s 			page 34


     /tmp/ccGwpvCv.s:315    .text:0000000000000054 .L0 
     /tmp/ccGwpvCv.s:316    .text:0000000000000054 .L0 
     /tmp/ccGwpvCv.s:320    .text:000000000000005c .L0 
     /tmp/ccGwpvCv.s:321    .text:000000000000005c .L0 
     /tmp/ccGwpvCv.s:323    .text:0000000000000060 .L0 
     /tmp/ccGwpvCv.s:327    .text:000000000000006c .L0 
     /tmp/ccGwpvCv.s:329    .text:0000000000000070 .L0 
     /tmp/ccGwpvCv.s:334    .text:0000000000000078 .L0 
     /tmp/ccGwpvCv.s:335    .text:0000000000000078 .L0 
     /tmp/ccGwpvCv.s:338    .text:0000000000000084 .L0 
     /tmp/ccGwpvCv.s:340    .text:0000000000000088 .L0 
     /tmp/ccGwpvCv.s:346    .text:0000000000000098 .L0 
     /tmp/ccGwpvCv.s:347    .text:0000000000000098 .L0 
     /tmp/ccGwpvCv.s:351    .text:00000000000000a4 .L0 
     /tmp/ccGwpvCv.s:352    .text:00000000000000a8 .L0 
     /tmp/ccGwpvCv.s:354    .text:00000000000000ac .L0 
     /tmp/ccGwpvCv.s:355    .text:00000000000000ac .L0 
     /tmp/ccGwpvCv.s:357    .text:00000000000000b0 .L0 
     /tmp/ccGwpvCv.s:360    .text:00000000000000b4 .L0 
     /tmp/ccGwpvCv.s:363    .text:00000000000000b8 .L0 
     /tmp/ccGwpvCv.s:366    .text:00000000000000bc .L0 
     /tmp/ccGwpvCv.s:368    .text:00000000000000c0 .L0 
     /tmp/ccGwpvCv.s:375    .text._ZN16ProducerKeyboard3runEv:0000000000000000 _ZN16ProducerKeyboard3runEv
     /tmp/ccGwpvCv.s:378    .text._ZN16ProducerKeyboard3runEv:0000000000000000 .L0 
     /tmp/ccGwpvCv.s:380    .text._ZN16ProducerKeyboard3runEv:0000000000000000 .L0 
     /tmp/ccGwpvCv.s:381    .text._ZN16ProducerKeyboard3runEv:0000000000000004 .L0 
     /tmp/ccGwpvCv.s:384    .text._ZN16ProducerKeyboard3runEv:000000000000000c .L0 
     /tmp/ccGwpvCv.s:385    .text._ZN16ProducerKeyboard3runEv:000000000000000c .L0 
     /tmp/ccGwpvCv.s:387    .text._ZN16ProducerKeyboard3runEv:0000000000000010 .L0 
     /tmp/ccGwpvCv.s:389    .text._ZN16ProducerKeyboard3runEv:0000000000000010 .L0 
     /tmp/ccGwpvCv.s:390    .text._ZN16ProducerKeyboard3runEv:0000000000000010 .L0 
     /tmp/ccGwpvCv.s:394    .text._ZN16ProducerKeyboard3runEv:000000000000001c .L0 
     /tmp/ccGwpvCv.s:395    .text._ZN16ProducerKeyboard3runEv:0000000000000020 .L0 
     /tmp/ccGwpvCv.s:397    .text._ZN16ProducerKeyboard3runEv:0000000000000024 .L0 
     /tmp/ccGwpvCv.s:398    .text._ZN16ProducerKeyboard3runEv:0000000000000024 .L0 
     /tmp/ccGwpvCv.s:400    .text._ZN16ProducerKeyboard3runEv:0000000000000028 .L0 
     /tmp/ccGwpvCv.s:402    .text._ZN16ProducerKeyboard3runEv:000000000000002c .L0 
     /tmp/ccGwpvCv.s:409    .text:00000000000000c0 _ZN12ProducerSync8producerEPv
     /tmp/ccGwpvCv.s:412    .text:00000000000000c0 .L0 
     /tmp/ccGwpvCv.s:414    .text:00000000000000c0 .L0 
     /tmp/ccGwpvCv.s:415    .text:00000000000000c4 .L0 
     /tmp/ccGwpvCv.s:420    .text:00000000000000d4 .L0 
     /tmp/ccGwpvCv.s:421    .text:00000000000000d4 .L0 
     /tmp/ccGwpvCv.s:422    .text:00000000000000d4 .L0 
     /tmp/ccGwpvCv.s:423    .text:00000000000000d4 .L0 
     /tmp/ccGwpvCv.s:425    .text:00000000000000d8 .L0 
     /tmp/ccGwpvCv.s:429    .text:00000000000000dc .L0 
     /tmp/ccGwpvCv.s:430    .text:00000000000000dc .L0 
     /tmp/ccGwpvCv.s:431    .text:00000000000000dc .L0 
     /tmp/ccGwpvCv.s:436    .text:00000000000000e4 .L0 
     /tmp/ccGwpvCv.s:437    .text:00000000000000e4 .L0 
     /tmp/ccGwpvCv.s:441    .text:00000000000000ec .L0 
     /tmp/ccGwpvCv.s:442    .text:00000000000000ec .L0 
     /tmp/ccGwpvCv.s:445    .text:00000000000000f8 .L0 
     /tmp/ccGwpvCv.s:446    .text:00000000000000f8 .L0 
     /tmp/ccGwpvCv.s:448    .text:00000000000000fc .L0 
     /tmp/ccGwpvCv.s:453    .text:000000000000010c .L0 
GAS LISTING /tmp/ccGwpvCv.s 			page 35


     /tmp/ccGwpvCv.s:454    .text:000000000000010c .L0 
     /tmp/ccGwpvCv.s:458    .text:0000000000000114 .L0 
     /tmp/ccGwpvCv.s:459    .text:0000000000000114 .L0 
     /tmp/ccGwpvCv.s:461    .text:0000000000000118 .L0 
     /tmp/ccGwpvCv.s:465    .text:0000000000000124 .L0 
     /tmp/ccGwpvCv.s:467    .text:0000000000000128 .L0 
     /tmp/ccGwpvCv.s:472    .text:0000000000000130 .L0 
     /tmp/ccGwpvCv.s:473    .text:0000000000000130 .L0 
     /tmp/ccGwpvCv.s:477    .text:000000000000013c .L0 
     /tmp/ccGwpvCv.s:478    .text:0000000000000140 .L0 
     /tmp/ccGwpvCv.s:480    .text:0000000000000144 .L0 
     /tmp/ccGwpvCv.s:481    .text:0000000000000144 .L0 
     /tmp/ccGwpvCv.s:483    .text:0000000000000148 .L0 
     /tmp/ccGwpvCv.s:486    .text:000000000000014c .L0 
     /tmp/ccGwpvCv.s:489    .text:0000000000000150 .L0 
     /tmp/ccGwpvCv.s:491    .text:0000000000000154 .L0 
     /tmp/ccGwpvCv.s:498    .text._ZN12ProducerSync3runEv:0000000000000000 _ZN12ProducerSync3runEv
     /tmp/ccGwpvCv.s:501    .text._ZN12ProducerSync3runEv:0000000000000000 .L0 
     /tmp/ccGwpvCv.s:503    .text._ZN12ProducerSync3runEv:0000000000000000 .L0 
     /tmp/ccGwpvCv.s:504    .text._ZN12ProducerSync3runEv:0000000000000004 .L0 
     /tmp/ccGwpvCv.s:507    .text._ZN12ProducerSync3runEv:000000000000000c .L0 
     /tmp/ccGwpvCv.s:508    .text._ZN12ProducerSync3runEv:000000000000000c .L0 
     /tmp/ccGwpvCv.s:510    .text._ZN12ProducerSync3runEv:0000000000000010 .L0 
     /tmp/ccGwpvCv.s:512    .text._ZN12ProducerSync3runEv:0000000000000010 .L0 
     /tmp/ccGwpvCv.s:513    .text._ZN12ProducerSync3runEv:0000000000000010 .L0 
     /tmp/ccGwpvCv.s:517    .text._ZN12ProducerSync3runEv:000000000000001c .L0 
     /tmp/ccGwpvCv.s:518    .text._ZN12ProducerSync3runEv:0000000000000020 .L0 
     /tmp/ccGwpvCv.s:520    .text._ZN12ProducerSync3runEv:0000000000000024 .L0 
     /tmp/ccGwpvCv.s:521    .text._ZN12ProducerSync3runEv:0000000000000024 .L0 
     /tmp/ccGwpvCv.s:523    .text._ZN12ProducerSync3runEv:0000000000000028 .L0 
     /tmp/ccGwpvCv.s:525    .text._ZN12ProducerSync3runEv:000000000000002c .L0 
     /tmp/ccGwpvCv.s:532    .text:0000000000000154 _ZN12ConsumerSync8consumerEPv
     /tmp/ccGwpvCv.s:535    .text:0000000000000154 .L0 
     /tmp/ccGwpvCv.s:537    .text:0000000000000154 .L0 
     /tmp/ccGwpvCv.s:538    .text:0000000000000158 .L0 
     /tmp/ccGwpvCv.s:545    .text:0000000000000170 .L0 
     /tmp/ccGwpvCv.s:546    .text:0000000000000170 .L0 
     /tmp/ccGwpvCv.s:547    .text:0000000000000170 .L0 
     /tmp/ccGwpvCv.s:548    .text:0000000000000170 .L0 
     /tmp/ccGwpvCv.s:549    .text:0000000000000170 .L0 
     /tmp/ccGwpvCv.s:550    .text:0000000000000170 .L0 
     /tmp/ccGwpvCv.s:552    .text:0000000000000174 .L0 
     /tmp/ccGwpvCv.s:557    .text:000000000000017c .L0 
     /tmp/ccGwpvCv.s:558    .text:000000000000017c .L0 
     /tmp/ccGwpvCv.s:559    .text:000000000000017c .L0 
     /tmp/ccGwpvCv.s:565    .text:0000000000000184 .L0 
     /tmp/ccGwpvCv.s:566    .text:0000000000000184 .L0 
     /tmp/ccGwpvCv.s:572    .text:0000000000000190 .L0 
     /tmp/ccGwpvCv.s:573    .text:0000000000000190 .L0 
     /tmp/ccGwpvCv.s:579    .text:000000000000019c .L0 
     /tmp/ccGwpvCv.s:580    .text:000000000000019c .L0 
     /tmp/ccGwpvCv.s:584    .text:00000000000001a8 .L0 
     /tmp/ccGwpvCv.s:585    .text:00000000000001a8 .L0 
     /tmp/ccGwpvCv.s:589    .text:00000000000001b4 .L0 
     /tmp/ccGwpvCv.s:590    .text:00000000000001b4 .L0 
     /tmp/ccGwpvCv.s:594    .text:00000000000001bc .L0 
     /tmp/ccGwpvCv.s:595    .text:00000000000001bc .L0 
GAS LISTING /tmp/ccGwpvCv.s 			page 36


     /tmp/ccGwpvCv.s:600    .text:00000000000001c8 .L0 
     /tmp/ccGwpvCv.s:601    .text:00000000000001c8 .L0 
     /tmp/ccGwpvCv.s:603    .text:00000000000001cc .L0 
     /tmp/ccGwpvCv.s:606    .text:00000000000001d4 .L0 
     /tmp/ccGwpvCv.s:608    .text:00000000000001d8 .L0 
     /tmp/ccGwpvCv.s:611    .text:00000000000001dc .L0 
     /tmp/ccGwpvCv.s:612    .text:00000000000001dc .L0 
     /tmp/ccGwpvCv.s:616    .text:00000000000001e4 .L0 
     /tmp/ccGwpvCv.s:622    .text:00000000000001ec .L0 
     /tmp/ccGwpvCv.s:623    .text:00000000000001ec .L0 
     /tmp/ccGwpvCv.s:625    .text:00000000000001f0 .L0 
     /tmp/ccGwpvCv.s:629    .text:00000000000001fc .L0 
     /tmp/ccGwpvCv.s:630    .text:00000000000001fc .L0 
     /tmp/ccGwpvCv.s:637    .text:0000000000000208 .L0 
     /tmp/ccGwpvCv.s:638    .text:0000000000000208 .L0 
     /tmp/ccGwpvCv.s:639    .text:0000000000000208 .L0 
     /tmp/ccGwpvCv.s:641    .text:000000000000020c .L0 
     /tmp/ccGwpvCv.s:645    .text:0000000000000218 .L0 
     /tmp/ccGwpvCv.s:647    .text:000000000000021c .L0 
     /tmp/ccGwpvCv.s:648    .text:000000000000021c .L0 
     /tmp/ccGwpvCv.s:652    .text:0000000000000228 .L0 
     /tmp/ccGwpvCv.s:653    .text:000000000000022c .L0 
     /tmp/ccGwpvCv.s:655    .text:0000000000000230 .L0 
     /tmp/ccGwpvCv.s:656    .text:0000000000000230 .L0 
     /tmp/ccGwpvCv.s:658    .text:0000000000000234 .L0 
     /tmp/ccGwpvCv.s:660    .text:0000000000000238 .L0 
     /tmp/ccGwpvCv.s:663    .text:000000000000023c .L0 
     /tmp/ccGwpvCv.s:666    .text:0000000000000240 .L0 
     /tmp/ccGwpvCv.s:669    .text:0000000000000244 .L0 
     /tmp/ccGwpvCv.s:671    .text:0000000000000248 .L0 
     /tmp/ccGwpvCv.s:678    .text._ZN12ConsumerSync3runEv:0000000000000000 _ZN12ConsumerSync3runEv
     /tmp/ccGwpvCv.s:681    .text._ZN12ConsumerSync3runEv:0000000000000000 .L0 
     /tmp/ccGwpvCv.s:683    .text._ZN12ConsumerSync3runEv:0000000000000000 .L0 
     /tmp/ccGwpvCv.s:684    .text._ZN12ConsumerSync3runEv:0000000000000004 .L0 
     /tmp/ccGwpvCv.s:687    .text._ZN12ConsumerSync3runEv:000000000000000c .L0 
     /tmp/ccGwpvCv.s:688    .text._ZN12ConsumerSync3runEv:000000000000000c .L0 
     /tmp/ccGwpvCv.s:690    .text._ZN12ConsumerSync3runEv:0000000000000010 .L0 
     /tmp/ccGwpvCv.s:692    .text._ZN12ConsumerSync3runEv:0000000000000010 .L0 
     /tmp/ccGwpvCv.s:693    .text._ZN12ConsumerSync3runEv:0000000000000010 .L0 
     /tmp/ccGwpvCv.s:697    .text._ZN12ConsumerSync3runEv:000000000000001c .L0 
     /tmp/ccGwpvCv.s:698    .text._ZN12ConsumerSync3runEv:0000000000000020 .L0 
     /tmp/ccGwpvCv.s:700    .text._ZN12ConsumerSync3runEv:0000000000000024 .L0 
     /tmp/ccGwpvCv.s:701    .text._ZN12ConsumerSync3runEv:0000000000000024 .L0 
     /tmp/ccGwpvCv.s:703    .text._ZN12ConsumerSync3runEv:0000000000000028 .L0 
     /tmp/ccGwpvCv.s:705    .text._ZN12ConsumerSync3runEv:000000000000002c .L0 
     /tmp/ccGwpvCv.s:734    .text:0000000000000248 _Z29producerConsumer_CPP_Sync_APIv
     /tmp/ccGwpvCv.s:737    .text:0000000000000248 .L0 
     /tmp/ccGwpvCv.s:5074   .data.rel.local.DW.ref.__gxx_personality_v0:0000000000000000 DW.ref.__gxx_personality_v0
     /tmp/ccGwpvCv.s:740    .text:0000000000000248 .L0 
     /tmp/ccGwpvCv.s:741    .text:000000000000024c .L0 
     /tmp/ccGwpvCv.s:752    .text:0000000000000274 .L0 
     /tmp/ccGwpvCv.s:753    .text:0000000000000274 .L0 
     /tmp/ccGwpvCv.s:754    .text:0000000000000274 .L0 
     /tmp/ccGwpvCv.s:755    .text:0000000000000274 .L0 
     /tmp/ccGwpvCv.s:756    .text:0000000000000274 .L0 
     /tmp/ccGwpvCv.s:757    .text:0000000000000274 .L0 
     /tmp/ccGwpvCv.s:758    .text:0000000000000274 .L0 
GAS LISTING /tmp/ccGwpvCv.s 			page 37


     /tmp/ccGwpvCv.s:759    .text:0000000000000274 .L0 
     /tmp/ccGwpvCv.s:760    .text:0000000000000274 .L0 
     /tmp/ccGwpvCv.s:761    .text:0000000000000274 .L0 
     /tmp/ccGwpvCv.s:763    .text:0000000000000278 .L0 
     /tmp/ccGwpvCv.s:765    .text:0000000000000278 .L0 
     /tmp/ccGwpvCv.s:767    .text:000000000000027c .L0 
     /tmp/ccGwpvCv.s:768    .text:000000000000027c .L0 
     /tmp/ccGwpvCv.s:769    .text:000000000000027c .L0 
     /tmp/ccGwpvCv.s:770    .text:000000000000027c .L0 
     /tmp/ccGwpvCv.s:775    .text:000000000000028c .L0 
     /tmp/ccGwpvCv.s:776    .text:000000000000028c .L0 
     /tmp/ccGwpvCv.s:782    .text:00000000000002a0 .L0 
     /tmp/ccGwpvCv.s:783    .text:00000000000002a0 .L0 
     /tmp/ccGwpvCv.s:789    .text:00000000000002b0 .L0 
     /tmp/ccGwpvCv.s:790    .text:00000000000002b0 .L0 
     /tmp/ccGwpvCv.s:794    .text:00000000000002c0 .L0 
     /tmp/ccGwpvCv.s:795    .text:00000000000002c0 .L0 
     /tmp/ccGwpvCv.s:800    .text:00000000000002d0 .L0 
     /tmp/ccGwpvCv.s:801    .text:00000000000002d0 .L0 
     /tmp/ccGwpvCv.s:807    .text:00000000000002e0 .L0 
     /tmp/ccGwpvCv.s:808    .text:00000000000002e0 .L0 
     /tmp/ccGwpvCv.s:812    .text:00000000000002f0 .L0 
     /tmp/ccGwpvCv.s:813    .text:00000000000002f0 .L0 
     /tmp/ccGwpvCv.s:819    .text:0000000000000304 .L0 
     /tmp/ccGwpvCv.s:820    .text:0000000000000304 .L0 
     /tmp/ccGwpvCv.s:824    .text:0000000000000314 .L0 
     /tmp/ccGwpvCv.s:825    .text:0000000000000314 .L0 
     /tmp/ccGwpvCv.s:831    .text:0000000000000328 .L0 
     /tmp/ccGwpvCv.s:832    .text:0000000000000328 .L0 
     /tmp/ccGwpvCv.s:836    .text:0000000000000338 .L0 
     /tmp/ccGwpvCv.s:838    .text:000000000000033c .L0 
     /tmp/ccGwpvCv.s:840    .text:0000000000000340 .L0 
     /tmp/ccGwpvCv.s:841    .text:0000000000000340 .L0 
     /tmp/ccGwpvCv.s:854    .text:0000000000000360 .L0 
     /tmp/ccGwpvCv.s:855    .text:0000000000000360 .L0 
     /tmp/ccGwpvCv.s:860    .text:0000000000000370 .L0 
     /tmp/ccGwpvCv.s:863    .text:0000000000000374 .L0 
     /tmp/ccGwpvCv.s:864    .text:0000000000000374 .L0 
     /tmp/ccGwpvCv.s:869    .text:0000000000000384 .L0 
     /tmp/ccGwpvCv.s:874    .text:000000000000038c .L0 
     /tmp/ccGwpvCv.s:875    .text:000000000000038c .L0 
     /tmp/ccGwpvCv.s:887    .text:00000000000003a8 .L0 
     /tmp/ccGwpvCv.s:890    .text:00000000000003b0 .L0 
     /tmp/ccGwpvCv.s:891    .text:00000000000003b0 .L0 
     /tmp/ccGwpvCv.s:898    .text:00000000000003c4 .L0 
     /tmp/ccGwpvCv.s:899    .text:00000000000003c4 .L0 
     /tmp/ccGwpvCv.s:900    .text:00000000000003c4 .L0 
     /tmp/ccGwpvCv.s:903    .text:00000000000003c8 .L0 
     /tmp/ccGwpvCv.s:913    .text:00000000000003e4 .L0 
     /tmp/ccGwpvCv.s:914    .text:00000000000003e4 .L0 
     /tmp/ccGwpvCv.s:920    .text:00000000000003f8 .L0 
     /tmp/ccGwpvCv.s:921    .text:00000000000003f8 .L0 
     /tmp/ccGwpvCv.s:923    .text:00000000000003fc .L0 
     /tmp/ccGwpvCv.s:924    .text:00000000000003fc .L0 
     /tmp/ccGwpvCv.s:926    .text:0000000000000400 .L0 
     /tmp/ccGwpvCv.s:927    .text:0000000000000400 .L0 
     /tmp/ccGwpvCv.s:933    .text:0000000000000410 .L0 
GAS LISTING /tmp/ccGwpvCv.s 			page 38


     /tmp/ccGwpvCv.s:936    .text:0000000000000418 .L0 
     /tmp/ccGwpvCv.s:941    .text:000000000000041c .L0 
     /tmp/ccGwpvCv.s:948    .text:000000000000042c .L0 
     /tmp/ccGwpvCv.s:949    .text:000000000000042c .L0 
     /tmp/ccGwpvCv.s:953    .text:0000000000000434 .L0 
     /tmp/ccGwpvCv.s:958    .text:000000000000043c .L0 
     /tmp/ccGwpvCv.s:959    .text:000000000000043c .L0 
     /tmp/ccGwpvCv.s:963    .text:0000000000000448 .L0 
     /tmp/ccGwpvCv.s:967    .text:0000000000000454 .L0 
     /tmp/ccGwpvCv.s:972    .text:0000000000000458 .L0 
     /tmp/ccGwpvCv.s:979    .text:0000000000000468 .L0 
     /tmp/ccGwpvCv.s:984    .text:0000000000000474 .L0 
     /tmp/ccGwpvCv.s:985    .text:0000000000000474 .L0 
     /tmp/ccGwpvCv.s:988    .text:000000000000047c .L0 
     /tmp/ccGwpvCv.s:992    .text:0000000000000488 .L0 
     /tmp/ccGwpvCv.s:996    .text:000000000000048c .L0 
     /tmp/ccGwpvCv.s:998    .text:0000000000000490 .L0 
     /tmp/ccGwpvCv.s:999    .text:0000000000000490 .L0 
     /tmp/ccGwpvCv.s:1005   .text:00000000000004a4 .L0 
     /tmp/ccGwpvCv.s:1006   .text:00000000000004a4 .L0 
     /tmp/ccGwpvCv.s:1008   .text:00000000000004a8 .L0 
     /tmp/ccGwpvCv.s:1009   .text:00000000000004a8 .L0 
     /tmp/ccGwpvCv.s:1012   .text:00000000000004b4 .L0 
     /tmp/ccGwpvCv.s:1014   .text:00000000000004b8 .L0 
     /tmp/ccGwpvCv.s:1015   .text:00000000000004b8 .L0 
     /tmp/ccGwpvCv.s:1019   .text:00000000000004c4 .L0 
     /tmp/ccGwpvCv.s:1023   .text:00000000000004d0 .L0 
     /tmp/ccGwpvCv.s:1028   .text:00000000000004d4 .L0 
     /tmp/ccGwpvCv.s:1035   .text:00000000000004e4 .L0 
     /tmp/ccGwpvCv.s:1042   .text:00000000000004f4 .L0 
     /tmp/ccGwpvCv.s:1043   .text:00000000000004f4 .L0 
     /tmp/ccGwpvCv.s:1047   .text:00000000000004fc .L0 
     /tmp/ccGwpvCv.s:1051   .text:0000000000000500 .L0 
     /tmp/ccGwpvCv.s:1053   .text:0000000000000504 .L0 
     /tmp/ccGwpvCv.s:1054   .text:0000000000000504 .L0 
     /tmp/ccGwpvCv.s:1058   .text:0000000000000514 .L0 
     /tmp/ccGwpvCv.s:1066   .text:000000000000051c .L0 
     /tmp/ccGwpvCv.s:1072   .text:0000000000000524 .L0 
     /tmp/ccGwpvCv.s:1076   .text:0000000000000528 .L0 
     /tmp/ccGwpvCv.s:1078   .text:000000000000052c .L0 
     /tmp/ccGwpvCv.s:1079   .text:000000000000052c .L0 
     /tmp/ccGwpvCv.s:1083   .text:0000000000000538 .L0 
     /tmp/ccGwpvCv.s:1085   .text:000000000000053c .L0 
     /tmp/ccGwpvCv.s:1093   .text:000000000000054c .L0 
     /tmp/ccGwpvCv.s:1094   .text:000000000000054c .L0 
     /tmp/ccGwpvCv.s:1096   .text:0000000000000550 .L0 
     /tmp/ccGwpvCv.s:1103   .text:0000000000000560 .L0 
     /tmp/ccGwpvCv.s:1104   .text:0000000000000560 .L0 
     /tmp/ccGwpvCv.s:1106   .text:0000000000000568 .L0 
     /tmp/ccGwpvCv.s:1108   .text:000000000000056c .L0 
     /tmp/ccGwpvCv.s:1114   .text:0000000000000578 .L0 
     /tmp/ccGwpvCv.s:1115   .text:0000000000000578 .L0 
     /tmp/ccGwpvCv.s:1117   .text:000000000000057c .L0 
     /tmp/ccGwpvCv.s:1129   .text:0000000000000598 .L0 
     /tmp/ccGwpvCv.s:1130   .text:000000000000059c .L0 
     /tmp/ccGwpvCv.s:1131   .text:000000000000059c .L0 
     /tmp/ccGwpvCv.s:1133   .text:00000000000005a0 .L0 
GAS LISTING /tmp/ccGwpvCv.s 			page 39


     /tmp/ccGwpvCv.s:1135   .text:00000000000005a4 .L0 
     /tmp/ccGwpvCv.s:1137   .text:00000000000005a8 .L0 
     /tmp/ccGwpvCv.s:1139   .text:00000000000005ac .L0 
     /tmp/ccGwpvCv.s:1142   .text:00000000000005b0 .L0 
     /tmp/ccGwpvCv.s:1144   .text:00000000000005b4 .L0 
     /tmp/ccGwpvCv.s:1146   .text:00000000000005b8 .L0 
     /tmp/ccGwpvCv.s:1148   .text:00000000000005bc .L0 
     /tmp/ccGwpvCv.s:1150   .text:00000000000005c0 .L0 
     /tmp/ccGwpvCv.s:1152   .text:00000000000005c4 .L0 
     /tmp/ccGwpvCv.s:1154   .text:00000000000005c8 .L0 
     /tmp/ccGwpvCv.s:1158   .text:00000000000005cc .L0 
     /tmp/ccGwpvCv.s:1162   .text:00000000000005d0 .L0 
     /tmp/ccGwpvCv.s:1174   .text:00000000000005ec .L0 
     /tmp/ccGwpvCv.s:1182   .text:0000000000000604 .L0 
     /tmp/ccGwpvCv.s:1256   .bss:0000000000000000 .LANCHOR0
     /tmp/ccGwpvCv.s:1259   .bss:0000000000000000 _ZL9threadEnd
     /tmp/ccGwpvCv.s:1264   .bss:0000000000000008 _ZL10waitForAll
     /tmp/ccGwpvCv.s:44     .text._ZN12ConsumerSyncD2Ev:0000000000000034 .L0 
     /tmp/ccGwpvCv.s:91     .text._ZN12ConsumerSyncD0Ev:000000000000004c .L0 
     /tmp/ccGwpvCv.s:128    .text._ZN12ProducerSyncD2Ev:0000000000000034 .L0 
     /tmp/ccGwpvCv.s:175    .text._ZN12ProducerSyncD0Ev:000000000000004c .L0 
     /tmp/ccGwpvCv.s:212    .text._ZN16ProducerKeyboardD2Ev:0000000000000034 .L0 
     /tmp/ccGwpvCv.s:259    .text._ZN16ProducerKeyboardD0Ev:000000000000004c .L0 
     /tmp/ccGwpvCv.s:1273   .text:0000000000000604 .L0 
     /tmp/ccGwpvCv.s:405    .text._ZN16ProducerKeyboard3runEv:000000000000002c .L0 
     /tmp/ccGwpvCv.s:528    .text._ZN12ProducerSync3runEv:000000000000002c .L0 
     /tmp/ccGwpvCv.s:708    .text._ZN12ConsumerSync3runEv:000000000000002c .L0 
     /tmp/ccGwpvCv.s:336    .text:000000000000007c .L0 
     /tmp/ccGwpvCv.s:442    .text:00000000000000ec .L0 
     /tmp/ccGwpvCv.s:580    .text:000000000000019c .L0 
     /tmp/ccGwpvCv.s:710    .rodata.str1.8:0000000000000000 .LC0
     /tmp/ccGwpvCv.s:770    .text:000000000000027c .L0 
     /tmp/ccGwpvCv.s:713    .rodata.str1.8:0000000000000020 .LC1
     /tmp/ccGwpvCv.s:790    .text:00000000000002b0 .L0 
     /tmp/ccGwpvCv.s:716    .rodata.str1.8:0000000000000040 .LC2
     /tmp/ccGwpvCv.s:808    .text:00000000000002e0 .L0 
     /tmp/ccGwpvCv.s:719    .rodata.str1.8:0000000000000058 .LC3
     /tmp/ccGwpvCv.s:820    .text:0000000000000304 .L0 
     /tmp/ccGwpvCv.s:722    .rodata.str1.8:0000000000000070 .LC4
     /tmp/ccGwpvCv.s:832    .text:0000000000000328 .L0 
     /tmp/ccGwpvCv.s:725    .rodata.str1.8:0000000000000078 .LC5
     /tmp/ccGwpvCv.s:855    .text:0000000000000360 .L0 
     /tmp/ccGwpvCv.s:728    .rodata.str1.8:00000000000000b8 .LC6
     /tmp/ccGwpvCv.s:864    .text:0000000000000374 .L0 
     /tmp/ccGwpvCv.s:887    .text:00000000000003a8 .L0 
     /tmp/ccGwpvCv.s:941    .text:000000000000041c .L0 
     /tmp/ccGwpvCv.s:972    .text:0000000000000458 .L0 
     /tmp/ccGwpvCv.s:1009   .text:00000000000004a8 .L0 
     /tmp/ccGwpvCv.s:1028   .text:00000000000004d4 .L0 
     /tmp/ccGwpvCv.s:1054   .text:0000000000000504 .L0 
     /tmp/ccGwpvCv.s:1104   .text:0000000000000560 .L0 
     /tmp/ccGwpvCv.s:297    .text:0000000000000034 .L14
     /tmp/ccGwpvCv.s:332    .text:0000000000000078 .L15
     /tmp/ccGwpvCv.s:292    .text:000000000000002c .L18
     /tmp/ccGwpvCv.s:439    .text:00000000000000ec .L22
     /tmp/ccGwpvCv.s:470    .text:0000000000000130 .L23
     /tmp/ccGwpvCv.s:434    .text:00000000000000e4 .L26
GAS LISTING /tmp/ccGwpvCv.s 			page 40


     /tmp/ccGwpvCv.s:576    .text:000000000000019c .L30
     /tmp/ccGwpvCv.s:609    .text:00000000000001dc .L32
     /tmp/ccGwpvCv.s:634    .text:0000000000000208 .L31
     /tmp/ccGwpvCv.s:562    .text:0000000000000184 .L36
     /tmp/ccGwpvCv.s:570    .text:0000000000000190 .L37
     /tmp/ccGwpvCv.s:618    .text:00000000000001ec .L38
     /tmp/ccGwpvCv.s:852    .text:0000000000000360 .L63
     /tmp/ccGwpvCv.s:861    .text:0000000000000374 .L64
     /tmp/ccGwpvCv.s:871    .text:000000000000038c .L65
     /tmp/ccGwpvCv.s:868    .text:0000000000000384 .L43
     /tmp/ccGwpvCv.s:1127   .text:0000000000000598 .L41
     /tmp/ccGwpvCv.s:994    .text:000000000000048c .L48
     /tmp/ccGwpvCv.s:1039   .text:00000000000004f4 .L45
     /tmp/ccGwpvCv.s:956    .text:000000000000043c .L66
     /tmp/ccGwpvCv.s:982    .text:0000000000000474 .L47
     /tmp/ccGwpvCv.s:1062   .text:000000000000051c .L59
     /tmp/ccGwpvCv.s:1049   .text:0000000000000500 .L50
     /tmp/ccGwpvCv.s:1074   .text:0000000000000528 .L49
     /tmp/ccGwpvCv.s:1090   .text:000000000000054c .L51
     /tmp/ccGwpvCv.s:1070   .text:0000000000000524 .L52
     /tmp/ccGwpvCv.s:1101   .text:0000000000000560 .L53
     /tmp/ccGwpvCv.s:1112   .text:0000000000000578 .L54
     /tmp/ccGwpvCv.s:1124   .text:0000000000000594 .L55
     /tmp/ccGwpvCv.s:26     .text._ZN12ConsumerSyncD2Ev:0000000000000010 .L0 
     /tmp/ccGwpvCv.s:68     .text._ZN12ConsumerSyncD0Ev:0000000000000018 .L0 
     /tmp/ccGwpvCv.s:110    .text._ZN12ProducerSyncD2Ev:0000000000000010 .L0 
     /tmp/ccGwpvCv.s:152    .text._ZN12ProducerSyncD0Ev:0000000000000018 .L0 
     /tmp/ccGwpvCv.s:194    .text._ZN16ProducerKeyboardD2Ev:0000000000000010 .L0 
     /tmp/ccGwpvCv.s:236    .text._ZN16ProducerKeyboardD0Ev:0000000000000018 .L0 
     /tmp/ccGwpvCv.s:771    .text:0000000000000284 .LEHB0
     /tmp/ccGwpvCv.s:735    .text:0000000000000248 .LFB20
     /tmp/ccGwpvCv.s:844    .text:000000000000034c .LEHE0
     /tmp/ccGwpvCv.s:847    .text:0000000000000354 .LEHB1
     /tmp/ccGwpvCv.s:850    .text:000000000000035c .LEHE1
     /tmp/ccGwpvCv.s:1157   .text:00000000000005cc .L60
     /tmp/ccGwpvCv.s:856    .text:0000000000000368 .LEHB2
     /tmp/ccGwpvCv.s:878    .text:0000000000000398 .LEHE2
     /tmp/ccGwpvCv.s:882    .text:00000000000003a0 .LEHB3
     /tmp/ccGwpvCv.s:885    .text:00000000000003a8 .LEHE3
     /tmp/ccGwpvCv.s:1170   .text:00000000000005e8 .L61
     /tmp/ccGwpvCv.s:928    .text:0000000000000404 .LEHB4
     /tmp/ccGwpvCv.s:1123   .text:0000000000000594 .LEHE4
     /tmp/ccGwpvCv.s:1166   .text:00000000000005e0 .LEHB5
     /tmp/ccGwpvCv.s:1169   .text:00000000000005e8 .LEHE5
     /tmp/ccGwpvCv.s:1178   .text:00000000000005fc .LEHB6
     /tmp/ccGwpvCv.s:1181   .text:0000000000000604 .LEHE6
     /tmp/ccGwpvCv.s:3234   .debug_abbrev:0000000000000000 .Ldebug_abbrev0
     /tmp/ccGwpvCv.s:5024   .debug_str:000000000000062e .LASF108
     /tmp/ccGwpvCv.s:5064   .debug_str:0000000000000878 .LASF109
     /tmp/ccGwpvCv.s:4890   .debug_str:00000000000001c6 .LASF110
     /tmp/ccGwpvCv.s:4800   .debug_ranges:0000000000000000 .Ldebug_ranges0
     /tmp/ccGwpvCv.s:4830   .debug_line:0000000000000000 .Ldebug_line0
     /tmp/ccGwpvCv.s:4962   .debug_str:0000000000000437 .LASF0
     /tmp/ccGwpvCv.s:4978   .debug_str:00000000000004cb .LASF1
     /tmp/ccGwpvCv.s:4950   .debug_str:00000000000003c5 .LASF2
     /tmp/ccGwpvCv.s:4926   .debug_str:000000000000031f .LASF4
     /tmp/ccGwpvCv.s:5014   .debug_str:00000000000005d5 .LASF3
GAS LISTING /tmp/ccGwpvCv.s 			page 41


     /tmp/ccGwpvCv.s:4858   .debug_str:00000000000000af .LASF5
     /tmp/ccGwpvCv.s:4984   .debug_str:000000000000050d .LASF6
     /tmp/ccGwpvCv.s:4960   .debug_str:0000000000000424 .LASF7
     /tmp/ccGwpvCv.s:5040   .debug_str:000000000000078c .LASF8
     /tmp/ccGwpvCv.s:4910   .debug_str:0000000000000280 .LASF9
     /tmp/ccGwpvCv.s:4992   .debug_str:0000000000000542 .LASF10
     /tmp/ccGwpvCv.s:5026   .debug_str:00000000000006f2 .LASF11
     /tmp/ccGwpvCv.s:4864   .debug_str:00000000000000e0 .LASF12
     /tmp/ccGwpvCv.s:4834   .debug_str:000000000000000a .LASF13
     /tmp/ccGwpvCv.s:4874   .debug_str:0000000000000132 .LASF14
     /tmp/ccGwpvCv.s:5010   .debug_str:00000000000005a9 .LASF15
     /tmp/ccGwpvCv.s:4880   .debug_str:0000000000000179 .LASF16
     /tmp/ccGwpvCv.s:4922   .debug_str:000000000000030b .LASF18
     /tmp/ccGwpvCv.s:4836   .debug_str:000000000000001a .LASF107
     /tmp/ccGwpvCv.s:4870   .debug_str:0000000000000116 .LASF111
     /tmp/ccGwpvCv.s:4952   .debug_str:00000000000003d3 .LASF38
     /tmp/ccGwpvCv.s:4980   .debug_str:00000000000004de .LASF112
     /tmp/ccGwpvCv.s:4986   .debug_str:0000000000000520 .LASF17
     /tmp/ccGwpvCv.s:5006   .debug_str:0000000000000598 .LASF19
     /tmp/ccGwpvCv.s:5008   .debug_str:00000000000005a2 .LASF20
     /tmp/ccGwpvCv.s:4884   .debug_str:000000000000019e .LASF21
     /tmp/ccGwpvCv.s:4948   .debug_str:00000000000003c0 .LASF22
     /tmp/ccGwpvCv.s:4892   .debug_str:00000000000001e5 .LASF23
     /tmp/ccGwpvCv.s:4914   .debug_str:0000000000000297 .LASF24
     /tmp/ccGwpvCv.s:4946   .debug_str:00000000000003b6 .LASF25
     /tmp/ccGwpvCv.s:4968   .debug_str:0000000000000475 .LASF26
     /tmp/ccGwpvCv.s:4970   .debug_str:000000000000047f .LASF28
     /tmp/ccGwpvCv.s:4940   .debug_str:000000000000039b .LASF27
     /tmp/ccGwpvCv.s:5044   .debug_str:00000000000007bf .LASF29
     /tmp/ccGwpvCv.s:4916   .debug_str:00000000000002a5 .LASF113
     /tmp/ccGwpvCv.s:4860   .debug_str:00000000000000b6 .LASF114
     /tmp/ccGwpvCv.s:4850   .debug_str:000000000000007e .LASF30
     /tmp/ccGwpvCv.s:4854   .debug_str:0000000000000092 .LASF31
     /tmp/ccGwpvCv.s:4832   .debug_str:0000000000000000 .LASF45
     /tmp/ccGwpvCv.s:5062   .debug_str:0000000000000863 .LASF32
     /tmp/ccGwpvCv.s:4896   .debug_str:0000000000000217 .LASF34
     /tmp/ccGwpvCv.s:5004   .debug_str:0000000000000581 .LASF33
     /tmp/ccGwpvCv.s:4988   .debug_str:0000000000000525 .LASF35
     /tmp/ccGwpvCv.s:4902   .debug_str:0000000000000247 .LASF36
     /tmp/ccGwpvCv.s:4908   .debug_str:0000000000000274 .LASF115
     /tmp/ccGwpvCv.s:4928   .debug_str:0000000000000326 .LASF37
     /tmp/ccGwpvCv.s:4852   .debug_str:0000000000000085 .LASF39
     /tmp/ccGwpvCv.s:5018   .debug_str:00000000000005f7 .LASF40
     /tmp/ccGwpvCv.s:5048   .debug_str:00000000000007e7 .LASF41
     /tmp/ccGwpvCv.s:4866   .debug_str:00000000000000f0 .LASF43
     /tmp/ccGwpvCv.s:4972   .debug_str:0000000000000491 .LASF57
     /tmp/ccGwpvCv.s:4966   .debug_str:0000000000000452 .LASF42
     /tmp/ccGwpvCv.s:5032   .debug_str:0000000000000739 .LASF47
     /tmp/ccGwpvCv.s:4844   .debug_str:000000000000004c .LASF44
     /tmp/ccGwpvCv.s:4938   .debug_str:0000000000000385 .LASF62
     /tmp/ccGwpvCv.s:5036   .debug_str:000000000000076d .LASF46
     /tmp/ccGwpvCv.s:5002   .debug_str:0000000000000572 .LASF82
     /tmp/ccGwpvCv.s:4898   .debug_str:000000000000021c .LASF48
     /tmp/ccGwpvCv.s:5052   .debug_str:000000000000080d .LASF49
     /tmp/ccGwpvCv.s:4856   .debug_str:00000000000000a9 .LASF50
     /tmp/ccGwpvCv.s:4862   .debug_str:00000000000000ca .LASF51
     /tmp/ccGwpvCv.s:4912   .debug_str:000000000000028e .LASF52
GAS LISTING /tmp/ccGwpvCv.s 			page 42


     /tmp/ccGwpvCv.s:4996   .debug_str:000000000000055b .LASF53
     /tmp/ccGwpvCv.s:5038   .debug_str:0000000000000774 .LASF54
     /tmp/ccGwpvCv.s:4886   .debug_str:00000000000001a3 .LASF55
     /tmp/ccGwpvCv.s:4976   .debug_str:00000000000004c2 .LASF56
     /tmp/ccGwpvCv.s:4930   .debug_str:0000000000000330 .LASF58
     /tmp/ccGwpvCv.s:4876   .debug_str:000000000000013e .LASF59
     /tmp/ccGwpvCv.s:4932   .debug_str:000000000000034e .LASF60
     /tmp/ccGwpvCv.s:4964   .debug_str:0000000000000444 .LASF61
     /tmp/ccGwpvCv.s:5022   .debug_str:0000000000000618 .LASF63
     /tmp/ccGwpvCv.s:5060   .debug_str:0000000000000852 .LASF64
     /tmp/ccGwpvCv.s:4982   .debug_str:00000000000004f1 .LASF65
     /tmp/ccGwpvCv.s:4868   .debug_str:00000000000000f9 .LASF66
     /tmp/ccGwpvCv.s:5030   .debug_str:0000000000000728 .LASF67
     /tmp/ccGwpvCv.s:4920   .debug_str:00000000000002e0 .LASF68
     /tmp/ccGwpvCv.s:4918   .debug_str:00000000000002b9 .LASF69
     /tmp/ccGwpvCv.s:5034   .debug_str:0000000000000751 .LASF70
     /tmp/ccGwpvCv.s:4838   .debug_str:000000000000001f .LASF71
     /tmp/ccGwpvCv.s:4904   .debug_str:0000000000000252 .LASF72
     /tmp/ccGwpvCv.s:4998   .debug_str:0000000000000568 .LASF73
     /tmp/ccGwpvCv.s:4994   .debug_str:0000000000000551 .LASF74
     /tmp/ccGwpvCv.s:4900   .debug_str:000000000000022d .LASF75
     /tmp/ccGwpvCv.s:217    .text._ZN16ProducerKeyboardD0Ev:0000000000000000 .LFB32
     /tmp/ccGwpvCv.s:257    .text._ZN16ProducerKeyboardD0Ev:000000000000004c .LFE32
     /tmp/ccGwpvCv.s:4211   .debug_loc:0000000000000000 .LLST7
     /tmp/ccGwpvCv.s:233    .text._ZN16ProducerKeyboardD0Ev:0000000000000018 .LBB45
     /tmp/ccGwpvCv.s:241    .text._ZN16ProducerKeyboardD0Ev:000000000000002c .LBE45
     /tmp/ccGwpvCv.s:4229   .debug_loc:000000000000004c .LLST8
     /tmp/ccGwpvCv.s:239    .text._ZN16ProducerKeyboardD0Ev:000000000000002c .LVL18
     /tmp/ccGwpvCv.s:244    .text._ZN16ProducerKeyboardD0Ev:0000000000000038 .LVL19
     /tmp/ccGwpvCv.s:4956   .debug_str:00000000000003fb .LASF76
     /tmp/ccGwpvCv.s:180    .text._ZN16ProducerKeyboardD2Ev:0000000000000000 .LFB30
     /tmp/ccGwpvCv.s:208    .text._ZN16ProducerKeyboardD2Ev:0000000000000034 .LFE30
     /tmp/ccGwpvCv.s:4240   .debug_loc:0000000000000082 .LLST6
     /tmp/ccGwpvCv.s:197    .text._ZN16ProducerKeyboardD2Ev:0000000000000024 .LVL15
     /tmp/ccGwpvCv.s:4990   .debug_str:000000000000052c .LASF77
     /tmp/ccGwpvCv.s:133    .text._ZN12ProducerSyncD0Ev:0000000000000000 .LFB28
     /tmp/ccGwpvCv.s:173    .text._ZN12ProducerSyncD0Ev:000000000000004c .LFE28
     /tmp/ccGwpvCv.s:4254   .debug_loc:00000000000000bb .LLST4
     /tmp/ccGwpvCv.s:149    .text._ZN12ProducerSyncD0Ev:0000000000000018 .LBB42
     /tmp/ccGwpvCv.s:157    .text._ZN12ProducerSyncD0Ev:000000000000002c .LBE42
     /tmp/ccGwpvCv.s:4272   .debug_loc:0000000000000107 .LLST5
     /tmp/ccGwpvCv.s:155    .text._ZN12ProducerSyncD0Ev:000000000000002c .LVL11
     /tmp/ccGwpvCv.s:160    .text._ZN12ProducerSyncD0Ev:0000000000000038 .LVL12
     /tmp/ccGwpvCv.s:4936   .debug_str:000000000000036f .LASF78
     /tmp/ccGwpvCv.s:96     .text._ZN12ProducerSyncD2Ev:0000000000000000 .LFB26
     /tmp/ccGwpvCv.s:124    .text._ZN12ProducerSyncD2Ev:0000000000000034 .LFE26
     /tmp/ccGwpvCv.s:4283   .debug_loc:000000000000013d .LLST3
     /tmp/ccGwpvCv.s:113    .text._ZN12ProducerSyncD2Ev:0000000000000024 .LVL8
     /tmp/ccGwpvCv.s:5046   .debug_str:00000000000007d1 .LASF79
     /tmp/ccGwpvCv.s:49     .text._ZN12ConsumerSyncD0Ev:0000000000000000 .LFB24
     /tmp/ccGwpvCv.s:89     .text._ZN12ConsumerSyncD0Ev:000000000000004c .LFE24
     /tmp/ccGwpvCv.s:4297   .debug_loc:0000000000000176 .LLST1
     /tmp/ccGwpvCv.s:65     .text._ZN12ConsumerSyncD0Ev:0000000000000018 .LBB39
     /tmp/ccGwpvCv.s:73     .text._ZN12ConsumerSyncD0Ev:000000000000002c .LBE39
     /tmp/ccGwpvCv.s:4315   .debug_loc:00000000000001c2 .LLST2
     /tmp/ccGwpvCv.s:71     .text._ZN12ConsumerSyncD0Ev:000000000000002c .LVL4
     /tmp/ccGwpvCv.s:76     .text._ZN12ConsumerSyncD0Ev:0000000000000038 .LVL5
GAS LISTING /tmp/ccGwpvCv.s 			page 43


     /tmp/ccGwpvCv.s:5012   .debug_str:00000000000005bf .LASF80
     /tmp/ccGwpvCv.s:11     .text._ZN12ConsumerSyncD2Ev:0000000000000000 .LFB22
     /tmp/ccGwpvCv.s:40     .text._ZN12ConsumerSyncD2Ev:0000000000000034 .LFE22
     /tmp/ccGwpvCv.s:4326   .debug_loc:00000000000001f8 .LLST0
     /tmp/ccGwpvCv.s:29     .text._ZN12ConsumerSyncD2Ev:0000000000000024 .LVL1
     /tmp/ccGwpvCv.s:4848   .debug_str:0000000000000060 .LASF81
     /tmp/ccGwpvCv.s:4894   .debug_str:00000000000001f4 .LASF83
     /tmp/ccGwpvCv.s:1183   .text:0000000000000604 .LFE20
     /tmp/ccGwpvCv.s:4846   .debug_str:000000000000005a .LASF84
     /tmp/ccGwpvCv.s:4340   .debug_loc:0000000000000231 .LLST29
     /tmp/ccGwpvCv.s:4942   .debug_str:00000000000003a6 .LASF85
     /tmp/ccGwpvCv.s:4351   .debug_loc:0000000000000267 .LLST30
     /tmp/ccGwpvCv.s:4362   .debug_loc:000000000000029d .LLST31
     /tmp/ccGwpvCv.s:4906   .debug_str:000000000000026c .LASF86
     /tmp/ccGwpvCv.s:4373   .debug_loc:00000000000002d3 .LLST32
     /tmp/ccGwpvCv.s:5056   .debug_str:0000000000000830 .LASF87
     /tmp/ccGwpvCv.s:4386   .debug_loc:000000000000030b .LLST33
     /tmp/ccGwpvCv.s:5000   .debug_str:000000000000056d .LASF88
     /tmp/ccGwpvCv.s:4397   .debug_loc:0000000000000341 .LLST34
     /tmp/ccGwpvCv.s:951    .text:0000000000000434 .LBB52
     /tmp/ccGwpvCv.s:1040   .text:00000000000004f4 .LBE52
     /tmp/ccGwpvCv.s:4405   .debug_loc:0000000000000365 .LLST37
     /tmp/ccGwpvCv.s:969    .text:0000000000000458 .LBB53
     /tmp/ccGwpvCv.s:977    .text:0000000000000468 .LBE53
     /tmp/ccGwpvCv.s:4412   .debug_loc:0000000000000388 .LLST38
     /tmp/ccGwpvCv.s:4419   .debug_loc:00000000000003ab .LLST39
     /tmp/ccGwpvCv.s:1025   .text:00000000000004d4 .LBB55
     /tmp/ccGwpvCv.s:1033   .text:00000000000004e4 .LBE55
     /tmp/ccGwpvCv.s:4426   .debug_loc:00000000000003ce .LLST40
     /tmp/ccGwpvCv.s:4433   .debug_loc:00000000000003f1 .LLST41
     /tmp/ccGwpvCv.s:961    .text:0000000000000448 .LVL103
     /tmp/ccGwpvCv.s:990    .text:0000000000000488 .LVL106
     /tmp/ccGwpvCv.s:1017   .text:00000000000004c4 .LVL108
     /tmp/ccGwpvCv.s:1045   .text:00000000000004fc .LBB57
     /tmp/ccGwpvCv.s:1063   .text:000000000000051c .LBE57
     /tmp/ccGwpvCv.s:4440   .debug_loc:0000000000000414 .LLST42
     /tmp/ccGwpvCv.s:1056   .text:0000000000000514 .LVL113
     /tmp/ccGwpvCv.s:1064   .text:000000000000051c .LBB58
     /tmp/ccGwpvCv.s:1091   .text:000000000000054c .LBE58
     /tmp/ccGwpvCv.s:4451   .debug_loc:000000000000044a .LLST43
     /tmp/ccGwpvCv.s:938    .text:000000000000041c .LBB50
     /tmp/ccGwpvCv.s:946    .text:000000000000042c .LBE50
     /tmp/ccGwpvCv.s:4458   .debug_loc:000000000000046d .LLST35
     /tmp/ccGwpvCv.s:4465   .debug_loc:0000000000000490 .LLST36
     /tmp/ccGwpvCv.s:773    .text:000000000000028c .LVL72
     /tmp/ccGwpvCv.s:780    .text:00000000000002a0 .LVL73
     /tmp/ccGwpvCv.s:785    .text:00000000000002ac .LVL74
     /tmp/ccGwpvCv.s:792    .text:00000000000002c0 .LVL76
     /tmp/ccGwpvCv.s:798    .text:00000000000002d0 .LVL77
     /tmp/ccGwpvCv.s:803    .text:00000000000002dc .LVL78
     /tmp/ccGwpvCv.s:810    .text:00000000000002f0 .LVL80
     /tmp/ccGwpvCv.s:817    .text:0000000000000304 .LVL81
     /tmp/ccGwpvCv.s:822    .text:0000000000000314 .LVL82
     /tmp/ccGwpvCv.s:829    .text:0000000000000328 .LVL83
     /tmp/ccGwpvCv.s:834    .text:0000000000000338 .LVL84
     /tmp/ccGwpvCv.s:843    .text:000000000000034c .LVL85
     /tmp/ccGwpvCv.s:849    .text:000000000000035c .LVL86
GAS LISTING /tmp/ccGwpvCv.s 			page 44


     /tmp/ccGwpvCv.s:858    .text:0000000000000370 .LVL87
     /tmp/ccGwpvCv.s:866    .text:0000000000000384 .LVL88
     /tmp/ccGwpvCv.s:877    .text:0000000000000398 .LVL90
     /tmp/ccGwpvCv.s:884    .text:00000000000003a8 .LVL92
     /tmp/ccGwpvCv.s:930    .text:000000000000040c .LVL98
     /tmp/ccGwpvCv.s:950    .text:0000000000000434 .LVL101
     /tmp/ccGwpvCv.s:1044   .text:00000000000004fc .LVL111
     /tmp/ccGwpvCv.s:1100   .text:0000000000000560 .LVL120
     /tmp/ccGwpvCv.s:1119   .text:0000000000000588 .LVL122
     /tmp/ccGwpvCv.s:1122   .text:0000000000000594 .LVL123
     /tmp/ccGwpvCv.s:1164   .text:00000000000005dc .LVL128
     /tmp/ccGwpvCv.s:1168   .text:00000000000005e8 .LVL129
     /tmp/ccGwpvCv.s:1176   .text:00000000000005f8 .LVL131
     /tmp/ccGwpvCv.s:1180   .text:0000000000000604 .LVL132
     /tmp/ccGwpvCv.s:533    .text:0000000000000154 .LFB19
     /tmp/ccGwpvCv.s:672    .text:0000000000000248 .LFE19
     /tmp/ccGwpvCv.s:4472   .debug_loc:00000000000004b3 .LLST20
     /tmp/ccGwpvCv.s:4490   .debug_loc:00000000000004ff .LLST21
     /tmp/ccGwpvCv.s:4508   .debug_loc:000000000000054b .LLST22
     /tmp/ccGwpvCv.s:4526   .debug_loc:0000000000000597 .LLST23
     /tmp/ccGwpvCv.s:4550   .debug_loc:0000000000000607 .LLST24
     /tmp/ccGwpvCv.s:567    .text:000000000000018c .LVL54
     /tmp/ccGwpvCv.s:575    .text:000000000000019c .LVL56
     /tmp/ccGwpvCv.s:587    .text:00000000000001b4 .LVL57
     /tmp/ccGwpvCv.s:598    .text:00000000000001c8 .LVL60
     /tmp/ccGwpvCv.s:620    .text:00000000000001ec .LBB49
     /tmp/ccGwpvCv.s:635    .text:0000000000000208 .LBE49
     /tmp/ccGwpvCv.s:4557   .debug_loc:000000000000062a .LLST25
     /tmp/ccGwpvCv.s:627    .text:00000000000001fc .LVL62
     /tmp/ccGwpvCv.s:633    .text:0000000000000208 .LVL64
     /tmp/ccGwpvCv.s:643    .text:0000000000000218 .LVL65
     /tmp/ccGwpvCv.s:650    .text:0000000000000228 .LVL66
     /tmp/ccGwpvCv.s:679    .text._ZN12ConsumerSync3runEv:0000000000000000 .LFB18
     /tmp/ccGwpvCv.s:706    .text._ZN12ConsumerSync3runEv:000000000000002c .LFE18
     /tmp/ccGwpvCv.s:4564   .debug_loc:000000000000064d .LLST26
     /tmp/ccGwpvCv.s:695    .text._ZN12ConsumerSync3runEv:000000000000001c .LVL71
     /tmp/ccGwpvCv.s:5042   .debug_str:000000000000079c .LASF89
     /tmp/ccGwpvCv.s:410    .text:00000000000000c0 .LFB14
     /tmp/ccGwpvCv.s:492    .text:0000000000000154 .LFE14
     /tmp/ccGwpvCv.s:4578   .debug_loc:0000000000000686 .LLST15
     /tmp/ccGwpvCv.s:4592   .debug_loc:00000000000006bf .LLST16
     /tmp/ccGwpvCv.s:4610   .debug_loc:000000000000070b .LLST17
     /tmp/ccGwpvCv.s:4628   .debug_loc:0000000000000757 .LLST18
     /tmp/ccGwpvCv.s:438    .text:00000000000000ec .LVL42
     /tmp/ccGwpvCv.s:451    .text:000000000000010c .LVL43
     /tmp/ccGwpvCv.s:475    .text:000000000000013c .LVL46
     /tmp/ccGwpvCv.s:499    .text._ZN12ProducerSync3runEv:0000000000000000 .LFB13
     /tmp/ccGwpvCv.s:526    .text._ZN12ProducerSync3runEv:000000000000002c .LFE13
     /tmp/ccGwpvCv.s:4652   .debug_loc:00000000000007c7 .LLST19
     /tmp/ccGwpvCv.s:515    .text._ZN12ProducerSync3runEv:000000000000001c .LVL50
     /tmp/ccGwpvCv.s:4954   .debug_str:00000000000003d8 .LASF90
     /tmp/ccGwpvCv.s:264    .text:0000000000000000 .LFB9
     /tmp/ccGwpvCv.s:369    .text:00000000000000c0 .LFE9
     /tmp/ccGwpvCv.s:4666   .debug_loc:0000000000000800 .LLST9
     /tmp/ccGwpvCv.s:4684   .debug_loc:000000000000084c .LLST10
     /tmp/ccGwpvCv.s:4702   .debug_loc:0000000000000898 .LLST11
     /tmp/ccGwpvCv.s:4720   .debug_loc:00000000000008e4 .LLST12
GAS LISTING /tmp/ccGwpvCv.s 			page 45


     /tmp/ccGwpvCv.s:4731   .debug_loc:000000000000091a .LLST13
     /tmp/ccGwpvCv.s:296    .text:0000000000000034 .LVL24
     /tmp/ccGwpvCv.s:302    .text:000000000000003c .LVL25
     /tmp/ccGwpvCv.s:313    .text:0000000000000054 .LVL28
     /tmp/ccGwpvCv.s:344    .text:0000000000000098 .LVL32
     /tmp/ccGwpvCv.s:349    .text:00000000000000a4 .LVL33
     /tmp/ccGwpvCv.s:376    .text._ZN16ProducerKeyboard3runEv:0000000000000000 .LFB8
     /tmp/ccGwpvCv.s:403    .text._ZN16ProducerKeyboard3runEv:000000000000002c .LFE8
     /tmp/ccGwpvCv.s:4755   .debug_loc:000000000000098a .LLST14
     /tmp/ccGwpvCv.s:392    .text._ZN16ProducerKeyboard3runEv:000000000000001c .LVL38
     /tmp/ccGwpvCv.s:5028   .debug_str:0000000000000701 .LASF91
     /tmp/ccGwpvCv.s:4882   .debug_str:000000000000018f .LASF92
     /tmp/ccGwpvCv.s:5066   .debug_str:00000000000008a4 .LASF93
     /tmp/ccGwpvCv.s:5016   .debug_str:00000000000005e7 .LASF94
     /tmp/ccGwpvCv.s:4944   .debug_str:00000000000003b0 .LASF95
     /tmp/ccGwpvCv.s:5050   .debug_str:0000000000000800 .LASF96
     /tmp/ccGwpvCv.s:5058   .debug_str:000000000000083f .LASF97
     /tmp/ccGwpvCv.s:4840   .debug_str:0000000000000031 .LASF98
     /tmp/ccGwpvCv.s:5054   .debug_str:0000000000000820 .LASF99
     /tmp/ccGwpvCv.s:4888   .debug_str:00000000000001bc .LASF100
     /tmp/ccGwpvCv.s:4974   .debug_str:00000000000004af .LASF101
     /tmp/ccGwpvCv.s:4924   .debug_str:0000000000000313 .LASF102
     /tmp/ccGwpvCv.s:4958   .debug_str:0000000000000415 .LASF103
     /tmp/ccGwpvCv.s:4872   .debug_str:0000000000000129 .LASF104
     /tmp/ccGwpvCv.s:4842   .debug_str:000000000000003d .LASF116
     /tmp/ccGwpvCv.s:4878   .debug_str:0000000000000161 .LASF117
     /tmp/ccGwpvCv.s:5020   .debug_str:000000000000060f .LASF105
     /tmp/ccGwpvCv.s:4934   .debug_str:0000000000000366 .LASF106
     /tmp/ccGwpvCv.s:220    .text._ZN16ProducerKeyboardD0Ev:0000000000000000 .LVL16
     /tmp/ccGwpvCv.s:252    .text._ZN16ProducerKeyboardD0Ev:0000000000000044 .LVL20
     /tmp/ccGwpvCv.s:232    .text._ZN16ProducerKeyboardD0Ev:0000000000000018 .LVL17
     /tmp/ccGwpvCv.s:183    .text._ZN16ProducerKeyboardD2Ev:0000000000000000 .LVL14
     /tmp/ccGwpvCv.s:136    .text._ZN12ProducerSyncD0Ev:0000000000000000 .LVL9
     /tmp/ccGwpvCv.s:168    .text._ZN12ProducerSyncD0Ev:0000000000000044 .LVL13
     /tmp/ccGwpvCv.s:148    .text._ZN12ProducerSyncD0Ev:0000000000000018 .LVL10
     /tmp/ccGwpvCv.s:99     .text._ZN12ProducerSyncD2Ev:0000000000000000 .LVL7
     /tmp/ccGwpvCv.s:52     .text._ZN12ConsumerSyncD0Ev:0000000000000000 .LVL2
     /tmp/ccGwpvCv.s:84     .text._ZN12ConsumerSyncD0Ev:0000000000000044 .LVL6
     /tmp/ccGwpvCv.s:64     .text._ZN12ConsumerSyncD0Ev:0000000000000018 .LVL3
     /tmp/ccGwpvCv.s:15     .text._ZN12ConsumerSyncD2Ev:0000000000000000 .LVL0
     /tmp/ccGwpvCv.s:805    .text:00000000000002e0 .LVL79
     /tmp/ccGwpvCv.s:880    .text:000000000000039c .LVL91
     /tmp/ccGwpvCv.s:1156   .text:00000000000005cc .LVL126
     /tmp/ccGwpvCv.s:1160   .text:00000000000005d0 .LVL127
     /tmp/ccGwpvCv.s:787    .text:00000000000002b0 .LVL75
     /tmp/ccGwpvCv.s:1140   .text:00000000000005ac .LVL125
     /tmp/ccGwpvCv.s:1172   .text:00000000000005ec .LVL130
     /tmp/ccGwpvCv.s:872    .text:000000000000038c .LVL89
     /tmp/ccGwpvCv.s:1126   .text:0000000000000598 .LVL124
     /tmp/ccGwpvCv.s:896    .text:00000000000003c4 .LVL94
     /tmp/ccGwpvCv.s:909    .text:00000000000003e0 .LVL96
     /tmp/ccGwpvCv.s:944    .text:000000000000042c .LVL100
     /tmp/ccGwpvCv.s:911    .text:00000000000003e4 .LVL97
     /tmp/ccGwpvCv.s:955    .text:000000000000043c .LVL102
     /tmp/ccGwpvCv.s:1048   .text:0000000000000500 .LVL112
     /tmp/ccGwpvCv.s:968    .text:0000000000000458 .LVL104
     /tmp/ccGwpvCv.s:975    .text:0000000000000468 .LVL105
GAS LISTING /tmp/ccGwpvCv.s 			page 46


     /tmp/ccGwpvCv.s:1024   .text:00000000000004d4 .LVL109
     /tmp/ccGwpvCv.s:1031   .text:00000000000004e4 .LVL110
     /tmp/ccGwpvCv.s:1059   .text:0000000000000518 .LVL114
     /tmp/ccGwpvCv.s:1061   .text:000000000000051c .LVL115
     /tmp/ccGwpvCv.s:1067   .text:0000000000000520 .LVL116
     /tmp/ccGwpvCv.s:1069   .text:0000000000000524 .LVL117
     /tmp/ccGwpvCv.s:937    .text:000000000000041c .LVL99
     /tmp/ccGwpvCv.s:536    .text:0000000000000154 .LVL51
     /tmp/ccGwpvCv.s:561    .text:0000000000000184 .LVL53
     /tmp/ccGwpvCv.s:664    .text:000000000000023c .LVL68
     /tmp/ccGwpvCv.s:661    .text:0000000000000238 .LVL67
     /tmp/ccGwpvCv.s:556    .text:000000000000017c .LVL52
     /tmp/ccGwpvCv.s:569    .text:0000000000000190 .LVL55
     /tmp/ccGwpvCv.s:592    .text:00000000000001bc .LVL58
     /tmp/ccGwpvCv.s:614    .text:00000000000001e4 .LVL61
     /tmp/ccGwpvCv.s:667    .text:0000000000000240 .LVL69
     /tmp/ccGwpvCv.s:596    .text:00000000000001c0 .LVL59
     /tmp/ccGwpvCv.s:631    .text:0000000000000200 .LVL63
     /tmp/ccGwpvCv.s:682    .text._ZN12ConsumerSync3runEv:0000000000000000 .LVL70
     /tmp/ccGwpvCv.s:413    .text:00000000000000c0 .LVL39
     /tmp/ccGwpvCv.s:433    .text:00000000000000e4 .LVL41
     /tmp/ccGwpvCv.s:484    .text:0000000000000148 .LVL47
     /tmp/ccGwpvCv.s:428    .text:00000000000000dc .LVL40
     /tmp/ccGwpvCv.s:456    .text:0000000000000114 .LVL44
     /tmp/ccGwpvCv.s:469    .text:0000000000000130 .LVL45
     /tmp/ccGwpvCv.s:487    .text:000000000000014c .LVL48
     /tmp/ccGwpvCv.s:502    .text._ZN12ProducerSync3runEv:0000000000000000 .LVL49
     /tmp/ccGwpvCv.s:267    .text:0000000000000000 .LVL21
     /tmp/ccGwpvCv.s:291    .text:000000000000002c .LVL23
     /tmp/ccGwpvCv.s:364    .text:00000000000000b8 .LVL36
     /tmp/ccGwpvCv.s:358    .text:00000000000000b0 .LVL34
     /tmp/ccGwpvCv.s:285    .text:0000000000000024 .LVL22
     /tmp/ccGwpvCv.s:304    .text:0000000000000040 .LVL26
     /tmp/ccGwpvCv.s:311    .text:000000000000004c .LVL27
     /tmp/ccGwpvCv.s:331    .text:0000000000000078 .LVL30
     /tmp/ccGwpvCv.s:342    .text:0000000000000090 .LVL31
     /tmp/ccGwpvCv.s:318    .text:000000000000005c .LVL29
     /tmp/ccGwpvCv.s:361    .text:00000000000000b4 .LVL35
     /tmp/ccGwpvCv.s:379    .text._ZN16ProducerKeyboard3runEv:0000000000000000 .LVL37
     /tmp/ccGwpvCv.s:1274   .debug_info:0000000000000000 .Ldebug_info0
     /tmp/ccGwpvCv.s:5      .text:0000000000000000 .Ltext0
     /tmp/ccGwpvCv.s:1267   .text:0000000000000604 .Letext0
     /tmp/ccGwpvCv.s:563    .text:0000000000000184 .LBB47
     /tmp/ccGwpvCv.s:577    .text:000000000000019c .LBE47
     /tmp/ccGwpvCv.s:582    .text:00000000000001a8 .LBB48
     /tmp/ccGwpvCv.s:619    .text:00000000000001ec .LBE48
     /tmp/ccGwpvCv.s:1186   .gcc_except_table:0000000000000000 .LLSDA20
                           .group:0000000000000000 _ZN12ConsumerSyncD5Ev
                           .group:0000000000000000 _ZN12ProducerSyncD5Ev
                           .group:0000000000000000 _ZN16ProducerKeyboardD5Ev

UNDEFINED SYMBOLS
_ZN6ThreadD2Ev
_ZdlPv
_ZN6Thread8dispatchEv
_Z4getcv
_ZN9BufferCPP3putEi
GAS LISTING /tmp/ccGwpvCv.s 			page 47


_ZN9Semaphore6signalEv
_Z4putcc
_ZN9BufferCPP3getEv
_ZN7Console4putcEc
_ZN9BufferCPP6getCntEv
_Z11printStringPKc
_Z9getStringPci
_Z11stringToIntPKc
_Z8printIntiii
_Znwm
_ZN9BufferCPPC1Ei
_ZN9SemaphoreC1Ej
_ZN6Thread5startEv
_ZN9Semaphore4waitEv
_ZN9BufferCPPD1Ev
_Unwind_Resume
__gxx_personality_v0
