GAS LISTING /tmp/ccxZXmV1.s 			page 1


   1              		.file	"ConsumerProducer_CPP_API_test.cpp"
   2              		.option pic
   3              		.option norelax
   4              		.text
   5              	.Ltext0:
   6              		.section	.text._ZN8Consumer3runEv,"axG",@progbits,_ZN8Consumer3runEv,comdat
   7              		.align	2
   8              		.weak	_ZN8Consumer3runEv
  10              	_ZN8Consumer3runEv:
  11              	.LFB16:
  12              		.file 1 "test/ConsumerProducer_CPP_API_test.cpp"
   1:test/ConsumerProducer_CPP_API_test.cpp **** #include "../h/syscall_cpp.hpp"
   2:test/ConsumerProducer_CPP_API_test.cpp **** 
   3:test/ConsumerProducer_CPP_API_test.cpp **** #include "buffer_CPP_API.hpp"
   4:test/ConsumerProducer_CPP_API_test.cpp **** #include "printing.hpp"
   5:test/ConsumerProducer_CPP_API_test.cpp **** 
   6:test/ConsumerProducer_CPP_API_test.cpp **** 
   7:test/ConsumerProducer_CPP_API_test.cpp **** static Semaphore *waitForAll;
   8:test/ConsumerProducer_CPP_API_test.cpp **** 
   9:test/ConsumerProducer_CPP_API_test.cpp **** struct thread_data {
  10:test/ConsumerProducer_CPP_API_test.cpp ****     int id;
  11:test/ConsumerProducer_CPP_API_test.cpp ****     BufferCPP *buffer;
  12:test/ConsumerProducer_CPP_API_test.cpp ****     Semaphore *sem;
  13:test/ConsumerProducer_CPP_API_test.cpp **** };
  14:test/ConsumerProducer_CPP_API_test.cpp **** 
  15:test/ConsumerProducer_CPP_API_test.cpp **** static volatile int threadEnd = 0;
  16:test/ConsumerProducer_CPP_API_test.cpp **** 
  17:test/ConsumerProducer_CPP_API_test.cpp **** class ProducerKeyborad : public Thread {
  18:test/ConsumerProducer_CPP_API_test.cpp ****     thread_data *td;
  19:test/ConsumerProducer_CPP_API_test.cpp **** public:
  20:test/ConsumerProducer_CPP_API_test.cpp ****     ProducerKeyborad(thread_data *_td) : Thread(), td(_td) {}
  21:test/ConsumerProducer_CPP_API_test.cpp **** 
  22:test/ConsumerProducer_CPP_API_test.cpp ****     void run() override {
  23:test/ConsumerProducer_CPP_API_test.cpp ****         int key;
  24:test/ConsumerProducer_CPP_API_test.cpp ****         int i = 0;
  25:test/ConsumerProducer_CPP_API_test.cpp ****         while ((key = getc()) != 0x1b) {
  26:test/ConsumerProducer_CPP_API_test.cpp ****             td->buffer->put(key);
  27:test/ConsumerProducer_CPP_API_test.cpp ****             i++;
  28:test/ConsumerProducer_CPP_API_test.cpp ****         }
  29:test/ConsumerProducer_CPP_API_test.cpp **** 
  30:test/ConsumerProducer_CPP_API_test.cpp ****         threadEnd = 1;
  31:test/ConsumerProducer_CPP_API_test.cpp ****         td->buffer->put('!');
  32:test/ConsumerProducer_CPP_API_test.cpp **** 
  33:test/ConsumerProducer_CPP_API_test.cpp ****         td->sem->signal();
  34:test/ConsumerProducer_CPP_API_test.cpp ****     }
  35:test/ConsumerProducer_CPP_API_test.cpp **** };
  36:test/ConsumerProducer_CPP_API_test.cpp **** 
  37:test/ConsumerProducer_CPP_API_test.cpp **** class Producer : public Thread {
  38:test/ConsumerProducer_CPP_API_test.cpp ****     thread_data *td;
  39:test/ConsumerProducer_CPP_API_test.cpp **** public:
  40:test/ConsumerProducer_CPP_API_test.cpp ****     Producer(thread_data *_td) : Thread(), td(_td) {}
  41:test/ConsumerProducer_CPP_API_test.cpp **** 
  42:test/ConsumerProducer_CPP_API_test.cpp ****     void run() override {
  43:test/ConsumerProducer_CPP_API_test.cpp ****         int i = 0;
  44:test/ConsumerProducer_CPP_API_test.cpp ****         while (!threadEnd) {
  45:test/ConsumerProducer_CPP_API_test.cpp ****             td->buffer->put(td->id + '0');
  46:test/ConsumerProducer_CPP_API_test.cpp ****             i++;
GAS LISTING /tmp/ccxZXmV1.s 			page 2


  47:test/ConsumerProducer_CPP_API_test.cpp ****             Thread::sleep((i + td->id) % 5);
  48:test/ConsumerProducer_CPP_API_test.cpp ****         }
  49:test/ConsumerProducer_CPP_API_test.cpp **** 
  50:test/ConsumerProducer_CPP_API_test.cpp ****         td->sem->signal();
  51:test/ConsumerProducer_CPP_API_test.cpp ****     }
  52:test/ConsumerProducer_CPP_API_test.cpp **** };
  53:test/ConsumerProducer_CPP_API_test.cpp **** 
  54:test/ConsumerProducer_CPP_API_test.cpp **** class Consumer : public Thread {
  55:test/ConsumerProducer_CPP_API_test.cpp ****     thread_data *td;
  56:test/ConsumerProducer_CPP_API_test.cpp **** public:
  57:test/ConsumerProducer_CPP_API_test.cpp ****     Consumer(thread_data *_td) : Thread(), td(_td) {}
  58:test/ConsumerProducer_CPP_API_test.cpp **** 
  59:test/ConsumerProducer_CPP_API_test.cpp ****     void run() override {
  13              		.loc 1 59 10
  14              		.cfi_startproc
  15              	.LVL0:
  16 0000 130101FD 		addi	sp,sp,-48
  17              		.cfi_def_cfa_offset 48
  18 0004 23341102 		sd	ra,40(sp)
  19 0008 23308102 		sd	s0,32(sp)
  20 000c 233C9100 		sd	s1,24(sp)
  21 0010 23382101 		sd	s2,16(sp)
  22 0014 23343101 		sd	s3,8(sp)
  23              		.cfi_offset 1, -8
  24              		.cfi_offset 8, -16
  25              		.cfi_offset 9, -24
  26              		.cfi_offset 18, -32
  27              		.cfi_offset 19, -40
  28 0018 13040103 		addi	s0,sp,48
  29              		.cfi_def_cfa 8, 0
  30 001c 13090500 		mv	s2,a0
  60:test/ConsumerProducer_CPP_API_test.cpp ****         int i = 0;
  31              		.loc 1 60 9
  32              	.LVL1:
  33              		.loc 1 60 13 is_stmt 0
  34 0020 93090000 		li	s3,0
  35 0024 6F000001 		j	.L2
  36              	.LVL2:
  37              	.L7:
  38              	.LBB38:
  61:test/ConsumerProducer_CPP_API_test.cpp ****         while (!threadEnd) {
  62:test/ConsumerProducer_CPP_API_test.cpp ****             int key = td->buffer->get();
  63:test/ConsumerProducer_CPP_API_test.cpp ****             i++;
  64:test/ConsumerProducer_CPP_API_test.cpp **** 
  65:test/ConsumerProducer_CPP_API_test.cpp ****             Console::putc(key);
  66:test/ConsumerProducer_CPP_API_test.cpp **** 
  67:test/ConsumerProducer_CPP_API_test.cpp ****             if (i % 80 == 0) {
  68:test/ConsumerProducer_CPP_API_test.cpp ****                 Console::putc('\n');
  39              		.loc 1 68 17 is_stmt 1
  40              		.loc 1 68 30 is_stmt 0
  41 0028 1305A000 		li	a0,10
  42 002c 97000000 		call	_ZN7Console4putcEc@plt
  42      E7800000 
  43              	.LVL3:
  44              	.L2:
  45              	.LBE38:
  61:test/ConsumerProducer_CPP_API_test.cpp ****         while (!threadEnd) {
GAS LISTING /tmp/ccxZXmV1.s 			page 3


  46              		.loc 1 61 9 is_stmt 1
  61:test/ConsumerProducer_CPP_API_test.cpp ****         while (!threadEnd) {
  47              		.loc 1 61 16
  48 0034 97070000 		lw	a5,.LANCHOR0
  48      83A70700 
  49 003c 639A0704 		bnez	a5,.L3
  50              	.LBB39:
  62:test/ConsumerProducer_CPP_API_test.cpp ****             i++;
  51              		.loc 1 62 13
  62:test/ConsumerProducer_CPP_API_test.cpp ****             i++;
  52              		.loc 1 62 23 is_stmt 0
  53 0040 83370902 		ld	a5,32(s2)
  62:test/ConsumerProducer_CPP_API_test.cpp ****             i++;
  54              		.loc 1 62 38
  55 0044 03B58700 		ld	a0,8(a5)
  56 0048 97000000 		call	_ZN9BufferCPP3getEv@plt
  56      E7800000 
  57              	.LVL4:
  63:test/ConsumerProducer_CPP_API_test.cpp **** 
  58              		.loc 1 63 13 is_stmt 1
  63:test/ConsumerProducer_CPP_API_test.cpp **** 
  59              		.loc 1 63 14 is_stmt 0
  60 0050 9B841900 		addiw	s1,s3,1
  61 0054 9B890400 		sext.w	s3,s1
  62              	.LVL5:
  65:test/ConsumerProducer_CPP_API_test.cpp **** 
  63              		.loc 1 65 13 is_stmt 1
  65:test/ConsumerProducer_CPP_API_test.cpp **** 
  64              		.loc 1 65 26 is_stmt 0
  65 0058 1375F50F 		andi	a0,a0,0xff
  66              	.LVL6:
  67 005c 97000000 		call	_ZN7Console4putcEc@plt
  67      E7800000 
  68              	.LVL7:
  67:test/ConsumerProducer_CPP_API_test.cpp ****                 Console::putc('\n');
  69              		.loc 1 67 13 is_stmt 1
  67:test/ConsumerProducer_CPP_API_test.cpp ****                 Console::putc('\n');
  70              		.loc 1 67 19 is_stmt 0
  71 0064 93070005 		li	a5,80
  72 0068 BBE4F402 		remw	s1,s1,a5
  73              	.LVL8:
  67:test/ConsumerProducer_CPP_API_test.cpp ****                 Console::putc('\n');
  74              		.loc 1 67 13
  75 006c E39404FC 		bnez	s1,.L2
  76 0070 6FF09FFB 		j	.L7
  77              	.L8:
  78              	.LBE39:
  79              	.LBB40:
  69:test/ConsumerProducer_CPP_API_test.cpp ****             }
  70:test/ConsumerProducer_CPP_API_test.cpp ****         }
  71:test/ConsumerProducer_CPP_API_test.cpp **** 
  72:test/ConsumerProducer_CPP_API_test.cpp ****         while (td->buffer->getCnt() > 0) {
  73:test/ConsumerProducer_CPP_API_test.cpp ****             int key = td->buffer->get();
  80              		.loc 1 73 13 is_stmt 1
  81              		.loc 1 73 23 is_stmt 0
  82 0074 83370902 		ld	a5,32(s2)
  83              		.loc 1 73 38
GAS LISTING /tmp/ccxZXmV1.s 			page 4


  84 0078 03B58700 		ld	a0,8(a5)
  85 007c 97000000 		call	_ZN9BufferCPP3getEv@plt
  85      E7800000 
  86              	.LVL9:
  74:test/ConsumerProducer_CPP_API_test.cpp ****             Console::putc(key);
  87              		.loc 1 74 13 is_stmt 1
  88              		.loc 1 74 26 is_stmt 0
  89 0084 1375F50F 		andi	a0,a0,0xff
  90              	.LVL10:
  91 0088 97000000 		call	_ZN7Console4putcEc@plt
  91      E7800000 
  92              	.LVL11:
  93              	.L3:
  94              	.LBE40:
  72:test/ConsumerProducer_CPP_API_test.cpp ****             int key = td->buffer->get();
  95              		.loc 1 72 9 is_stmt 1
  72:test/ConsumerProducer_CPP_API_test.cpp ****             int key = td->buffer->get();
  96              		.loc 1 72 37
  72:test/ConsumerProducer_CPP_API_test.cpp ****             int key = td->buffer->get();
  97              		.loc 1 72 16 is_stmt 0
  98 0090 83370902 		ld	a5,32(s2)
  72:test/ConsumerProducer_CPP_API_test.cpp ****             int key = td->buffer->get();
  99              		.loc 1 72 34
 100 0094 03B58700 		ld	a0,8(a5)
 101 0098 97000000 		call	_ZN9BufferCPP6getCntEv@plt
 101      E7800000 
 102              	.LVL12:
  72:test/ConsumerProducer_CPP_API_test.cpp ****             int key = td->buffer->get();
 103              		.loc 1 72 37
 104 00a0 E34AA0FC 		bgtz	a0,.L8
  75:test/ConsumerProducer_CPP_API_test.cpp ****         }
  76:test/ConsumerProducer_CPP_API_test.cpp **** 
  77:test/ConsumerProducer_CPP_API_test.cpp ****         td->sem->signal();
 105              		.loc 1 77 9 is_stmt 1
 106 00a4 83370902 		ld	a5,32(s2)
 107              		.loc 1 77 24 is_stmt 0
 108 00a8 03B50701 		ld	a0,16(a5)
 109 00ac 97000000 		call	_ZN9Semaphore6signalEv@plt
 109      E7800000 
 110              	.LVL13:
  78:test/ConsumerProducer_CPP_API_test.cpp ****     }
 111              		.loc 1 78 5
 112 00b4 83308102 		ld	ra,40(sp)
 113              		.cfi_restore 1
 114 00b8 03340102 		ld	s0,32(sp)
 115              		.cfi_restore 8
 116              		.cfi_def_cfa 2, 48
 117 00bc 83348101 		ld	s1,24(sp)
 118              		.cfi_restore 9
 119 00c0 03390101 		ld	s2,16(sp)
 120              		.cfi_restore 18
 121              	.LVL14:
 122 00c4 83398100 		ld	s3,8(sp)
 123              		.cfi_restore 19
 124              	.LVL15:
 125 00c8 13010103 		addi	sp,sp,48
 126              		.cfi_def_cfa_offset 0
GAS LISTING /tmp/ccxZXmV1.s 			page 5


 127 00cc 67800000 		jr	ra
 128              		.cfi_endproc
 129              	.LFE16:
 131              		.section	.text._ZN8ConsumerD2Ev,"axG",@progbits,_ZN8ConsumerD5Ev,comdat
 132              		.align	2
 133              		.weak	_ZN8ConsumerD2Ev
 135              	_ZN8ConsumerD2Ev:
 136              	.LFB19:
  54:test/ConsumerProducer_CPP_API_test.cpp ****     thread_data *td;
 137              		.loc 1 54 7 is_stmt 1
 138              		.cfi_startproc
 139              	.LVL16:
 140 0000 130101FF 		addi	sp,sp,-16
 141              		.cfi_def_cfa_offset 16
 142 0004 23341100 		sd	ra,8(sp)
 143 0008 23308100 		sd	s0,0(sp)
 144              		.cfi_offset 1, -8
 145              		.cfi_offset 8, -16
 146 000c 13040101 		addi	s0,sp,16
 147              		.cfi_def_cfa 8, 0
 148              	.LBB41:
  54:test/ConsumerProducer_CPP_API_test.cpp ****     thread_data *td;
 149              		.loc 1 54 7 is_stmt 0
 150 0010 97070000 		lla	a5,_ZTV8Consumer+16
 150      93870700 
 151 0018 2330F500 		sd	a5,0(a0)
 152 001c 97000000 		call	_ZN6ThreadD2Ev@plt
 152      E7800000 
 153              	.LVL17:
 154              	.LBE41:
 155 0024 83308100 		ld	ra,8(sp)
 156              		.cfi_restore 1
 157 0028 03340100 		ld	s0,0(sp)
 158              		.cfi_restore 8
 159              		.cfi_def_cfa 2, 16
 160 002c 13010101 		addi	sp,sp,16
 161              		.cfi_def_cfa_offset 0
 162 0030 67800000 		jr	ra
 163              		.cfi_endproc
 164              	.LFE19:
 166              		.weak	_ZN8ConsumerD1Ev
 167              		.set	_ZN8ConsumerD1Ev,_ZN8ConsumerD2Ev
 168              		.section	.text._ZN8ConsumerD0Ev,"axG",@progbits,_ZN8ConsumerD5Ev,comdat
 169              		.align	2
 170              		.weak	_ZN8ConsumerD0Ev
 172              	_ZN8ConsumerD0Ev:
 173              	.LFB21:
  54:test/ConsumerProducer_CPP_API_test.cpp ****     thread_data *td;
 174              		.loc 1 54 7 is_stmt 1
 175              		.cfi_startproc
 176              	.LVL18:
 177 0000 130101FE 		addi	sp,sp,-32
 178              		.cfi_def_cfa_offset 32
 179 0004 233C1100 		sd	ra,24(sp)
 180 0008 23388100 		sd	s0,16(sp)
 181 000c 23349100 		sd	s1,8(sp)
 182              		.cfi_offset 1, -8
GAS LISTING /tmp/ccxZXmV1.s 			page 6


 183              		.cfi_offset 8, -16
 184              		.cfi_offset 9, -24
 185 0010 13040102 		addi	s0,sp,32
 186              		.cfi_def_cfa 8, 0
 187 0014 93040500 		mv	s1,a0
 188              	.LVL19:
 189              	.LBB42:
 190              	.LBB43:
  54:test/ConsumerProducer_CPP_API_test.cpp ****     thread_data *td;
 191              		.loc 1 54 7 is_stmt 0
 192 0018 97070000 		lla	a5,_ZTV8Consumer+16
 192      93870700 
 193 0020 2330F500 		sd	a5,0(a0)
 194 0024 97000000 		call	_ZN6ThreadD2Ev@plt
 194      E7800000 
 195              	.LVL20:
 196              	.LBE43:
 197              	.LBE42:
 198 002c 13850400 		mv	a0,s1
 199 0030 97000000 		call	_ZdlPv@plt
 199      E7800000 
 200              	.LVL21:
 201 0038 83308101 		ld	ra,24(sp)
 202              		.cfi_restore 1
 203 003c 03340101 		ld	s0,16(sp)
 204              		.cfi_restore 8
 205              		.cfi_def_cfa 2, 32
 206 0040 83348100 		ld	s1,8(sp)
 207              		.cfi_restore 9
 208              	.LVL22:
 209 0044 13010102 		addi	sp,sp,32
 210              		.cfi_def_cfa_offset 0
 211 0048 67800000 		jr	ra
 212              		.cfi_endproc
 213              	.LFE21:
 215              		.section	.text._ZN16ProducerKeyboradD2Ev,"axG",@progbits,_ZN16ProducerKeyboradD5Ev,comdat
 216              		.align	2
 217              		.weak	_ZN16ProducerKeyboradD2Ev
 219              	_ZN16ProducerKeyboradD2Ev:
 220              	.LFB27:
  17:test/ConsumerProducer_CPP_API_test.cpp ****     thread_data *td;
 221              		.loc 1 17 7 is_stmt 1
 222              		.cfi_startproc
 223              	.LVL23:
 224 0000 130101FF 		addi	sp,sp,-16
 225              		.cfi_def_cfa_offset 16
 226 0004 23341100 		sd	ra,8(sp)
 227 0008 23308100 		sd	s0,0(sp)
 228              		.cfi_offset 1, -8
 229              		.cfi_offset 8, -16
 230 000c 13040101 		addi	s0,sp,16
 231              		.cfi_def_cfa 8, 0
 232              	.LBB44:
  17:test/ConsumerProducer_CPP_API_test.cpp ****     thread_data *td;
 233              		.loc 1 17 7 is_stmt 0
 234 0010 97070000 		lla	a5,_ZTV16ProducerKeyborad+16
 234      93870700 
GAS LISTING /tmp/ccxZXmV1.s 			page 7


 235 0018 2330F500 		sd	a5,0(a0)
 236 001c 97000000 		call	_ZN6ThreadD2Ev@plt
 236      E7800000 
 237              	.LVL24:
 238              	.LBE44:
 239 0024 83308100 		ld	ra,8(sp)
 240              		.cfi_restore 1
 241 0028 03340100 		ld	s0,0(sp)
 242              		.cfi_restore 8
 243              		.cfi_def_cfa 2, 16
 244 002c 13010101 		addi	sp,sp,16
 245              		.cfi_def_cfa_offset 0
 246 0030 67800000 		jr	ra
 247              		.cfi_endproc
 248              	.LFE27:
 250              		.weak	_ZN16ProducerKeyboradD1Ev
 251              		.set	_ZN16ProducerKeyboradD1Ev,_ZN16ProducerKeyboradD2Ev
 252              		.section	.text._ZN16ProducerKeyboradD0Ev,"axG",@progbits,_ZN16ProducerKeyboradD5Ev,comdat
 253              		.align	2
 254              		.weak	_ZN16ProducerKeyboradD0Ev
 256              	_ZN16ProducerKeyboradD0Ev:
 257              	.LFB29:
  17:test/ConsumerProducer_CPP_API_test.cpp ****     thread_data *td;
 258              		.loc 1 17 7 is_stmt 1
 259              		.cfi_startproc
 260              	.LVL25:
 261 0000 130101FE 		addi	sp,sp,-32
 262              		.cfi_def_cfa_offset 32
 263 0004 233C1100 		sd	ra,24(sp)
 264 0008 23388100 		sd	s0,16(sp)
 265 000c 23349100 		sd	s1,8(sp)
 266              		.cfi_offset 1, -8
 267              		.cfi_offset 8, -16
 268              		.cfi_offset 9, -24
 269 0010 13040102 		addi	s0,sp,32
 270              		.cfi_def_cfa 8, 0
 271 0014 93040500 		mv	s1,a0
 272              	.LVL26:
 273              	.LBB45:
 274              	.LBB46:
  17:test/ConsumerProducer_CPP_API_test.cpp ****     thread_data *td;
 275              		.loc 1 17 7 is_stmt 0
 276 0018 97070000 		lla	a5,_ZTV16ProducerKeyborad+16
 276      93870700 
 277 0020 2330F500 		sd	a5,0(a0)
 278 0024 97000000 		call	_ZN6ThreadD2Ev@plt
 278      E7800000 
 279              	.LVL27:
 280              	.LBE46:
 281              	.LBE45:
 282 002c 13850400 		mv	a0,s1
 283 0030 97000000 		call	_ZdlPv@plt
 283      E7800000 
 284              	.LVL28:
 285 0038 83308101 		ld	ra,24(sp)
 286              		.cfi_restore 1
 287 003c 03340101 		ld	s0,16(sp)
GAS LISTING /tmp/ccxZXmV1.s 			page 8


 288              		.cfi_restore 8
 289              		.cfi_def_cfa 2, 32
 290 0040 83348100 		ld	s1,8(sp)
 291              		.cfi_restore 9
 292              	.LVL29:
 293 0044 13010102 		addi	sp,sp,32
 294              		.cfi_def_cfa_offset 0
 295 0048 67800000 		jr	ra
 296              		.cfi_endproc
 297              	.LFE29:
 299              		.section	.text._ZN8ProducerD2Ev,"axG",@progbits,_ZN8ProducerD5Ev,comdat
 300              		.align	2
 301              		.weak	_ZN8ProducerD2Ev
 303              	_ZN8ProducerD2Ev:
 304              	.LFB23:
  37:test/ConsumerProducer_CPP_API_test.cpp ****     thread_data *td;
 305              		.loc 1 37 7 is_stmt 1
 306              		.cfi_startproc
 307              	.LVL30:
 308 0000 130101FF 		addi	sp,sp,-16
 309              		.cfi_def_cfa_offset 16
 310 0004 23341100 		sd	ra,8(sp)
 311 0008 23308100 		sd	s0,0(sp)
 312              		.cfi_offset 1, -8
 313              		.cfi_offset 8, -16
 314 000c 13040101 		addi	s0,sp,16
 315              		.cfi_def_cfa 8, 0
 316              	.LBB47:
  37:test/ConsumerProducer_CPP_API_test.cpp ****     thread_data *td;
 317              		.loc 1 37 7 is_stmt 0
 318 0010 97070000 		lla	a5,_ZTV8Producer+16
 318      93870700 
 319 0018 2330F500 		sd	a5,0(a0)
 320 001c 97000000 		call	_ZN6ThreadD2Ev@plt
 320      E7800000 
 321              	.LVL31:
 322              	.LBE47:
 323 0024 83308100 		ld	ra,8(sp)
 324              		.cfi_restore 1
 325 0028 03340100 		ld	s0,0(sp)
 326              		.cfi_restore 8
 327              		.cfi_def_cfa 2, 16
 328 002c 13010101 		addi	sp,sp,16
 329              		.cfi_def_cfa_offset 0
 330 0030 67800000 		jr	ra
 331              		.cfi_endproc
 332              	.LFE23:
 334              		.weak	_ZN8ProducerD1Ev
 335              		.set	_ZN8ProducerD1Ev,_ZN8ProducerD2Ev
 336              		.section	.text._ZN8ProducerD0Ev,"axG",@progbits,_ZN8ProducerD5Ev,comdat
 337              		.align	2
 338              		.weak	_ZN8ProducerD0Ev
 340              	_ZN8ProducerD0Ev:
 341              	.LFB25:
  37:test/ConsumerProducer_CPP_API_test.cpp ****     thread_data *td;
 342              		.loc 1 37 7 is_stmt 1
 343              		.cfi_startproc
GAS LISTING /tmp/ccxZXmV1.s 			page 9


 344              	.LVL32:
 345 0000 130101FE 		addi	sp,sp,-32
 346              		.cfi_def_cfa_offset 32
 347 0004 233C1100 		sd	ra,24(sp)
 348 0008 23388100 		sd	s0,16(sp)
 349 000c 23349100 		sd	s1,8(sp)
 350              		.cfi_offset 1, -8
 351              		.cfi_offset 8, -16
 352              		.cfi_offset 9, -24
 353 0010 13040102 		addi	s0,sp,32
 354              		.cfi_def_cfa 8, 0
 355 0014 93040500 		mv	s1,a0
 356              	.LVL33:
 357              	.LBB48:
 358              	.LBB49:
  37:test/ConsumerProducer_CPP_API_test.cpp ****     thread_data *td;
 359              		.loc 1 37 7 is_stmt 0
 360 0018 97070000 		lla	a5,_ZTV8Producer+16
 360      93870700 
 361 0020 2330F500 		sd	a5,0(a0)
 362 0024 97000000 		call	_ZN6ThreadD2Ev@plt
 362      E7800000 
 363              	.LVL34:
 364              	.LBE49:
 365              	.LBE48:
 366 002c 13850400 		mv	a0,s1
 367 0030 97000000 		call	_ZdlPv@plt
 367      E7800000 
 368              	.LVL35:
 369 0038 83308101 		ld	ra,24(sp)
 370              		.cfi_restore 1
 371 003c 03340101 		ld	s0,16(sp)
 372              		.cfi_restore 8
 373              		.cfi_def_cfa 2, 32
 374 0040 83348100 		ld	s1,8(sp)
 375              		.cfi_restore 9
 376              	.LVL36:
 377 0044 13010102 		addi	sp,sp,32
 378              		.cfi_def_cfa_offset 0
 379 0048 67800000 		jr	ra
 380              		.cfi_endproc
 381              	.LFE25:
 383              		.section	.text._ZN16ProducerKeyborad3runEv,"axG",@progbits,_ZN16ProducerKeyborad3runEv,comdat
 384              		.align	2
 385              		.weak	_ZN16ProducerKeyborad3runEv
 387              	_ZN16ProducerKeyborad3runEv:
 388              	.LFB8:
  22:test/ConsumerProducer_CPP_API_test.cpp ****         int key;
 389              		.loc 1 22 10 is_stmt 1
 390              		.cfi_startproc
 391              	.LVL37:
 392 0000 130101FE 		addi	sp,sp,-32
 393              		.cfi_def_cfa_offset 32
 394 0004 233C1100 		sd	ra,24(sp)
 395 0008 23388100 		sd	s0,16(sp)
 396 000c 23349100 		sd	s1,8(sp)
 397              		.cfi_offset 1, -8
GAS LISTING /tmp/ccxZXmV1.s 			page 10


 398              		.cfi_offset 8, -16
 399              		.cfi_offset 9, -24
 400 0010 13040102 		addi	s0,sp,32
 401              		.cfi_def_cfa 8, 0
 402 0014 93040500 		mv	s1,a0
  23:test/ConsumerProducer_CPP_API_test.cpp ****         int i = 0;
 403              		.loc 1 23 9
  24:test/ConsumerProducer_CPP_API_test.cpp ****         while ((key = getc()) != 0x1b) {
 404              		.loc 1 24 9
 405              	.LVL38:
 406              	.L23:
  25:test/ConsumerProducer_CPP_API_test.cpp ****             td->buffer->put(key);
 407              		.loc 1 25 9
  25:test/ConsumerProducer_CPP_API_test.cpp ****             td->buffer->put(key);
 408              		.loc 1 25 31
  25:test/ConsumerProducer_CPP_API_test.cpp ****             td->buffer->put(key);
 409              		.loc 1 25 27 is_stmt 0
 410 0018 97000000 		call	_Z4getcv@plt
 410      E7800000 
 411              	.LVL39:
 412 0020 93050500 		mv	a1,a0
 413              	.LVL40:
  25:test/ConsumerProducer_CPP_API_test.cpp ****             td->buffer->put(key);
 414              		.loc 1 25 31
 415 0024 9307B001 		li	a5,27
 416 0028 630CF500 		beq	a0,a5,.L22
  26:test/ConsumerProducer_CPP_API_test.cpp ****             i++;
 417              		.loc 1 26 13 is_stmt 1
 418 002c 83B70402 		ld	a5,32(s1)
  26:test/ConsumerProducer_CPP_API_test.cpp ****             i++;
 419              		.loc 1 26 28 is_stmt 0
 420 0030 03B58700 		ld	a0,8(a5)
 421              	.LVL41:
 422 0034 97000000 		call	_ZN9BufferCPP3putEi@plt
 422      E7800000 
 423              	.LVL42:
  27:test/ConsumerProducer_CPP_API_test.cpp ****         }
 424              		.loc 1 27 13 is_stmt 1
  25:test/ConsumerProducer_CPP_API_test.cpp ****             td->buffer->put(key);
 425              		.loc 1 25 9 is_stmt 0
 426 003c 6FF0DFFD 		j	.L23
 427              	.LVL43:
 428              	.L22:
  30:test/ConsumerProducer_CPP_API_test.cpp ****         td->buffer->put('!');
 429              		.loc 1 30 9 is_stmt 1
  30:test/ConsumerProducer_CPP_API_test.cpp ****         td->buffer->put('!');
 430              		.loc 1 30 19 is_stmt 0
 431 0040 93071000 		li	a5,1
 432 0044 17070000 		sw	a5,.LANCHOR0,a4
 432      2320F700 
  31:test/ConsumerProducer_CPP_API_test.cpp **** 
 433              		.loc 1 31 9 is_stmt 1
 434 004c 83B70402 		ld	a5,32(s1)
  31:test/ConsumerProducer_CPP_API_test.cpp **** 
 435              		.loc 1 31 24 is_stmt 0
 436 0050 93051002 		li	a1,33
 437 0054 03B58700 		ld	a0,8(a5)
GAS LISTING /tmp/ccxZXmV1.s 			page 11


 438              	.LVL44:
 439 0058 97000000 		call	_ZN9BufferCPP3putEi@plt
 439      E7800000 
 440              	.LVL45:
  33:test/ConsumerProducer_CPP_API_test.cpp ****     }
 441              		.loc 1 33 9 is_stmt 1
 442 0060 83B70402 		ld	a5,32(s1)
  33:test/ConsumerProducer_CPP_API_test.cpp ****     }
 443              		.loc 1 33 24 is_stmt 0
 444 0064 03B50701 		ld	a0,16(a5)
 445 0068 97000000 		call	_ZN9Semaphore6signalEv@plt
 445      E7800000 
 446              	.LVL46:
  34:test/ConsumerProducer_CPP_API_test.cpp **** };
 447              		.loc 1 34 5
 448 0070 83308101 		ld	ra,24(sp)
 449              		.cfi_restore 1
 450 0074 03340101 		ld	s0,16(sp)
 451              		.cfi_restore 8
 452              		.cfi_def_cfa 2, 32
 453 0078 83348100 		ld	s1,8(sp)
 454              		.cfi_restore 9
 455              	.LVL47:
 456 007c 13010102 		addi	sp,sp,32
 457              		.cfi_def_cfa_offset 0
 458 0080 67800000 		jr	ra
 459              		.cfi_endproc
 460              	.LFE8:
 462              		.section	.text._ZN8Producer3runEv,"axG",@progbits,_ZN8Producer3runEv,comdat
 463              		.align	2
 464              		.weak	_ZN8Producer3runEv
 466              	_ZN8Producer3runEv:
 467              	.LFB12:
  42:test/ConsumerProducer_CPP_API_test.cpp ****         int i = 0;
 468              		.loc 1 42 10 is_stmt 1
 469              		.cfi_startproc
 470              	.LVL48:
 471 0000 130101FE 		addi	sp,sp,-32
 472              		.cfi_def_cfa_offset 32
 473 0004 233C1100 		sd	ra,24(sp)
 474 0008 23388100 		sd	s0,16(sp)
 475 000c 23349100 		sd	s1,8(sp)
 476 0010 23302101 		sd	s2,0(sp)
 477              		.cfi_offset 1, -8
 478              		.cfi_offset 8, -16
 479              		.cfi_offset 9, -24
 480              		.cfi_offset 18, -32
 481 0014 13040102 		addi	s0,sp,32
 482              		.cfi_def_cfa 8, 0
 483 0018 93040500 		mv	s1,a0
  43:test/ConsumerProducer_CPP_API_test.cpp ****         while (!threadEnd) {
 484              		.loc 1 43 9
 485              	.LVL49:
  43:test/ConsumerProducer_CPP_API_test.cpp ****         while (!threadEnd) {
 486              		.loc 1 43 13 is_stmt 0
 487 001c 13090000 		li	s2,0
 488              	.LVL50:
GAS LISTING /tmp/ccxZXmV1.s 			page 12


 489              	.L27:
  44:test/ConsumerProducer_CPP_API_test.cpp ****             td->buffer->put(td->id + '0');
 490              		.loc 1 44 9 is_stmt 1
  44:test/ConsumerProducer_CPP_API_test.cpp ****             td->buffer->put(td->id + '0');
 491              		.loc 1 44 16
 492 0020 97070000 		lw	a5,.LANCHOR0
 492      83A70700 
 493 0028 63920704 		bnez	a5,.L26
  45:test/ConsumerProducer_CPP_API_test.cpp ****             i++;
 494              		.loc 1 45 13
 495 002c 83B70402 		ld	a5,32(s1)
  45:test/ConsumerProducer_CPP_API_test.cpp ****             i++;
 496              		.loc 1 45 33 is_stmt 0
 497 0030 83A50700 		lw	a1,0(a5)
  45:test/ConsumerProducer_CPP_API_test.cpp ****             i++;
 498              		.loc 1 45 28
 499 0034 9B850503 		addiw	a1,a1,48
 500 0038 03B58700 		ld	a0,8(a5)
 501 003c 97000000 		call	_ZN9BufferCPP3putEi@plt
 501      E7800000 
 502              	.LVL51:
  46:test/ConsumerProducer_CPP_API_test.cpp ****             Thread::sleep((i + td->id) % 5);
 503              		.loc 1 46 13 is_stmt 1
  46:test/ConsumerProducer_CPP_API_test.cpp ****             Thread::sleep((i + td->id) % 5);
 504              		.loc 1 46 14 is_stmt 0
 505 0044 1B071900 		addiw	a4,s2,1
 506 0048 1B090700 		sext.w	s2,a4
 507              	.LVL52:
  47:test/ConsumerProducer_CPP_API_test.cpp ****         }
 508              		.loc 1 47 13 is_stmt 1
  47:test/ConsumerProducer_CPP_API_test.cpp ****         }
 509              		.loc 1 47 32 is_stmt 0
 510 004c 83B70402 		ld	a5,32(s1)
  47:test/ConsumerProducer_CPP_API_test.cpp ****         }
 511              		.loc 1 47 36
 512 0050 83A70700 		lw	a5,0(a5)
  47:test/ConsumerProducer_CPP_API_test.cpp ****         }
 513              		.loc 1 47 30
 514 0054 BB87E700 		addw	a5,a5,a4
  47:test/ConsumerProducer_CPP_API_test.cpp ****         }
 515              		.loc 1 47 26
 516 0058 13055000 		li	a0,5
 517 005c 3BE5A702 		remw	a0,a5,a0
 518 0060 97000000 		call	_ZN6Thread5sleepEm@plt
 518      E7800000 
 519              	.LVL53:
  44:test/ConsumerProducer_CPP_API_test.cpp ****             td->buffer->put(td->id + '0');
 520              		.loc 1 44 9
 521 0068 6FF09FFB 		j	.L27
 522              	.L26:
  50:test/ConsumerProducer_CPP_API_test.cpp ****     }
 523              		.loc 1 50 9 is_stmt 1
 524 006c 83B70402 		ld	a5,32(s1)
  50:test/ConsumerProducer_CPP_API_test.cpp ****     }
 525              		.loc 1 50 24 is_stmt 0
 526 0070 03B50701 		ld	a0,16(a5)
 527 0074 97000000 		call	_ZN9Semaphore6signalEv@plt
GAS LISTING /tmp/ccxZXmV1.s 			page 13


 527      E7800000 
 528              	.LVL54:
  51:test/ConsumerProducer_CPP_API_test.cpp **** };
 529              		.loc 1 51 5
 530 007c 83308101 		ld	ra,24(sp)
 531              		.cfi_restore 1
 532 0080 03340101 		ld	s0,16(sp)
 533              		.cfi_restore 8
 534              		.cfi_def_cfa 2, 32
 535 0084 83348100 		ld	s1,8(sp)
 536              		.cfi_restore 9
 537              	.LVL55:
 538 0088 03390100 		ld	s2,0(sp)
 539              		.cfi_restore 18
 540              	.LVL56:
 541 008c 13010102 		addi	sp,sp,32
 542              		.cfi_def_cfa_offset 0
 543 0090 67800000 		jr	ra
 544              		.cfi_endproc
 545              	.LFE12:
 547              		.section	.rodata.str1.8,"aMS",@progbits,1
 548              		.align	3
 549              	.LC0:
 550 0000 556E6573 		.string	"Unesite broj proizvodjaca?\n"
 550      69746520 
 550      62726F6A 
 550      2070726F 
 550      697A766F 
 551 001c 00000000 		.align	3
 552              	.LC1:
 553 0020 556E6573 		.string	"Unesite velicinu bafera?\n"
 553      69746520 
 553      76656C69 
 553      63696E75 
 553      20626166 
 554 003a 00000000 		.align	3
 554      0000
 555              	.LC2:
 556 0040 42726F6A 		.string	"Broj proizvodjaca "
 556      2070726F 
 556      697A766F 
 556      646A6163 
 556      612000
 557 0053 00000000 		.align	3
 557      00
 558              	.LC3:
 559 0058 20692076 		.string	" i velicina bafera "
 559      656C6963 
 559      696E6120 
 559      62616665 
 559      72612000 
 560 006c 00000000 		.align	3
 561              	.LC4:
 562 0070 2E0A00   		.string	".\n"
 563 0073 00000000 		.align	3
 563      00
 564              	.LC5:
GAS LISTING /tmp/ccxZXmV1.s 			page 14


 565 0078 42726F6A 		.string	"Broj proizvodjaca ne sme biti manji od velicine bafera!\n"
 565      2070726F 
 565      697A766F 
 565      646A6163 
 565      61206E65 
 566 00b1 00000000 		.align	3
 566      000000
 567              	.LC6:
 568 00b8 42726F6A 		.string	"Broj proizvodjaca mora biti veci od nula!\n"
 568      2070726F 
 568      697A766F 
 568      646A6163 
 568      61206D6F 
 569              		.text
 570              		.align	2
 571              		.globl	_Z20testConsumerProducerv
 573              	_Z20testConsumerProducerv:
 574              	.LFB17:
  79:test/ConsumerProducer_CPP_API_test.cpp **** };
  80:test/ConsumerProducer_CPP_API_test.cpp **** 
  81:test/ConsumerProducer_CPP_API_test.cpp **** void testConsumerProducer() {
 575              		.loc 1 81 29 is_stmt 1
 576              		.cfi_startproc
 577              		.cfi_personality 0x9b,DW.ref.__gxx_personality_v0
 578              		.cfi_lsda 0x1b,.LLSDA17
 579 0000 130101F9 		addi	sp,sp,-112
 580              		.cfi_def_cfa_offset 112
 581 0004 23341106 		sd	ra,104(sp)
 582 0008 23308106 		sd	s0,96(sp)
 583 000c 233C9104 		sd	s1,88(sp)
 584 0010 23382105 		sd	s2,80(sp)
 585 0014 23343105 		sd	s3,72(sp)
 586 0018 23304105 		sd	s4,64(sp)
 587 001c 233C5103 		sd	s5,56(sp)
 588 0020 23386103 		sd	s6,48(sp)
 589 0024 23347103 		sd	s7,40(sp)
 590 0028 23308103 		sd	s8,32(sp)
 591              		.cfi_offset 1, -8
 592              		.cfi_offset 8, -16
 593              		.cfi_offset 9, -24
 594              		.cfi_offset 18, -32
 595              		.cfi_offset 19, -40
 596              		.cfi_offset 20, -48
 597              		.cfi_offset 21, -56
 598              		.cfi_offset 22, -64
 599              		.cfi_offset 23, -72
 600              		.cfi_offset 24, -80
 601 002c 13040107 		addi	s0,sp,112
 602              		.cfi_def_cfa 8, 0
  82:test/ConsumerProducer_CPP_API_test.cpp ****     char input[30];
  83:test/ConsumerProducer_CPP_API_test.cpp ****     int n, threadNum;
  84:test/ConsumerProducer_CPP_API_test.cpp **** 
  85:test/ConsumerProducer_CPP_API_test.cpp ****     printString("Unesite broj proizvodjaca?\n");
  86:test/ConsumerProducer_CPP_API_test.cpp ****     getString(input, 30);
  87:test/ConsumerProducer_CPP_API_test.cpp ****     threadNum = stringToInt(input);
  88:test/ConsumerProducer_CPP_API_test.cpp **** 
  89:test/ConsumerProducer_CPP_API_test.cpp ****     printString("Unesite velicinu bafera?\n");
GAS LISTING /tmp/ccxZXmV1.s 			page 15


  90:test/ConsumerProducer_CPP_API_test.cpp ****     getString(input, 30);
  91:test/ConsumerProducer_CPP_API_test.cpp ****     n = stringToInt(input);
  92:test/ConsumerProducer_CPP_API_test.cpp **** 
  93:test/ConsumerProducer_CPP_API_test.cpp ****     printString("Broj proizvodjaca ");
  94:test/ConsumerProducer_CPP_API_test.cpp ****     printInt(threadNum);
  95:test/ConsumerProducer_CPP_API_test.cpp ****     printString(" i velicina bafera ");
  96:test/ConsumerProducer_CPP_API_test.cpp ****     printInt(n);
  97:test/ConsumerProducer_CPP_API_test.cpp ****     printString(".\n");
  98:test/ConsumerProducer_CPP_API_test.cpp **** 
  99:test/ConsumerProducer_CPP_API_test.cpp ****     if (threadNum > n) {
 100:test/ConsumerProducer_CPP_API_test.cpp ****         printString("Broj proizvodjaca ne sme biti manji od velicine bafera!\n");
 101:test/ConsumerProducer_CPP_API_test.cpp ****         return;
 102:test/ConsumerProducer_CPP_API_test.cpp ****     } else if (threadNum < 1) {
 103:test/ConsumerProducer_CPP_API_test.cpp ****         printString("Broj proizvodjaca mora biti veci od nula!\n");
 104:test/ConsumerProducer_CPP_API_test.cpp ****         return;
 105:test/ConsumerProducer_CPP_API_test.cpp ****     }
 106:test/ConsumerProducer_CPP_API_test.cpp **** 
 107:test/ConsumerProducer_CPP_API_test.cpp ****     BufferCPP *buffer = new BufferCPP(n);
 108:test/ConsumerProducer_CPP_API_test.cpp **** 
 109:test/ConsumerProducer_CPP_API_test.cpp ****     waitForAll = new Semaphore(0);
 110:test/ConsumerProducer_CPP_API_test.cpp ****     Thread *producers[threadNum];
 111:test/ConsumerProducer_CPP_API_test.cpp ****     thread_data threadData[threadNum + 1];
 112:test/ConsumerProducer_CPP_API_test.cpp **** 
 113:test/ConsumerProducer_CPP_API_test.cpp ****     threadData[threadNum].id = threadNum;
 114:test/ConsumerProducer_CPP_API_test.cpp ****     threadData[threadNum].buffer = buffer;
 115:test/ConsumerProducer_CPP_API_test.cpp ****     threadData[threadNum].sem = waitForAll;
 116:test/ConsumerProducer_CPP_API_test.cpp ****     Thread *consumer = new Consumer(&threadData[threadNum]);
 117:test/ConsumerProducer_CPP_API_test.cpp ****     consumer->start();
 118:test/ConsumerProducer_CPP_API_test.cpp **** 
 119:test/ConsumerProducer_CPP_API_test.cpp ****     threadData[0].id = 0;
 120:test/ConsumerProducer_CPP_API_test.cpp ****     threadData[0].buffer = buffer;
 121:test/ConsumerProducer_CPP_API_test.cpp ****     threadData[0].sem = waitForAll;
 122:test/ConsumerProducer_CPP_API_test.cpp ****     producers[0] = new ProducerKeyborad(&threadData[0]);
 123:test/ConsumerProducer_CPP_API_test.cpp ****     producers[0]->start();
 124:test/ConsumerProducer_CPP_API_test.cpp **** 
 125:test/ConsumerProducer_CPP_API_test.cpp ****     for (int i = 1; i < threadNum; i++) {
 126:test/ConsumerProducer_CPP_API_test.cpp ****         threadData[i].id = i;
 127:test/ConsumerProducer_CPP_API_test.cpp ****         threadData[i].buffer = buffer;
 128:test/ConsumerProducer_CPP_API_test.cpp ****         threadData[i].sem = waitForAll;
 129:test/ConsumerProducer_CPP_API_test.cpp **** 
 130:test/ConsumerProducer_CPP_API_test.cpp ****         producers[i] = new Producer(&threadData[i]);
 131:test/ConsumerProducer_CPP_API_test.cpp ****         producers[i]->start();
 132:test/ConsumerProducer_CPP_API_test.cpp **** 
 133:test/ConsumerProducer_CPP_API_test.cpp ****     }
 134:test/ConsumerProducer_CPP_API_test.cpp **** 
 135:test/ConsumerProducer_CPP_API_test.cpp ****     Thread::dispatch();
 136:test/ConsumerProducer_CPP_API_test.cpp **** 
 137:test/ConsumerProducer_CPP_API_test.cpp ****     for (int i = 0; i <= threadNum; i++) {
 138:test/ConsumerProducer_CPP_API_test.cpp ****         waitForAll->wait();
 139:test/ConsumerProducer_CPP_API_test.cpp ****     }
 140:test/ConsumerProducer_CPP_API_test.cpp **** 
 141:test/ConsumerProducer_CPP_API_test.cpp ****     delete waitForAll;
 142:test/ConsumerProducer_CPP_API_test.cpp ****     for (int i = 0; i < threadNum; i++) {
 143:test/ConsumerProducer_CPP_API_test.cpp ****         delete producers[i];
 144:test/ConsumerProducer_CPP_API_test.cpp ****     }
 145:test/ConsumerProducer_CPP_API_test.cpp ****     delete consumer;
 146:test/ConsumerProducer_CPP_API_test.cpp ****     delete buffer;
GAS LISTING /tmp/ccxZXmV1.s 			page 16


 603              		.loc 1 146 18 is_stmt 0
 604 0030 130C0100 		mv	s8,sp
  82:test/ConsumerProducer_CPP_API_test.cpp ****     char input[30];
 605              		.loc 1 82 5 is_stmt 1
  83:test/ConsumerProducer_CPP_API_test.cpp **** 
 606              		.loc 1 83 5
  85:test/ConsumerProducer_CPP_API_test.cpp ****     getString(input, 30);
 607              		.loc 1 85 5
  85:test/ConsumerProducer_CPP_API_test.cpp ****     getString(input, 30);
 608              		.loc 1 85 16 is_stmt 0
 609 0034 17050000 		lla	a0,.LC0
 609      13050500 
 610              	.LEHB0:
 611 003c 97000000 		call	_Z11printStringPKc@plt
 611      E7800000 
 612              	.LVL57:
  86:test/ConsumerProducer_CPP_API_test.cpp ****     threadNum = stringToInt(input);
 613              		.loc 1 86 5 is_stmt 1
  86:test/ConsumerProducer_CPP_API_test.cpp ****     threadNum = stringToInt(input);
 614              		.loc 1 86 14 is_stmt 0
 615 0044 9305E001 		li	a1,30
 616 0048 930404F9 		addi	s1,s0,-112
 617 004c 13850400 		mv	a0,s1
 618 0050 97000000 		call	_Z9getStringPci@plt
 618      E7800000 
 619              	.LVL58:
  87:test/ConsumerProducer_CPP_API_test.cpp **** 
 620              		.loc 1 87 5 is_stmt 1
  87:test/ConsumerProducer_CPP_API_test.cpp **** 
 621              		.loc 1 87 28 is_stmt 0
 622 0058 13850400 		mv	a0,s1
 623 005c 97000000 		call	_Z11stringToIntPKc@plt
 623      E7800000 
 624              	.LVL59:
 625 0064 93090500 		mv	s3,a0
 626              	.LVL60:
  89:test/ConsumerProducer_CPP_API_test.cpp ****     getString(input, 30);
 627              		.loc 1 89 5 is_stmt 1
  89:test/ConsumerProducer_CPP_API_test.cpp ****     getString(input, 30);
 628              		.loc 1 89 16 is_stmt 0
 629 0068 17050000 		lla	a0,.LC1
 629      13050500 
 630 0070 97000000 		call	_Z11printStringPKc@plt
 630      E7800000 
 631              	.LVL61:
  90:test/ConsumerProducer_CPP_API_test.cpp ****     n = stringToInt(input);
 632              		.loc 1 90 5 is_stmt 1
  90:test/ConsumerProducer_CPP_API_test.cpp ****     n = stringToInt(input);
 633              		.loc 1 90 14 is_stmt 0
 634 0078 9305E001 		li	a1,30
 635 007c 13850400 		mv	a0,s1
 636 0080 97000000 		call	_Z9getStringPci@plt
 636      E7800000 
 637              	.LVL62:
  91:test/ConsumerProducer_CPP_API_test.cpp **** 
 638              		.loc 1 91 5 is_stmt 1
  91:test/ConsumerProducer_CPP_API_test.cpp **** 
GAS LISTING /tmp/ccxZXmV1.s 			page 17


 639              		.loc 1 91 20 is_stmt 0
 640 0088 13850400 		mv	a0,s1
 641 008c 97000000 		call	_Z11stringToIntPKc@plt
 641      E7800000 
 642              	.LVL63:
 643 0094 93040500 		mv	s1,a0
 644              	.LVL64:
  93:test/ConsumerProducer_CPP_API_test.cpp ****     printInt(threadNum);
 645              		.loc 1 93 5 is_stmt 1
  93:test/ConsumerProducer_CPP_API_test.cpp ****     printInt(threadNum);
 646              		.loc 1 93 16 is_stmt 0
 647 0098 17050000 		lla	a0,.LC2
 647      13050500 
 648 00a0 97000000 		call	_Z11printStringPKc@plt
 648      E7800000 
 649              	.LVL65:
  94:test/ConsumerProducer_CPP_API_test.cpp ****     printString(" i velicina bafera ");
 650              		.loc 1 94 5 is_stmt 1
  94:test/ConsumerProducer_CPP_API_test.cpp ****     printString(" i velicina bafera ");
 651              		.loc 1 94 13 is_stmt 0
 652 00a8 13060000 		li	a2,0
 653 00ac 9305A000 		li	a1,10
 654 00b0 13850900 		mv	a0,s3
 655 00b4 97000000 		call	_Z8printIntiii@plt
 655      E7800000 
 656              	.LVL66:
  95:test/ConsumerProducer_CPP_API_test.cpp ****     printInt(n);
 657              		.loc 1 95 5 is_stmt 1
  95:test/ConsumerProducer_CPP_API_test.cpp ****     printInt(n);
 658              		.loc 1 95 16 is_stmt 0
 659 00bc 17050000 		lla	a0,.LC3
 659      13050500 
 660 00c4 97000000 		call	_Z11printStringPKc@plt
 660      E7800000 
 661              	.LVL67:
  96:test/ConsumerProducer_CPP_API_test.cpp ****     printString(".\n");
 662              		.loc 1 96 5 is_stmt 1
  96:test/ConsumerProducer_CPP_API_test.cpp ****     printString(".\n");
 663              		.loc 1 96 13 is_stmt 0
 664 00cc 13060000 		li	a2,0
 665 00d0 9305A000 		li	a1,10
 666 00d4 13850400 		mv	a0,s1
 667 00d8 97000000 		call	_Z8printIntiii@plt
 667      E7800000 
 668              	.LVL68:
  97:test/ConsumerProducer_CPP_API_test.cpp **** 
 669              		.loc 1 97 5 is_stmt 1
  97:test/ConsumerProducer_CPP_API_test.cpp **** 
 670              		.loc 1 97 16 is_stmt 0
 671 00e0 17050000 		lla	a0,.LC4
 671      13050500 
 672 00e8 97000000 		call	_Z11printStringPKc@plt
 672      E7800000 
 673              	.LVL69:
  99:test/ConsumerProducer_CPP_API_test.cpp ****         printString("Broj proizvodjaca ne sme biti manji od velicine bafera!\n");
 674              		.loc 1 99 5 is_stmt 1
 675 00f0 63C43403 		bgt	s3,s1,.L49
GAS LISTING /tmp/ccxZXmV1.s 			page 18


 102:test/ConsumerProducer_CPP_API_test.cpp ****         printString("Broj proizvodjaca mora biti veci od nula!\n");
 676              		.loc 1 102 12
 677 00f4 635C3003 		blez	s3,.L50
 107:test/ConsumerProducer_CPP_API_test.cpp **** 
 678              		.loc 1 107 5
 107:test/ConsumerProducer_CPP_API_test.cpp **** 
 679              		.loc 1 107 40 is_stmt 0
 680 00f8 13058003 		li	a0,56
 681 00fc 97000000 		call	_Znwm@plt
 681      E7800000 
 682              	.LVL70:
 683              	.LEHE0:
 684 0104 930A0500 		mv	s5,a0
 685 0108 93850400 		mv	a1,s1
 686              	.LEHB1:
 687 010c 97000000 		call	_ZN9BufferCPPC1Ei@plt
 687      E7800000 
 688              	.LVL71:
 689              	.LEHE1:
 690 0114 6F000003 		j	.L51
 691              	.L49:
 100:test/ConsumerProducer_CPP_API_test.cpp ****         return;
 692              		.loc 1 100 9 is_stmt 1
 100:test/ConsumerProducer_CPP_API_test.cpp ****         return;
 693              		.loc 1 100 20 is_stmt 0
 694 0118 17050000 		lla	a0,.LC5
 694      13050500 
 695              	.LEHB2:
 696 0120 97000000 		call	_Z11printStringPKc@plt
 696      E7800000 
 697              	.LVL72:
 101:test/ConsumerProducer_CPP_API_test.cpp ****     } else if (threadNum < 1) {
 698              		.loc 1 101 9 is_stmt 1
 699 0128 6F004001 		j	.L31
 700              	.L50:
 103:test/ConsumerProducer_CPP_API_test.cpp ****         return;
 701              		.loc 1 103 9
 103:test/ConsumerProducer_CPP_API_test.cpp ****         return;
 702              		.loc 1 103 20 is_stmt 0
 703 012c 17050000 		lla	a0,.LC6
 703      13050500 
 704 0134 97000000 		call	_Z11printStringPKc@plt
 704      E7800000 
 705              	.LVL73:
 104:test/ConsumerProducer_CPP_API_test.cpp ****     }
 706              		.loc 1 104 9 is_stmt 1
 707              	.L31:
 708 013c 13010C00 		mv	sp,s8
 709 0140 6F00401E 		j	.L29
 710              	.L51:
 711              	.LVL74:
 109:test/ConsumerProducer_CPP_API_test.cpp ****     Thread *producers[threadNum];
 712              		.loc 1 109 5 discriminator 3
 109:test/ConsumerProducer_CPP_API_test.cpp ****     Thread *producers[threadNum];
 713              		.loc 1 109 33 is_stmt 0 discriminator 3
 714 0144 13050001 		li	a0,16
 715 0148 97000000 		call	_Znwm@plt
GAS LISTING /tmp/ccxZXmV1.s 			page 19


 715      E7800000 
 716              	.LVL75:
 717              	.LEHE2:
 718 0150 930B0500 		mv	s7,a0
 719 0154 93050000 		li	a1,0
 720              	.LEHB3:
 721 0158 97000000 		call	_ZN9SemaphoreC1Ej@plt
 721      E7800000 
 722              	.LVL76:
 723              	.LEHE3:
 109:test/ConsumerProducer_CPP_API_test.cpp ****     Thread *producers[threadNum];
 724              		.loc 1 109 16 discriminator 3
 725 0160 17090000 		lla	s2,.LANCHOR0
 725      13090900 
 726 0168 23347901 		sd	s7,8(s2)
 110:test/ConsumerProducer_CPP_API_test.cpp ****     thread_data threadData[threadNum + 1];
 727              		.loc 1 110 5 is_stmt 1 discriminator 3
 728              	.LVL77:
 110:test/ConsumerProducer_CPP_API_test.cpp ****     thread_data threadData[threadNum + 1];
 729              		.loc 1 110 13 is_stmt 0 discriminator 3
 730 016c 93973900 		slli	a5,s3,3
 731 0170 9387F700 		addi	a5,a5,15
 732 0174 93F707FF 		andi	a5,a5,-16
 733 0178 3301F140 		sub	sp,sp,a5
 734 017c 130A0100 		mv	s4,sp
 735              	.LVL78:
 111:test/ConsumerProducer_CPP_API_test.cpp **** 
 736              		.loc 1 111 5 is_stmt 1 discriminator 3
 111:test/ConsumerProducer_CPP_API_test.cpp **** 
 737              		.loc 1 111 38 is_stmt 0 discriminator 3
 738 0180 1B871900 		addiw	a4,s3,1
 739              	.LVL79:
 111:test/ConsumerProducer_CPP_API_test.cpp **** 
 740              		.loc 1 111 17 discriminator 3
 741 0184 93171700 		slli	a5,a4,1
 742 0188 B387E700 		add	a5,a5,a4
 743 018c 93973700 		slli	a5,a5,3
 744 0190 9387F700 		addi	a5,a5,15
 745 0194 93F707FF 		andi	a5,a5,-16
 746 0198 3301F140 		sub	sp,sp,a5
 747              	.LVL80:
 748 019c 130B0100 		mv	s6,sp
 749              	.LVL81:
 113:test/ConsumerProducer_CPP_API_test.cpp ****     threadData[threadNum].buffer = buffer;
 750              		.loc 1 113 5 is_stmt 1 discriminator 3
 113:test/ConsumerProducer_CPP_API_test.cpp ****     threadData[threadNum].buffer = buffer;
 751              		.loc 1 113 30 is_stmt 0 discriminator 3
 752 01a0 93941900 		slli	s1,s3,1
 753              	.LVL82:
 754 01a4 B3843401 		add	s1,s1,s3
 755 01a8 93943400 		slli	s1,s1,3
 756 01ac B3049B00 		add	s1,s6,s1
 757 01b0 23A03401 		sw	s3,0(s1)
 114:test/ConsumerProducer_CPP_API_test.cpp ****     threadData[threadNum].sem = waitForAll;
 758              		.loc 1 114 5 is_stmt 1 discriminator 3
 114:test/ConsumerProducer_CPP_API_test.cpp ****     threadData[threadNum].sem = waitForAll;
 759              		.loc 1 114 34 is_stmt 0 discriminator 3
GAS LISTING /tmp/ccxZXmV1.s 			page 20


 760 01b4 23B45401 		sd	s5,8(s1)
 115:test/ConsumerProducer_CPP_API_test.cpp ****     Thread *consumer = new Consumer(&threadData[threadNum]);
 761              		.loc 1 115 5 is_stmt 1 discriminator 3
 115:test/ConsumerProducer_CPP_API_test.cpp ****     Thread *consumer = new Consumer(&threadData[threadNum]);
 762              		.loc 1 115 31 is_stmt 0 discriminator 3
 763 01b8 23B87401 		sd	s7,16(s1)
 116:test/ConsumerProducer_CPP_API_test.cpp ****     consumer->start();
 764              		.loc 1 116 5 is_stmt 1 discriminator 3
 116:test/ConsumerProducer_CPP_API_test.cpp ****     consumer->start();
 765              		.loc 1 116 59 is_stmt 0 discriminator 3
 766 01bc 13058002 		li	a0,40
 767              	.LEHB4:
 768 01c0 97000000 		call	_Znwm@plt
 768      E7800000 
 769              	.LVL83:
 770 01c8 930B0500 		mv	s7,a0
 771              	.LVL84:
 772              	.LBB50:
 773              	.LBB51:
  57:test/ConsumerProducer_CPP_API_test.cpp **** 
 774              		.loc 1 57 50 discriminator 3
 775 01cc 97070000 		lla	a5,_ZTV8Consumer+16
 775      93870700 
 776 01d4 2330F500 		sd	a5,0(a0)
 777 01d8 23309502 		sd	s1,32(a0)
 778              	.LVL85:
 779              	.LBE51:
 780              	.LBE50:
 117:test/ConsumerProducer_CPP_API_test.cpp **** 
 781              		.loc 1 117 5 is_stmt 1 discriminator 3
 117:test/ConsumerProducer_CPP_API_test.cpp **** 
 782              		.loc 1 117 20 is_stmt 0 discriminator 3
 783 01dc 97000000 		call	_ZN6Thread5startEv@plt
 783      E7800000 
 784              	.LVL86:
 119:test/ConsumerProducer_CPP_API_test.cpp ****     threadData[0].buffer = buffer;
 785              		.loc 1 119 5 is_stmt 1 discriminator 3
 119:test/ConsumerProducer_CPP_API_test.cpp ****     threadData[0].buffer = buffer;
 786              		.loc 1 119 22 is_stmt 0 discriminator 3
 787 01e4 23200B00 		sw	zero,0(s6)
 120:test/ConsumerProducer_CPP_API_test.cpp ****     threadData[0].sem = waitForAll;
 788              		.loc 1 120 5 is_stmt 1 discriminator 3
 120:test/ConsumerProducer_CPP_API_test.cpp ****     threadData[0].sem = waitForAll;
 789              		.loc 1 120 26 is_stmt 0 discriminator 3
 790 01e8 23345B01 		sd	s5,8(s6)
 121:test/ConsumerProducer_CPP_API_test.cpp ****     producers[0] = new ProducerKeyborad(&threadData[0]);
 791              		.loc 1 121 5 is_stmt 1 discriminator 3
 121:test/ConsumerProducer_CPP_API_test.cpp ****     producers[0] = new ProducerKeyborad(&threadData[0]);
 792              		.loc 1 121 23 is_stmt 0 discriminator 3
 793 01ec 83378900 		ld	a5,8(s2)
 794 01f0 2338FB00 		sd	a5,16(s6)
 122:test/ConsumerProducer_CPP_API_test.cpp ****     producers[0]->start();
 795              		.loc 1 122 5 is_stmt 1 discriminator 3
 122:test/ConsumerProducer_CPP_API_test.cpp ****     producers[0]->start();
 796              		.loc 1 122 55 is_stmt 0 discriminator 3
 797 01f4 13058002 		li	a0,40
 798 01f8 97000000 		call	_Znwm@plt
GAS LISTING /tmp/ccxZXmV1.s 			page 21


 798      E7800000 
 799              	.LVL87:
 800              	.LBB52:
 801              	.LBB53:
  20:test/ConsumerProducer_CPP_API_test.cpp **** 
 802              		.loc 1 20 58 discriminator 3
 803 0200 17070000 		lla	a4,_ZTV16ProducerKeyborad+16
 803      13070700 
 804 0208 2330E500 		sd	a4,0(a0)
 805 020c 23306503 		sd	s6,32(a0)
 806              	.LVL88:
 807              	.LBE53:
 808              	.LBE52:
 122:test/ConsumerProducer_CPP_API_test.cpp ****     producers[0]->start();
 809              		.loc 1 122 18 discriminator 3
 810 0210 2330AA00 		sd	a0,0(s4)
 123:test/ConsumerProducer_CPP_API_test.cpp **** 
 811              		.loc 1 123 5 is_stmt 1 discriminator 3
 123:test/ConsumerProducer_CPP_API_test.cpp **** 
 812              		.loc 1 123 24 is_stmt 0 discriminator 3
 813 0214 97000000 		call	_ZN6Thread5startEv@plt
 813      E7800000 
 814              	.LVL89:
 815              	.LBB54:
 125:test/ConsumerProducer_CPP_API_test.cpp ****         threadData[i].id = i;
 816              		.loc 1 125 14 discriminator 3
 817 021c 13091000 		li	s2,1
 818              	.L34:
 819              	.LVL90:
 125:test/ConsumerProducer_CPP_API_test.cpp ****         threadData[i].id = i;
 820              		.loc 1 125 23 is_stmt 1 discriminator 1
 821 0220 63503907 		bge	s2,s3,.L33
 126:test/ConsumerProducer_CPP_API_test.cpp ****         threadData[i].buffer = buffer;
 822              		.loc 1 126 9
 126:test/ConsumerProducer_CPP_API_test.cpp ****         threadData[i].buffer = buffer;
 823              		.loc 1 126 26 is_stmt 0
 824 0224 93141900 		slli	s1,s2,1
 825 0228 B3842401 		add	s1,s1,s2
 826 022c 93943400 		slli	s1,s1,3
 827 0230 B3049B00 		add	s1,s6,s1
 828 0234 23A02401 		sw	s2,0(s1)
 127:test/ConsumerProducer_CPP_API_test.cpp ****         threadData[i].sem = waitForAll;
 829              		.loc 1 127 9 is_stmt 1
 127:test/ConsumerProducer_CPP_API_test.cpp ****         threadData[i].sem = waitForAll;
 830              		.loc 1 127 30 is_stmt 0
 831 0238 23B45401 		sd	s5,8(s1)
 128:test/ConsumerProducer_CPP_API_test.cpp **** 
 832              		.loc 1 128 9 is_stmt 1
 128:test/ConsumerProducer_CPP_API_test.cpp **** 
 833              		.loc 1 128 27 is_stmt 0
 834 023c 97070000 		ld	a5,.LANCHOR0+8
 834      83B70700 
 835 0244 23B8F400 		sd	a5,16(s1)
 130:test/ConsumerProducer_CPP_API_test.cpp ****         producers[i]->start();
 836              		.loc 1 130 9 is_stmt 1
 130:test/ConsumerProducer_CPP_API_test.cpp ****         producers[i]->start();
 837              		.loc 1 130 51 is_stmt 0
GAS LISTING /tmp/ccxZXmV1.s 			page 22


 838 0248 13058002 		li	a0,40
 839 024c 97000000 		call	_Znwm@plt
 839      E7800000 
 840              	.LVL91:
 841              	.LBB55:
 842              	.LBB56:
  40:test/ConsumerProducer_CPP_API_test.cpp **** 
 843              		.loc 1 40 50
 844 0254 17070000 		lla	a4,_ZTV8Producer+16
 844      13070700 
 845 025c 2330E500 		sd	a4,0(a0)
 846 0260 23309502 		sd	s1,32(a0)
 847              	.LVL92:
 848              	.LBE56:
 849              	.LBE55:
 130:test/ConsumerProducer_CPP_API_test.cpp ****         producers[i]->start();
 850              		.loc 1 130 22
 851 0264 13173900 		slli	a4,s2,3
 852 0268 3307EA00 		add	a4,s4,a4
 853 026c 2330A700 		sd	a0,0(a4)
 131:test/ConsumerProducer_CPP_API_test.cpp **** 
 854              		.loc 1 131 9 is_stmt 1
 131:test/ConsumerProducer_CPP_API_test.cpp **** 
 855              		.loc 1 131 28 is_stmt 0
 856 0270 97000000 		call	_ZN6Thread5startEv@plt
 856      E7800000 
 857              	.LVL93:
 125:test/ConsumerProducer_CPP_API_test.cpp ****         threadData[i].id = i;
 858              		.loc 1 125 5 is_stmt 1
 859 0278 1B091900 		addiw	s2,s2,1
 860              	.LVL94:
 861 027c 6FF05FFA 		j	.L34
 862              	.LVL95:
 863              	.L33:
 864              	.LBE54:
 135:test/ConsumerProducer_CPP_API_test.cpp **** 
 865              		.loc 1 135 5
 135:test/ConsumerProducer_CPP_API_test.cpp **** 
 866              		.loc 1 135 21 is_stmt 0
 867 0280 97000000 		call	_ZN6Thread8dispatchEv@plt
 867      E7800000 
 868              	.LVL96:
 869              	.LBB57:
 137:test/ConsumerProducer_CPP_API_test.cpp ****         waitForAll->wait();
 870              		.loc 1 137 14
 871 0288 93040000 		li	s1,0
 872              	.L36:
 873              	.LVL97:
 137:test/ConsumerProducer_CPP_API_test.cpp ****         waitForAll->wait();
 874              		.loc 1 137 23 is_stmt 1 discriminator 1
 875 028c 63CE9900 		bgt	s1,s3,.L35
 138:test/ConsumerProducer_CPP_API_test.cpp ****     }
 876              		.loc 1 138 9
 138:test/ConsumerProducer_CPP_API_test.cpp ****     }
 877              		.loc 1 138 25 is_stmt 0
 878 0290 17050000 		ld	a0,.LANCHOR0+8
 878      03350500 
GAS LISTING /tmp/ccxZXmV1.s 			page 23


 879 0298 97000000 		call	_ZN9Semaphore4waitEv@plt
 879      E7800000 
 880              	.LVL98:
 137:test/ConsumerProducer_CPP_API_test.cpp ****         waitForAll->wait();
 881              		.loc 1 137 5 is_stmt 1
 882 02a0 9B841400 		addiw	s1,s1,1
 883              	.LVL99:
 884 02a4 6FF09FFE 		j	.L36
 885              	.LVL100:
 886              	.L35:
 887              	.LBE57:
 141:test/ConsumerProducer_CPP_API_test.cpp ****     for (int i = 0; i < threadNum; i++) {
 888              		.loc 1 141 5
 141:test/ConsumerProducer_CPP_API_test.cpp ****     for (int i = 0; i < threadNum; i++) {
 889              		.loc 1 141 12 is_stmt 0
 890 02a8 17050000 		ld	a0,.LANCHOR0+8
 890      03350500 
 141:test/ConsumerProducer_CPP_API_test.cpp ****     for (int i = 0; i < threadNum; i++) {
 891              		.loc 1 141 22
 892 02b0 63080500 		beqz	a0,.L37
 141:test/ConsumerProducer_CPP_API_test.cpp ****     for (int i = 0; i < threadNum; i++) {
 893              		.loc 1 141 12 discriminator 1
 894 02b4 83370500 		ld	a5,0(a0)
 895 02b8 83B78700 		ld	a5,8(a5)
 896 02bc E7800700 		jalr	a5
 897              	.LVL101:
 898              	.L37:
 899              	.LBB58:
 137:test/ConsumerProducer_CPP_API_test.cpp ****         waitForAll->wait();
 900              		.loc 1 137 14 discriminator 1
 901 02c0 93040000 		li	s1,0
 902              	.LVL102:
 903 02c4 6F008000 		j	.L40
 904              	.LVL103:
 905              	.L39:
 906              	.LBE58:
 907              	.LBB59:
 142:test/ConsumerProducer_CPP_API_test.cpp ****         delete producers[i];
 908              		.loc 1 142 5 is_stmt 1 discriminator 2
 909 02c8 9B841400 		addiw	s1,s1,1
 910              	.LVL104:
 911              	.L40:
 142:test/ConsumerProducer_CPP_API_test.cpp ****         delete producers[i];
 912              		.loc 1 142 23 discriminator 1
 913 02cc 63D23403 		bge	s1,s3,.L38
 143:test/ConsumerProducer_CPP_API_test.cpp ****     }
 914              		.loc 1 143 9
 143:test/ConsumerProducer_CPP_API_test.cpp ****     }
 915              		.loc 1 143 27 is_stmt 0
 916 02d0 93973400 		slli	a5,s1,3
 917 02d4 B307FA00 		add	a5,s4,a5
 918 02d8 03B50700 		ld	a0,0(a5)
 143:test/ConsumerProducer_CPP_API_test.cpp ****     }
 919              		.loc 1 143 28
 920 02dc E30605FE 		beqz	a0,.L39
 143:test/ConsumerProducer_CPP_API_test.cpp ****     }
 921              		.loc 1 143 27 discriminator 1
GAS LISTING /tmp/ccxZXmV1.s 			page 24


 922 02e0 83370500 		ld	a5,0(a0)
 923 02e4 83B78700 		ld	a5,8(a5)
 924 02e8 E7800700 		jalr	a5
 925              	.LVL105:
 926 02ec 6FF0DFFD 		j	.L39
 927              	.L38:
 928              	.LBE59:
 145:test/ConsumerProducer_CPP_API_test.cpp ****     delete buffer;
 929              		.loc 1 145 5 is_stmt 1
 145:test/ConsumerProducer_CPP_API_test.cpp ****     delete buffer;
 930              		.loc 1 145 20 is_stmt 0
 931 02f0 638A0B00 		beqz	s7,.L41
 145:test/ConsumerProducer_CPP_API_test.cpp ****     delete buffer;
 932              		.loc 1 145 12 discriminator 1
 933 02f4 83B70B00 		ld	a5,0(s7)
 934 02f8 83B78700 		ld	a5,8(a5)
 935 02fc 13850B00 		mv	a0,s7
 936 0300 E7800700 		jalr	a5
 937              	.LVL106:
 938              	.L41:
 939              		.loc 1 146 5 is_stmt 1
 940              		.loc 1 146 18 is_stmt 0
 941 0304 638E0A00 		beqz	s5,.L42
 942              		.loc 1 146 12 discriminator 1
 943 0308 13850A00 		mv	a0,s5
 944 030c 97000000 		call	_ZN9BufferCPPD1Ev@plt
 944      E7800000 
 945              	.LVL107:
 946 0314 13850A00 		mv	a0,s5
 947 0318 97000000 		call	_ZdlPv@plt
 947      E7800000 
 948              	.LVL108:
 949              	.LEHE4:
 950              	.L42:
 951 0320 13010C00 		mv	sp,s8
 952              	.LVL109:
 953              	.L29:
 147:test/ConsumerProducer_CPP_API_test.cpp **** }
 954              		.loc 1 147 1
 955 0324 130104F9 		addi	sp,s0,-112
 956              		.cfi_remember_state
 957              		.cfi_def_cfa 2, 112
 958 0328 83308106 		ld	ra,104(sp)
 959              		.cfi_restore 1
 960 032c 03340106 		ld	s0,96(sp)
 961              		.cfi_restore 8
 962 0330 83348105 		ld	s1,88(sp)
 963              		.cfi_restore 9
 964 0334 03390105 		ld	s2,80(sp)
 965              		.cfi_restore 18
 966 0338 83398104 		ld	s3,72(sp)
 967              		.cfi_restore 19
 968              	.LVL110:
 969 033c 033A0104 		ld	s4,64(sp)
 970              		.cfi_restore 20
 971 0340 833A8103 		ld	s5,56(sp)
 972              		.cfi_restore 21
GAS LISTING /tmp/ccxZXmV1.s 			page 25


 973 0344 033B0103 		ld	s6,48(sp)
 974              		.cfi_restore 22
 975 0348 833B8102 		ld	s7,40(sp)
 976              		.cfi_restore 23
 977 034c 033C0102 		ld	s8,32(sp)
 978              		.cfi_restore 24
 979 0350 13010107 		addi	sp,sp,112
 980              		.cfi_def_cfa_offset 0
 981 0354 67800000 		jr	ra
 982              	.LVL111:
 983              	.L46:
 984              		.cfi_restore_state
 985 0358 93040500 		mv	s1,a0
 986              	.LVL112:
 107:test/ConsumerProducer_CPP_API_test.cpp **** 
 987              		.loc 1 107 40
 988 035c 13850A00 		mv	a0,s5
 989 0360 97000000 		call	_ZdlPv@plt
 989      E7800000 
 990              	.LVL113:
 991 0368 13850400 		mv	a0,s1
 992              	.LEHB5:
 993 036c 97000000 		call	_Unwind_Resume@plt
 993      E7800000 
 994              	.LVL114:
 995              	.LEHE5:
 996              	.L47:
 997 0374 93040500 		mv	s1,a0
 998              	.LVL115:
 109:test/ConsumerProducer_CPP_API_test.cpp ****     Thread *producers[threadNum];
 999              		.loc 1 109 33
 1000 0378 13850B00 		mv	a0,s7
 1001 037c 97000000 		call	_ZdlPv@plt
 1001      E7800000 
 1002              	.LVL116:
 1003 0384 13850400 		mv	a0,s1
 1004              	.LEHB6:
 1005 0388 97000000 		call	_Unwind_Resume@plt
 1005      E7800000 
 1006              	.LVL117:
 1007              	.LEHE6:
 1008              		.cfi_endproc
 1009              	.LFE17:
 1010              		.globl	__gxx_personality_v0
 1011              		.section	.gcc_except_table,"a",@progbits
 1012              	.LLSDA17:
 1013 0000 FF       		.byte	0xff
 1014 0001 FF       		.byte	0xff
 1015 0002 03       		.byte	0x3
 1016 0003 5B       		.byte	0x5b
 1017 0004 00000000 		.4byte	.LEHB0-.LFB17
 1018 0008 00000000 		.4byte	.LEHE0-.LEHB0
 1019 000c 00000000 		.4byte	0
 1020 0010 00       		.byte	0
 1021 0011 00000000 		.4byte	.LEHB1-.LFB17
 1022 0015 00000000 		.4byte	.LEHE1-.LEHB1
 1023 0019 00000000 		.4byte	.L46-.LFB17
GAS LISTING /tmp/ccxZXmV1.s 			page 26


 1024 001d 00       		.byte	0
 1025 001e 00000000 		.4byte	.LEHB2-.LFB17
 1026 0022 00000000 		.4byte	.LEHE2-.LEHB2
 1027 0026 00000000 		.4byte	0
 1028 002a 00       		.byte	0
 1029 002b 00000000 		.4byte	.LEHB3-.LFB17
 1030 002f 00000000 		.4byte	.LEHE3-.LEHB3
 1031 0033 00000000 		.4byte	.L47-.LFB17
 1032 0037 00       		.byte	0
 1033 0038 00000000 		.4byte	.LEHB4-.LFB17
 1034 003c 00000000 		.4byte	.LEHE4-.LEHB4
 1035 0040 00000000 		.4byte	0
 1036 0044 00       		.byte	0
 1037 0045 00000000 		.4byte	.LEHB5-.LFB17
 1038 0049 00000000 		.4byte	.LEHE5-.LEHB5
 1039 004d 00000000 		.4byte	0
 1040 0051 00       		.byte	0
 1041 0052 00000000 		.4byte	.LEHB6-.LFB17
 1042 0056 00000000 		.4byte	.LEHE6-.LEHB6
 1043 005a 00000000 		.4byte	0
 1044 005e 00       		.byte	0
 1045              		.text
 1047              		.weak	_ZTV16ProducerKeyborad
 1048              		.section	.data.rel.ro.local._ZTV16ProducerKeyborad,"awG",@progbits,_ZTV16ProducerKeyborad,comdat
 1049              		.align	3
 1052              	_ZTV16ProducerKeyborad:
 1053 0000 00000000 		.dword	0
 1053      00000000 
 1054 0008 00000000 		.dword	0
 1054      00000000 
 1055 0010 00000000 		.dword	_ZN16ProducerKeyboradD1Ev
 1055      00000000 
 1056 0018 00000000 		.dword	_ZN16ProducerKeyboradD0Ev
 1056      00000000 
 1057 0020 00000000 		.dword	_ZN16ProducerKeyborad3runEv
 1057      00000000 
 1058              		.weak	_ZTV8Producer
 1059              		.section	.data.rel.ro.local._ZTV8Producer,"awG",@progbits,_ZTV8Producer,comdat
 1060              		.align	3
 1063              	_ZTV8Producer:
 1064 0000 00000000 		.dword	0
 1064      00000000 
 1065 0008 00000000 		.dword	0
 1065      00000000 
 1066 0010 00000000 		.dword	_ZN8ProducerD1Ev
 1066      00000000 
 1067 0018 00000000 		.dword	_ZN8ProducerD0Ev
 1067      00000000 
 1068 0020 00000000 		.dword	_ZN8Producer3runEv
 1068      00000000 
 1069              		.weak	_ZTV8Consumer
 1070              		.section	.data.rel.ro.local._ZTV8Consumer,"awG",@progbits,_ZTV8Consumer,comdat
 1071              		.align	3
 1074              	_ZTV8Consumer:
 1075 0000 00000000 		.dword	0
 1075      00000000 
 1076 0008 00000000 		.dword	0
GAS LISTING /tmp/ccxZXmV1.s 			page 27


 1076      00000000 
 1077 0010 00000000 		.dword	_ZN8ConsumerD1Ev
 1077      00000000 
 1078 0018 00000000 		.dword	_ZN8ConsumerD0Ev
 1078      00000000 
 1079 0020 00000000 		.dword	_ZN8Consumer3runEv
 1079      00000000 
 1080              		.bss
 1081              		.align	3
 1082              		.set	.LANCHOR0,. + 0
 1085              	_ZL9threadEnd:
 1086 0000 00000000 		.zero	4
 1087 0004 00000000 		.zero	4
 1090              	_ZL10waitForAll:
 1091 0008 00000000 		.zero	8
 1091      00000000 
 1092              		.text
 1093              	.Letext0:
 1094              		.file 2 "test/../h/../lib/hw.h"
 1095              		.file 3 "test/../h/syscall_cpp.hpp"
 1096              		.file 4 "test/buffer_CPP_API.hpp"
 1097              		.file 5 "test/../h/syscall_c.hpp"
 1098              		.file 6 "test/printing.hpp"
 4532              		.align	3
 4535              	DW.ref.__gxx_personality_v0:
 4536 0000 00000000 		.dword	__gxx_personality_v0
 4536      00000000 
 4537              		.ident	"GCC: (Ubuntu 9.4.0-1ubuntu1~20.04) 9.4.0"
 4538              		.section	.note.GNU-stack,"",@progbits
GAS LISTING /tmp/ccxZXmV1.s 			page 28


DEFINED SYMBOLS
                            *ABS*:0000000000000000 ConsumerProducer_CPP_API_test.cpp
     /tmp/ccxZXmV1.s:10     .text._ZN8Consumer3runEv:0000000000000000 _ZN8Consumer3runEv
     /tmp/ccxZXmV1.s:14     .text._ZN8Consumer3runEv:0000000000000000 .L0 
     /tmp/ccxZXmV1.s:16     .text._ZN8Consumer3runEv:0000000000000000 .L0 
     /tmp/ccxZXmV1.s:17     .text._ZN8Consumer3runEv:0000000000000004 .L0 
     /tmp/ccxZXmV1.s:23     .text._ZN8Consumer3runEv:0000000000000018 .L0 
     /tmp/ccxZXmV1.s:24     .text._ZN8Consumer3runEv:0000000000000018 .L0 
     /tmp/ccxZXmV1.s:25     .text._ZN8Consumer3runEv:0000000000000018 .L0 
     /tmp/ccxZXmV1.s:26     .text._ZN8Consumer3runEv:0000000000000018 .L0 
     /tmp/ccxZXmV1.s:27     .text._ZN8Consumer3runEv:0000000000000018 .L0 
     /tmp/ccxZXmV1.s:29     .text._ZN8Consumer3runEv:000000000000001c .L0 
     /tmp/ccxZXmV1.s:33     .text._ZN8Consumer3runEv:0000000000000020 .L0 
     /tmp/ccxZXmV1.s:34     .text._ZN8Consumer3runEv:0000000000000020 .L0 
     /tmp/ccxZXmV1.s:40     .text._ZN8Consumer3runEv:0000000000000028 .L0 
     /tmp/ccxZXmV1.s:41     .text._ZN8Consumer3runEv:0000000000000028 .L0 
     /tmp/ccxZXmV1.s:47     .text._ZN8Consumer3runEv:0000000000000034 .L0 
     /tmp/ccxZXmV1.s:48     .text._ZN8Consumer3runEv:0000000000000034 .L0 
     /tmp/ccxZXmV1.s:52     .text._ZN8Consumer3runEv:0000000000000040 .L0 
     /tmp/ccxZXmV1.s:53     .text._ZN8Consumer3runEv:0000000000000040 .L0 
     /tmp/ccxZXmV1.s:55     .text._ZN8Consumer3runEv:0000000000000044 .L0 
     /tmp/ccxZXmV1.s:59     .text._ZN8Consumer3runEv:0000000000000050 .L0 
     /tmp/ccxZXmV1.s:60     .text._ZN8Consumer3runEv:0000000000000050 .L0 
     /tmp/ccxZXmV1.s:64     .text._ZN8Consumer3runEv:0000000000000058 .L0 
     /tmp/ccxZXmV1.s:65     .text._ZN8Consumer3runEv:0000000000000058 .L0 
     /tmp/ccxZXmV1.s:70     .text._ZN8Consumer3runEv:0000000000000064 .L0 
     /tmp/ccxZXmV1.s:71     .text._ZN8Consumer3runEv:0000000000000064 .L0 
     /tmp/ccxZXmV1.s:75     .text._ZN8Consumer3runEv:000000000000006c .L0 
     /tmp/ccxZXmV1.s:81     .text._ZN8Consumer3runEv:0000000000000074 .L0 
     /tmp/ccxZXmV1.s:82     .text._ZN8Consumer3runEv:0000000000000074 .L0 
     /tmp/ccxZXmV1.s:84     .text._ZN8Consumer3runEv:0000000000000078 .L0 
     /tmp/ccxZXmV1.s:88     .text._ZN8Consumer3runEv:0000000000000084 .L0 
     /tmp/ccxZXmV1.s:89     .text._ZN8Consumer3runEv:0000000000000084 .L0 
     /tmp/ccxZXmV1.s:96     .text._ZN8Consumer3runEv:0000000000000090 .L0 
     /tmp/ccxZXmV1.s:97     .text._ZN8Consumer3runEv:0000000000000090 .L0 
     /tmp/ccxZXmV1.s:98     .text._ZN8Consumer3runEv:0000000000000090 .L0 
     /tmp/ccxZXmV1.s:100    .text._ZN8Consumer3runEv:0000000000000094 .L0 
     /tmp/ccxZXmV1.s:104    .text._ZN8Consumer3runEv:00000000000000a0 .L0 
     /tmp/ccxZXmV1.s:106    .text._ZN8Consumer3runEv:00000000000000a4 .L0 
     /tmp/ccxZXmV1.s:108    .text._ZN8Consumer3runEv:00000000000000a8 .L0 
     /tmp/ccxZXmV1.s:112    .text._ZN8Consumer3runEv:00000000000000b4 .L0 
     /tmp/ccxZXmV1.s:113    .text._ZN8Consumer3runEv:00000000000000b8 .L0 
     /tmp/ccxZXmV1.s:115    .text._ZN8Consumer3runEv:00000000000000bc .L0 
     /tmp/ccxZXmV1.s:116    .text._ZN8Consumer3runEv:00000000000000bc .L0 
     /tmp/ccxZXmV1.s:118    .text._ZN8Consumer3runEv:00000000000000c0 .L0 
     /tmp/ccxZXmV1.s:120    .text._ZN8Consumer3runEv:00000000000000c4 .L0 
     /tmp/ccxZXmV1.s:123    .text._ZN8Consumer3runEv:00000000000000c8 .L0 
     /tmp/ccxZXmV1.s:126    .text._ZN8Consumer3runEv:00000000000000cc .L0 
     /tmp/ccxZXmV1.s:128    .text._ZN8Consumer3runEv:00000000000000d0 .L0 
     /tmp/ccxZXmV1.s:135    .text._ZN8ConsumerD2Ev:0000000000000000 _ZN8ConsumerD2Ev
     /tmp/ccxZXmV1.s:138    .text._ZN8ConsumerD2Ev:0000000000000000 .L0 
     /tmp/ccxZXmV1.s:140    .text._ZN8ConsumerD2Ev:0000000000000000 .L0 
     /tmp/ccxZXmV1.s:141    .text._ZN8ConsumerD2Ev:0000000000000004 .L0 
     /tmp/ccxZXmV1.s:144    .text._ZN8ConsumerD2Ev:000000000000000c .L0 
     /tmp/ccxZXmV1.s:145    .text._ZN8ConsumerD2Ev:000000000000000c .L0 
     /tmp/ccxZXmV1.s:147    .text._ZN8ConsumerD2Ev:0000000000000010 .L0 
     /tmp/ccxZXmV1.s:1074   .data.rel.ro.local._ZTV8Consumer:0000000000000000 _ZTV8Consumer
GAS LISTING /tmp/ccxZXmV1.s 			page 29


     /tmp/ccxZXmV1.s:150    .text._ZN8ConsumerD2Ev:0000000000000010 .L0 
     /tmp/ccxZXmV1.s:156    .text._ZN8ConsumerD2Ev:0000000000000028 .L0 
     /tmp/ccxZXmV1.s:158    .text._ZN8ConsumerD2Ev:000000000000002c .L0 
     /tmp/ccxZXmV1.s:159    .text._ZN8ConsumerD2Ev:000000000000002c .L0 
     /tmp/ccxZXmV1.s:161    .text._ZN8ConsumerD2Ev:0000000000000030 .L0 
     /tmp/ccxZXmV1.s:163    .text._ZN8ConsumerD2Ev:0000000000000034 .L0 
     /tmp/ccxZXmV1.s:135    .text._ZN8ConsumerD2Ev:0000000000000000 _ZN8ConsumerD1Ev
     /tmp/ccxZXmV1.s:172    .text._ZN8ConsumerD0Ev:0000000000000000 _ZN8ConsumerD0Ev
     /tmp/ccxZXmV1.s:175    .text._ZN8ConsumerD0Ev:0000000000000000 .L0 
     /tmp/ccxZXmV1.s:177    .text._ZN8ConsumerD0Ev:0000000000000000 .L0 
     /tmp/ccxZXmV1.s:178    .text._ZN8ConsumerD0Ev:0000000000000004 .L0 
     /tmp/ccxZXmV1.s:182    .text._ZN8ConsumerD0Ev:0000000000000010 .L0 
     /tmp/ccxZXmV1.s:183    .text._ZN8ConsumerD0Ev:0000000000000010 .L0 
     /tmp/ccxZXmV1.s:184    .text._ZN8ConsumerD0Ev:0000000000000010 .L0 
     /tmp/ccxZXmV1.s:186    .text._ZN8ConsumerD0Ev:0000000000000014 .L0 
     /tmp/ccxZXmV1.s:192    .text._ZN8ConsumerD0Ev:0000000000000018 .L0 
     /tmp/ccxZXmV1.s:202    .text._ZN8ConsumerD0Ev:000000000000003c .L0 
     /tmp/ccxZXmV1.s:204    .text._ZN8ConsumerD0Ev:0000000000000040 .L0 
     /tmp/ccxZXmV1.s:205    .text._ZN8ConsumerD0Ev:0000000000000040 .L0 
     /tmp/ccxZXmV1.s:207    .text._ZN8ConsumerD0Ev:0000000000000044 .L0 
     /tmp/ccxZXmV1.s:210    .text._ZN8ConsumerD0Ev:0000000000000048 .L0 
     /tmp/ccxZXmV1.s:212    .text._ZN8ConsumerD0Ev:000000000000004c .L0 
     /tmp/ccxZXmV1.s:219    .text._ZN16ProducerKeyboradD2Ev:0000000000000000 _ZN16ProducerKeyboradD2Ev
     /tmp/ccxZXmV1.s:222    .text._ZN16ProducerKeyboradD2Ev:0000000000000000 .L0 
     /tmp/ccxZXmV1.s:224    .text._ZN16ProducerKeyboradD2Ev:0000000000000000 .L0 
     /tmp/ccxZXmV1.s:225    .text._ZN16ProducerKeyboradD2Ev:0000000000000004 .L0 
     /tmp/ccxZXmV1.s:228    .text._ZN16ProducerKeyboradD2Ev:000000000000000c .L0 
     /tmp/ccxZXmV1.s:229    .text._ZN16ProducerKeyboradD2Ev:000000000000000c .L0 
     /tmp/ccxZXmV1.s:231    .text._ZN16ProducerKeyboradD2Ev:0000000000000010 .L0 
     /tmp/ccxZXmV1.s:1052   .data.rel.ro.local._ZTV16ProducerKeyborad:0000000000000000 _ZTV16ProducerKeyborad
     /tmp/ccxZXmV1.s:234    .text._ZN16ProducerKeyboradD2Ev:0000000000000010 .L0 
     /tmp/ccxZXmV1.s:240    .text._ZN16ProducerKeyboradD2Ev:0000000000000028 .L0 
     /tmp/ccxZXmV1.s:242    .text._ZN16ProducerKeyboradD2Ev:000000000000002c .L0 
     /tmp/ccxZXmV1.s:243    .text._ZN16ProducerKeyboradD2Ev:000000000000002c .L0 
     /tmp/ccxZXmV1.s:245    .text._ZN16ProducerKeyboradD2Ev:0000000000000030 .L0 
     /tmp/ccxZXmV1.s:247    .text._ZN16ProducerKeyboradD2Ev:0000000000000034 .L0 
     /tmp/ccxZXmV1.s:219    .text._ZN16ProducerKeyboradD2Ev:0000000000000000 _ZN16ProducerKeyboradD1Ev
     /tmp/ccxZXmV1.s:256    .text._ZN16ProducerKeyboradD0Ev:0000000000000000 _ZN16ProducerKeyboradD0Ev
     /tmp/ccxZXmV1.s:259    .text._ZN16ProducerKeyboradD0Ev:0000000000000000 .L0 
     /tmp/ccxZXmV1.s:261    .text._ZN16ProducerKeyboradD0Ev:0000000000000000 .L0 
     /tmp/ccxZXmV1.s:262    .text._ZN16ProducerKeyboradD0Ev:0000000000000004 .L0 
     /tmp/ccxZXmV1.s:266    .text._ZN16ProducerKeyboradD0Ev:0000000000000010 .L0 
     /tmp/ccxZXmV1.s:267    .text._ZN16ProducerKeyboradD0Ev:0000000000000010 .L0 
     /tmp/ccxZXmV1.s:268    .text._ZN16ProducerKeyboradD0Ev:0000000000000010 .L0 
     /tmp/ccxZXmV1.s:270    .text._ZN16ProducerKeyboradD0Ev:0000000000000014 .L0 
     /tmp/ccxZXmV1.s:276    .text._ZN16ProducerKeyboradD0Ev:0000000000000018 .L0 
     /tmp/ccxZXmV1.s:286    .text._ZN16ProducerKeyboradD0Ev:000000000000003c .L0 
     /tmp/ccxZXmV1.s:288    .text._ZN16ProducerKeyboradD0Ev:0000000000000040 .L0 
     /tmp/ccxZXmV1.s:289    .text._ZN16ProducerKeyboradD0Ev:0000000000000040 .L0 
     /tmp/ccxZXmV1.s:291    .text._ZN16ProducerKeyboradD0Ev:0000000000000044 .L0 
     /tmp/ccxZXmV1.s:294    .text._ZN16ProducerKeyboradD0Ev:0000000000000048 .L0 
     /tmp/ccxZXmV1.s:296    .text._ZN16ProducerKeyboradD0Ev:000000000000004c .L0 
     /tmp/ccxZXmV1.s:303    .text._ZN8ProducerD2Ev:0000000000000000 _ZN8ProducerD2Ev
     /tmp/ccxZXmV1.s:306    .text._ZN8ProducerD2Ev:0000000000000000 .L0 
     /tmp/ccxZXmV1.s:308    .text._ZN8ProducerD2Ev:0000000000000000 .L0 
     /tmp/ccxZXmV1.s:309    .text._ZN8ProducerD2Ev:0000000000000004 .L0 
     /tmp/ccxZXmV1.s:312    .text._ZN8ProducerD2Ev:000000000000000c .L0 
GAS LISTING /tmp/ccxZXmV1.s 			page 30


     /tmp/ccxZXmV1.s:313    .text._ZN8ProducerD2Ev:000000000000000c .L0 
     /tmp/ccxZXmV1.s:315    .text._ZN8ProducerD2Ev:0000000000000010 .L0 
     /tmp/ccxZXmV1.s:1063   .data.rel.ro.local._ZTV8Producer:0000000000000000 _ZTV8Producer
     /tmp/ccxZXmV1.s:318    .text._ZN8ProducerD2Ev:0000000000000010 .L0 
     /tmp/ccxZXmV1.s:324    .text._ZN8ProducerD2Ev:0000000000000028 .L0 
     /tmp/ccxZXmV1.s:326    .text._ZN8ProducerD2Ev:000000000000002c .L0 
     /tmp/ccxZXmV1.s:327    .text._ZN8ProducerD2Ev:000000000000002c .L0 
     /tmp/ccxZXmV1.s:329    .text._ZN8ProducerD2Ev:0000000000000030 .L0 
     /tmp/ccxZXmV1.s:331    .text._ZN8ProducerD2Ev:0000000000000034 .L0 
     /tmp/ccxZXmV1.s:303    .text._ZN8ProducerD2Ev:0000000000000000 _ZN8ProducerD1Ev
     /tmp/ccxZXmV1.s:340    .text._ZN8ProducerD0Ev:0000000000000000 _ZN8ProducerD0Ev
     /tmp/ccxZXmV1.s:343    .text._ZN8ProducerD0Ev:0000000000000000 .L0 
     /tmp/ccxZXmV1.s:345    .text._ZN8ProducerD0Ev:0000000000000000 .L0 
     /tmp/ccxZXmV1.s:346    .text._ZN8ProducerD0Ev:0000000000000004 .L0 
     /tmp/ccxZXmV1.s:350    .text._ZN8ProducerD0Ev:0000000000000010 .L0 
     /tmp/ccxZXmV1.s:351    .text._ZN8ProducerD0Ev:0000000000000010 .L0 
     /tmp/ccxZXmV1.s:352    .text._ZN8ProducerD0Ev:0000000000000010 .L0 
     /tmp/ccxZXmV1.s:354    .text._ZN8ProducerD0Ev:0000000000000014 .L0 
     /tmp/ccxZXmV1.s:360    .text._ZN8ProducerD0Ev:0000000000000018 .L0 
     /tmp/ccxZXmV1.s:370    .text._ZN8ProducerD0Ev:000000000000003c .L0 
     /tmp/ccxZXmV1.s:372    .text._ZN8ProducerD0Ev:0000000000000040 .L0 
     /tmp/ccxZXmV1.s:373    .text._ZN8ProducerD0Ev:0000000000000040 .L0 
     /tmp/ccxZXmV1.s:375    .text._ZN8ProducerD0Ev:0000000000000044 .L0 
     /tmp/ccxZXmV1.s:378    .text._ZN8ProducerD0Ev:0000000000000048 .L0 
     /tmp/ccxZXmV1.s:380    .text._ZN8ProducerD0Ev:000000000000004c .L0 
     /tmp/ccxZXmV1.s:387    .text._ZN16ProducerKeyborad3runEv:0000000000000000 _ZN16ProducerKeyborad3runEv
     /tmp/ccxZXmV1.s:390    .text._ZN16ProducerKeyborad3runEv:0000000000000000 .L0 
     /tmp/ccxZXmV1.s:392    .text._ZN16ProducerKeyborad3runEv:0000000000000000 .L0 
     /tmp/ccxZXmV1.s:393    .text._ZN16ProducerKeyborad3runEv:0000000000000004 .L0 
     /tmp/ccxZXmV1.s:397    .text._ZN16ProducerKeyborad3runEv:0000000000000010 .L0 
     /tmp/ccxZXmV1.s:398    .text._ZN16ProducerKeyborad3runEv:0000000000000010 .L0 
     /tmp/ccxZXmV1.s:399    .text._ZN16ProducerKeyborad3runEv:0000000000000010 .L0 
     /tmp/ccxZXmV1.s:401    .text._ZN16ProducerKeyborad3runEv:0000000000000014 .L0 
     /tmp/ccxZXmV1.s:404    .text._ZN16ProducerKeyborad3runEv:0000000000000018 .L0 
     /tmp/ccxZXmV1.s:407    .text._ZN16ProducerKeyborad3runEv:0000000000000018 .L0 
     /tmp/ccxZXmV1.s:408    .text._ZN16ProducerKeyborad3runEv:0000000000000018 .L0 
     /tmp/ccxZXmV1.s:409    .text._ZN16ProducerKeyborad3runEv:0000000000000018 .L0 
     /tmp/ccxZXmV1.s:410    .text._ZN16ProducerKeyborad3runEv:0000000000000018 .L0 
     /tmp/ccxZXmV1.s:415    .text._ZN16ProducerKeyborad3runEv:0000000000000024 .L0 
     /tmp/ccxZXmV1.s:418    .text._ZN16ProducerKeyborad3runEv:000000000000002c .L0 
     /tmp/ccxZXmV1.s:420    .text._ZN16ProducerKeyborad3runEv:0000000000000030 .L0 
     /tmp/ccxZXmV1.s:425    .text._ZN16ProducerKeyborad3runEv:000000000000003c .L0 
     /tmp/ccxZXmV1.s:426    .text._ZN16ProducerKeyborad3runEv:000000000000003c .L0 
     /tmp/ccxZXmV1.s:430    .text._ZN16ProducerKeyborad3runEv:0000000000000040 .L0 
     /tmp/ccxZXmV1.s:431    .text._ZN16ProducerKeyborad3runEv:0000000000000040 .L0 
     /tmp/ccxZXmV1.s:434    .text._ZN16ProducerKeyborad3runEv:000000000000004c .L0 
     /tmp/ccxZXmV1.s:436    .text._ZN16ProducerKeyborad3runEv:0000000000000050 .L0 
     /tmp/ccxZXmV1.s:442    .text._ZN16ProducerKeyborad3runEv:0000000000000060 .L0 
     /tmp/ccxZXmV1.s:444    .text._ZN16ProducerKeyborad3runEv:0000000000000064 .L0 
     /tmp/ccxZXmV1.s:448    .text._ZN16ProducerKeyborad3runEv:0000000000000070 .L0 
     /tmp/ccxZXmV1.s:449    .text._ZN16ProducerKeyborad3runEv:0000000000000074 .L0 
     /tmp/ccxZXmV1.s:451    .text._ZN16ProducerKeyborad3runEv:0000000000000078 .L0 
     /tmp/ccxZXmV1.s:452    .text._ZN16ProducerKeyborad3runEv:0000000000000078 .L0 
     /tmp/ccxZXmV1.s:454    .text._ZN16ProducerKeyborad3runEv:000000000000007c .L0 
     /tmp/ccxZXmV1.s:457    .text._ZN16ProducerKeyborad3runEv:0000000000000080 .L0 
     /tmp/ccxZXmV1.s:459    .text._ZN16ProducerKeyborad3runEv:0000000000000084 .L0 
     /tmp/ccxZXmV1.s:466    .text._ZN8Producer3runEv:0000000000000000 _ZN8Producer3runEv
GAS LISTING /tmp/ccxZXmV1.s 			page 31


     /tmp/ccxZXmV1.s:469    .text._ZN8Producer3runEv:0000000000000000 .L0 
     /tmp/ccxZXmV1.s:471    .text._ZN8Producer3runEv:0000000000000000 .L0 
     /tmp/ccxZXmV1.s:472    .text._ZN8Producer3runEv:0000000000000004 .L0 
     /tmp/ccxZXmV1.s:477    .text._ZN8Producer3runEv:0000000000000014 .L0 
     /tmp/ccxZXmV1.s:478    .text._ZN8Producer3runEv:0000000000000014 .L0 
     /tmp/ccxZXmV1.s:479    .text._ZN8Producer3runEv:0000000000000014 .L0 
     /tmp/ccxZXmV1.s:480    .text._ZN8Producer3runEv:0000000000000014 .L0 
     /tmp/ccxZXmV1.s:482    .text._ZN8Producer3runEv:0000000000000018 .L0 
     /tmp/ccxZXmV1.s:486    .text._ZN8Producer3runEv:000000000000001c .L0 
     /tmp/ccxZXmV1.s:487    .text._ZN8Producer3runEv:000000000000001c .L0 
     /tmp/ccxZXmV1.s:491    .text._ZN8Producer3runEv:0000000000000020 .L0 
     /tmp/ccxZXmV1.s:492    .text._ZN8Producer3runEv:0000000000000020 .L0 
     /tmp/ccxZXmV1.s:495    .text._ZN8Producer3runEv:000000000000002c .L0 
     /tmp/ccxZXmV1.s:497    .text._ZN8Producer3runEv:0000000000000030 .L0 
     /tmp/ccxZXmV1.s:499    .text._ZN8Producer3runEv:0000000000000034 .L0 
     /tmp/ccxZXmV1.s:504    .text._ZN8Producer3runEv:0000000000000044 .L0 
     /tmp/ccxZXmV1.s:505    .text._ZN8Producer3runEv:0000000000000044 .L0 
     /tmp/ccxZXmV1.s:509    .text._ZN8Producer3runEv:000000000000004c .L0 
     /tmp/ccxZXmV1.s:510    .text._ZN8Producer3runEv:000000000000004c .L0 
     /tmp/ccxZXmV1.s:512    .text._ZN8Producer3runEv:0000000000000050 .L0 
     /tmp/ccxZXmV1.s:514    .text._ZN8Producer3runEv:0000000000000054 .L0 
     /tmp/ccxZXmV1.s:516    .text._ZN8Producer3runEv:0000000000000058 .L0 
     /tmp/ccxZXmV1.s:521    .text._ZN8Producer3runEv:0000000000000068 .L0 
     /tmp/ccxZXmV1.s:524    .text._ZN8Producer3runEv:000000000000006c .L0 
     /tmp/ccxZXmV1.s:526    .text._ZN8Producer3runEv:0000000000000070 .L0 
     /tmp/ccxZXmV1.s:530    .text._ZN8Producer3runEv:000000000000007c .L0 
     /tmp/ccxZXmV1.s:531    .text._ZN8Producer3runEv:0000000000000080 .L0 
     /tmp/ccxZXmV1.s:533    .text._ZN8Producer3runEv:0000000000000084 .L0 
     /tmp/ccxZXmV1.s:534    .text._ZN8Producer3runEv:0000000000000084 .L0 
     /tmp/ccxZXmV1.s:536    .text._ZN8Producer3runEv:0000000000000088 .L0 
     /tmp/ccxZXmV1.s:539    .text._ZN8Producer3runEv:000000000000008c .L0 
     /tmp/ccxZXmV1.s:542    .text._ZN8Producer3runEv:0000000000000090 .L0 
     /tmp/ccxZXmV1.s:544    .text._ZN8Producer3runEv:0000000000000094 .L0 
     /tmp/ccxZXmV1.s:573    .text:0000000000000000 _Z20testConsumerProducerv
     /tmp/ccxZXmV1.s:576    .text:0000000000000000 .L0 
     /tmp/ccxZXmV1.s:4535   .data.rel.local.DW.ref.__gxx_personality_v0:0000000000000000 DW.ref.__gxx_personality_v0
     /tmp/ccxZXmV1.s:579    .text:0000000000000000 .L0 
     /tmp/ccxZXmV1.s:580    .text:0000000000000004 .L0 
     /tmp/ccxZXmV1.s:591    .text:000000000000002c .L0 
     /tmp/ccxZXmV1.s:592    .text:000000000000002c .L0 
     /tmp/ccxZXmV1.s:593    .text:000000000000002c .L0 
     /tmp/ccxZXmV1.s:594    .text:000000000000002c .L0 
     /tmp/ccxZXmV1.s:595    .text:000000000000002c .L0 
     /tmp/ccxZXmV1.s:596    .text:000000000000002c .L0 
     /tmp/ccxZXmV1.s:597    .text:000000000000002c .L0 
     /tmp/ccxZXmV1.s:598    .text:000000000000002c .L0 
     /tmp/ccxZXmV1.s:599    .text:000000000000002c .L0 
     /tmp/ccxZXmV1.s:600    .text:000000000000002c .L0 
     /tmp/ccxZXmV1.s:602    .text:0000000000000030 .L0 
     /tmp/ccxZXmV1.s:604    .text:0000000000000030 .L0 
     /tmp/ccxZXmV1.s:606    .text:0000000000000034 .L0 
     /tmp/ccxZXmV1.s:607    .text:0000000000000034 .L0 
     /tmp/ccxZXmV1.s:608    .text:0000000000000034 .L0 
     /tmp/ccxZXmV1.s:609    .text:0000000000000034 .L0 
     /tmp/ccxZXmV1.s:614    .text:0000000000000044 .L0 
     /tmp/ccxZXmV1.s:615    .text:0000000000000044 .L0 
     /tmp/ccxZXmV1.s:621    .text:0000000000000058 .L0 
GAS LISTING /tmp/ccxZXmV1.s 			page 32


     /tmp/ccxZXmV1.s:622    .text:0000000000000058 .L0 
     /tmp/ccxZXmV1.s:628    .text:0000000000000068 .L0 
     /tmp/ccxZXmV1.s:629    .text:0000000000000068 .L0 
     /tmp/ccxZXmV1.s:633    .text:0000000000000078 .L0 
     /tmp/ccxZXmV1.s:634    .text:0000000000000078 .L0 
     /tmp/ccxZXmV1.s:639    .text:0000000000000088 .L0 
     /tmp/ccxZXmV1.s:640    .text:0000000000000088 .L0 
     /tmp/ccxZXmV1.s:646    .text:0000000000000098 .L0 
     /tmp/ccxZXmV1.s:647    .text:0000000000000098 .L0 
     /tmp/ccxZXmV1.s:651    .text:00000000000000a8 .L0 
     /tmp/ccxZXmV1.s:652    .text:00000000000000a8 .L0 
     /tmp/ccxZXmV1.s:658    .text:00000000000000bc .L0 
     /tmp/ccxZXmV1.s:659    .text:00000000000000bc .L0 
     /tmp/ccxZXmV1.s:663    .text:00000000000000cc .L0 
     /tmp/ccxZXmV1.s:664    .text:00000000000000cc .L0 
     /tmp/ccxZXmV1.s:670    .text:00000000000000e0 .L0 
     /tmp/ccxZXmV1.s:671    .text:00000000000000e0 .L0 
     /tmp/ccxZXmV1.s:675    .text:00000000000000f0 .L0 
     /tmp/ccxZXmV1.s:677    .text:00000000000000f4 .L0 
     /tmp/ccxZXmV1.s:679    .text:00000000000000f8 .L0 
     /tmp/ccxZXmV1.s:680    .text:00000000000000f8 .L0 
     /tmp/ccxZXmV1.s:693    .text:0000000000000118 .L0 
     /tmp/ccxZXmV1.s:694    .text:0000000000000118 .L0 
     /tmp/ccxZXmV1.s:699    .text:0000000000000128 .L0 
     /tmp/ccxZXmV1.s:702    .text:000000000000012c .L0 
     /tmp/ccxZXmV1.s:703    .text:000000000000012c .L0 
     /tmp/ccxZXmV1.s:708    .text:000000000000013c .L0 
     /tmp/ccxZXmV1.s:713    .text:0000000000000144 .L0 
     /tmp/ccxZXmV1.s:714    .text:0000000000000144 .L0 
     /tmp/ccxZXmV1.s:725    .text:0000000000000160 .L0 
     /tmp/ccxZXmV1.s:729    .text:000000000000016c .L0 
     /tmp/ccxZXmV1.s:730    .text:000000000000016c .L0 
     /tmp/ccxZXmV1.s:737    .text:0000000000000180 .L0 
     /tmp/ccxZXmV1.s:738    .text:0000000000000180 .L0 
     /tmp/ccxZXmV1.s:741    .text:0000000000000184 .L0 
     /tmp/ccxZXmV1.s:751    .text:00000000000001a0 .L0 
     /tmp/ccxZXmV1.s:752    .text:00000000000001a0 .L0 
     /tmp/ccxZXmV1.s:759    .text:00000000000001b4 .L0 
     /tmp/ccxZXmV1.s:760    .text:00000000000001b4 .L0 
     /tmp/ccxZXmV1.s:762    .text:00000000000001b8 .L0 
     /tmp/ccxZXmV1.s:763    .text:00000000000001b8 .L0 
     /tmp/ccxZXmV1.s:765    .text:00000000000001bc .L0 
     /tmp/ccxZXmV1.s:766    .text:00000000000001bc .L0 
     /tmp/ccxZXmV1.s:775    .text:00000000000001cc .L0 
     /tmp/ccxZXmV1.s:782    .text:00000000000001dc .L0 
     /tmp/ccxZXmV1.s:783    .text:00000000000001dc .L0 
     /tmp/ccxZXmV1.s:786    .text:00000000000001e4 .L0 
     /tmp/ccxZXmV1.s:787    .text:00000000000001e4 .L0 
     /tmp/ccxZXmV1.s:789    .text:00000000000001e8 .L0 
     /tmp/ccxZXmV1.s:790    .text:00000000000001e8 .L0 
     /tmp/ccxZXmV1.s:792    .text:00000000000001ec .L0 
     /tmp/ccxZXmV1.s:793    .text:00000000000001ec .L0 
     /tmp/ccxZXmV1.s:796    .text:00000000000001f4 .L0 
     /tmp/ccxZXmV1.s:797    .text:00000000000001f4 .L0 
     /tmp/ccxZXmV1.s:803    .text:0000000000000200 .L0 
     /tmp/ccxZXmV1.s:810    .text:0000000000000210 .L0 
     /tmp/ccxZXmV1.s:812    .text:0000000000000214 .L0 
GAS LISTING /tmp/ccxZXmV1.s 			page 33


     /tmp/ccxZXmV1.s:813    .text:0000000000000214 .L0 
     /tmp/ccxZXmV1.s:817    .text:000000000000021c .L0 
     /tmp/ccxZXmV1.s:821    .text:0000000000000220 .L0 
     /tmp/ccxZXmV1.s:823    .text:0000000000000224 .L0 
     /tmp/ccxZXmV1.s:824    .text:0000000000000224 .L0 
     /tmp/ccxZXmV1.s:830    .text:0000000000000238 .L0 
     /tmp/ccxZXmV1.s:831    .text:0000000000000238 .L0 
     /tmp/ccxZXmV1.s:833    .text:000000000000023c .L0 
     /tmp/ccxZXmV1.s:834    .text:000000000000023c .L0 
     /tmp/ccxZXmV1.s:837    .text:0000000000000248 .L0 
     /tmp/ccxZXmV1.s:838    .text:0000000000000248 .L0 
     /tmp/ccxZXmV1.s:844    .text:0000000000000254 .L0 
     /tmp/ccxZXmV1.s:851    .text:0000000000000264 .L0 
     /tmp/ccxZXmV1.s:855    .text:0000000000000270 .L0 
     /tmp/ccxZXmV1.s:856    .text:0000000000000270 .L0 
     /tmp/ccxZXmV1.s:859    .text:0000000000000278 .L0 
     /tmp/ccxZXmV1.s:866    .text:0000000000000280 .L0 
     /tmp/ccxZXmV1.s:867    .text:0000000000000280 .L0 
     /tmp/ccxZXmV1.s:871    .text:0000000000000288 .L0 
     /tmp/ccxZXmV1.s:875    .text:000000000000028c .L0 
     /tmp/ccxZXmV1.s:877    .text:0000000000000290 .L0 
     /tmp/ccxZXmV1.s:878    .text:0000000000000290 .L0 
     /tmp/ccxZXmV1.s:882    .text:00000000000002a0 .L0 
     /tmp/ccxZXmV1.s:889    .text:00000000000002a8 .L0 
     /tmp/ccxZXmV1.s:890    .text:00000000000002a8 .L0 
     /tmp/ccxZXmV1.s:892    .text:00000000000002b0 .L0 
     /tmp/ccxZXmV1.s:894    .text:00000000000002b4 .L0 
     /tmp/ccxZXmV1.s:901    .text:00000000000002c0 .L0 
     /tmp/ccxZXmV1.s:909    .text:00000000000002c8 .L0 
     /tmp/ccxZXmV1.s:913    .text:00000000000002cc .L0 
     /tmp/ccxZXmV1.s:915    .text:00000000000002d0 .L0 
     /tmp/ccxZXmV1.s:916    .text:00000000000002d0 .L0 
     /tmp/ccxZXmV1.s:920    .text:00000000000002dc .L0 
     /tmp/ccxZXmV1.s:922    .text:00000000000002e0 .L0 
     /tmp/ccxZXmV1.s:930    .text:00000000000002f0 .L0 
     /tmp/ccxZXmV1.s:931    .text:00000000000002f0 .L0 
     /tmp/ccxZXmV1.s:933    .text:00000000000002f4 .L0 
     /tmp/ccxZXmV1.s:940    .text:0000000000000304 .L0 
     /tmp/ccxZXmV1.s:941    .text:0000000000000304 .L0 
     /tmp/ccxZXmV1.s:943    .text:0000000000000308 .L0 
     /tmp/ccxZXmV1.s:955    .text:0000000000000324 .L0 
     /tmp/ccxZXmV1.s:956    .text:0000000000000328 .L0 
     /tmp/ccxZXmV1.s:957    .text:0000000000000328 .L0 
     /tmp/ccxZXmV1.s:959    .text:000000000000032c .L0 
     /tmp/ccxZXmV1.s:961    .text:0000000000000330 .L0 
     /tmp/ccxZXmV1.s:963    .text:0000000000000334 .L0 
     /tmp/ccxZXmV1.s:965    .text:0000000000000338 .L0 
     /tmp/ccxZXmV1.s:967    .text:000000000000033c .L0 
     /tmp/ccxZXmV1.s:970    .text:0000000000000340 .L0 
     /tmp/ccxZXmV1.s:972    .text:0000000000000344 .L0 
     /tmp/ccxZXmV1.s:974    .text:0000000000000348 .L0 
     /tmp/ccxZXmV1.s:976    .text:000000000000034c .L0 
     /tmp/ccxZXmV1.s:978    .text:0000000000000350 .L0 
     /tmp/ccxZXmV1.s:980    .text:0000000000000354 .L0 
     /tmp/ccxZXmV1.s:984    .text:0000000000000358 .L0 
     /tmp/ccxZXmV1.s:988    .text:000000000000035c .L0 
     /tmp/ccxZXmV1.s:1000   .text:0000000000000378 .L0 
GAS LISTING /tmp/ccxZXmV1.s 			page 34


     /tmp/ccxZXmV1.s:1008   .text:0000000000000390 .L0 
     /tmp/ccxZXmV1.s:1082   .bss:0000000000000000 .LANCHOR0
     /tmp/ccxZXmV1.s:1085   .bss:0000000000000000 _ZL9threadEnd
     /tmp/ccxZXmV1.s:1090   .bss:0000000000000008 _ZL10waitForAll
     /tmp/ccxZXmV1.s:131    .text._ZN8Consumer3runEv:00000000000000d0 .L0 
     /tmp/ccxZXmV1.s:168    .text._ZN8ConsumerD2Ev:0000000000000034 .L0 
     /tmp/ccxZXmV1.s:215    .text._ZN8ConsumerD0Ev:000000000000004c .L0 
     /tmp/ccxZXmV1.s:252    .text._ZN16ProducerKeyboradD2Ev:0000000000000034 .L0 
     /tmp/ccxZXmV1.s:299    .text._ZN16ProducerKeyboradD0Ev:000000000000004c .L0 
     /tmp/ccxZXmV1.s:336    .text._ZN8ProducerD2Ev:0000000000000034 .L0 
     /tmp/ccxZXmV1.s:383    .text._ZN8ProducerD0Ev:000000000000004c .L0 
     /tmp/ccxZXmV1.s:462    .text._ZN16ProducerKeyborad3runEv:0000000000000084 .L0 
     /tmp/ccxZXmV1.s:547    .text._ZN8Producer3runEv:0000000000000094 .L0 
     /tmp/ccxZXmV1.s:1099   .text:0000000000000390 .L0 
     /tmp/ccxZXmV1.s:549    .rodata.str1.8:0000000000000000 .LC0
     /tmp/ccxZXmV1.s:609    .text:0000000000000034 .L0 
     /tmp/ccxZXmV1.s:552    .rodata.str1.8:0000000000000020 .LC1
     /tmp/ccxZXmV1.s:629    .text:0000000000000068 .L0 
     /tmp/ccxZXmV1.s:555    .rodata.str1.8:0000000000000040 .LC2
     /tmp/ccxZXmV1.s:647    .text:0000000000000098 .L0 
     /tmp/ccxZXmV1.s:558    .rodata.str1.8:0000000000000058 .LC3
     /tmp/ccxZXmV1.s:659    .text:00000000000000bc .L0 
     /tmp/ccxZXmV1.s:561    .rodata.str1.8:0000000000000070 .LC4
     /tmp/ccxZXmV1.s:671    .text:00000000000000e0 .L0 
     /tmp/ccxZXmV1.s:564    .rodata.str1.8:0000000000000078 .LC5
     /tmp/ccxZXmV1.s:694    .text:0000000000000118 .L0 
     /tmp/ccxZXmV1.s:567    .rodata.str1.8:00000000000000b8 .LC6
     /tmp/ccxZXmV1.s:703    .text:000000000000012c .L0 
     /tmp/ccxZXmV1.s:725    .text:0000000000000160 .L0 
     /tmp/ccxZXmV1.s:775    .text:00000000000001cc .L0 
     /tmp/ccxZXmV1.s:803    .text:0000000000000200 .L0 
     /tmp/ccxZXmV1.s:834    .text:000000000000023c .L0 
     /tmp/ccxZXmV1.s:844    .text:0000000000000254 .L0 
     /tmp/ccxZXmV1.s:878    .text:0000000000000290 .L0 
     /tmp/ccxZXmV1.s:890    .text:00000000000002a8 .L0 
     /tmp/ccxZXmV1.s:691    .text:0000000000000118 .L49
     /tmp/ccxZXmV1.s:700    .text:000000000000012c .L50
     /tmp/ccxZXmV1.s:710    .text:0000000000000144 .L51
     /tmp/ccxZXmV1.s:707    .text:000000000000013c .L31
     /tmp/ccxZXmV1.s:953    .text:0000000000000324 .L29
     /tmp/ccxZXmV1.s:863    .text:0000000000000280 .L33
     /tmp/ccxZXmV1.s:818    .text:0000000000000220 .L34
     /tmp/ccxZXmV1.s:886    .text:00000000000002a8 .L35
     /tmp/ccxZXmV1.s:872    .text:000000000000028c .L36
     /tmp/ccxZXmV1.s:898    .text:00000000000002c0 .L37
     /tmp/ccxZXmV1.s:911    .text:00000000000002cc .L40
     /tmp/ccxZXmV1.s:927    .text:00000000000002f0 .L38
     /tmp/ccxZXmV1.s:905    .text:00000000000002c8 .L39
     /tmp/ccxZXmV1.s:938    .text:0000000000000304 .L41
     /tmp/ccxZXmV1.s:950    .text:0000000000000320 .L42
     /tmp/ccxZXmV1.s:48     .text._ZN8Consumer3runEv:0000000000000034 .L0 
     /tmp/ccxZXmV1.s:44     .text._ZN8Consumer3runEv:0000000000000034 .L2
     /tmp/ccxZXmV1.s:93     .text._ZN8Consumer3runEv:0000000000000090 .L3
     /tmp/ccxZXmV1.s:37     .text._ZN8Consumer3runEv:0000000000000028 .L7
     /tmp/ccxZXmV1.s:77     .text._ZN8Consumer3runEv:0000000000000074 .L8
     /tmp/ccxZXmV1.s:150    .text._ZN8ConsumerD2Ev:0000000000000010 .L0 
     /tmp/ccxZXmV1.s:192    .text._ZN8ConsumerD0Ev:0000000000000018 .L0 
GAS LISTING /tmp/ccxZXmV1.s 			page 35


     /tmp/ccxZXmV1.s:234    .text._ZN16ProducerKeyboradD2Ev:0000000000000010 .L0 
     /tmp/ccxZXmV1.s:276    .text._ZN16ProducerKeyboradD0Ev:0000000000000018 .L0 
     /tmp/ccxZXmV1.s:318    .text._ZN8ProducerD2Ev:0000000000000010 .L0 
     /tmp/ccxZXmV1.s:360    .text._ZN8ProducerD0Ev:0000000000000018 .L0 
     /tmp/ccxZXmV1.s:432    .text._ZN16ProducerKeyborad3runEv:0000000000000044 .L0 
     /tmp/ccxZXmV1.s:428    .text._ZN16ProducerKeyborad3runEv:0000000000000040 .L22
     /tmp/ccxZXmV1.s:406    .text._ZN16ProducerKeyborad3runEv:0000000000000018 .L23
     /tmp/ccxZXmV1.s:492    .text._ZN8Producer3runEv:0000000000000020 .L0 
     /tmp/ccxZXmV1.s:522    .text._ZN8Producer3runEv:000000000000006c .L26
     /tmp/ccxZXmV1.s:489    .text._ZN8Producer3runEv:0000000000000020 .L27
     /tmp/ccxZXmV1.s:610    .text:000000000000003c .LEHB0
     /tmp/ccxZXmV1.s:574    .text:0000000000000000 .LFB17
     /tmp/ccxZXmV1.s:683    .text:0000000000000104 .LEHE0
     /tmp/ccxZXmV1.s:686    .text:000000000000010c .LEHB1
     /tmp/ccxZXmV1.s:689    .text:0000000000000114 .LEHE1
     /tmp/ccxZXmV1.s:983    .text:0000000000000358 .L46
     /tmp/ccxZXmV1.s:695    .text:0000000000000120 .LEHB2
     /tmp/ccxZXmV1.s:717    .text:0000000000000150 .LEHE2
     /tmp/ccxZXmV1.s:720    .text:0000000000000158 .LEHB3
     /tmp/ccxZXmV1.s:723    .text:0000000000000160 .LEHE3
     /tmp/ccxZXmV1.s:996    .text:0000000000000374 .L47
     /tmp/ccxZXmV1.s:767    .text:00000000000001c0 .LEHB4
     /tmp/ccxZXmV1.s:949    .text:0000000000000320 .LEHE4
     /tmp/ccxZXmV1.s:992    .text:000000000000036c .LEHB5
     /tmp/ccxZXmV1.s:995    .text:0000000000000374 .LEHE5
     /tmp/ccxZXmV1.s:1004   .text:0000000000000388 .LEHB6
     /tmp/ccxZXmV1.s:1007   .text:0000000000000390 .LEHE6
     /tmp/ccxZXmV1.s:2901   .debug_abbrev:0000000000000000 .Ldebug_abbrev0
     /tmp/ccxZXmV1.s:4489   .debug_str:00000000000005c6 .LASF103
     /tmp/ccxZXmV1.s:4449   .debug_str:0000000000000471 .LASF104
     /tmp/ccxZXmV1.s:4361   .debug_str:00000000000001c3 .LASF105
     /tmp/ccxZXmV1.s:4265   .debug_ranges:0000000000000000 .Ldebug_ranges0
     /tmp/ccxZXmV1.s:4301   .debug_line:0000000000000000 .Ldebug_line0
     /tmp/ccxZXmV1.s:4429   .debug_str:00000000000003ed .LASF0
     /tmp/ccxZXmV1.s:4461   .debug_str:00000000000004e6 .LASF1
     /tmp/ccxZXmV1.s:4415   .debug_str:0000000000000361 .LASF2
     /tmp/ccxZXmV1.s:4395   .debug_str:00000000000002e0 .LASF4
     /tmp/ccxZXmV1.s:4481   .debug_str:000000000000058e .LASF3
     /tmp/ccxZXmV1.s:4323   .debug_str:0000000000000073 .LASF5
     /tmp/ccxZXmV1.s:4455   .debug_str:00000000000004c7 .LASF6
     /tmp/ccxZXmV1.s:4427   .debug_str:00000000000003da .LASF7
     /tmp/ccxZXmV1.s:4503   .debug_str:00000000000006e5 .LASF8
     /tmp/ccxZXmV1.s:4379   .debug_str:0000000000000260 .LASF9
     /tmp/ccxZXmV1.s:4509   .debug_str:000000000000071f .LASF10
     /tmp/ccxZXmV1.s:4493   .debug_str:0000000000000694 .LASF11
     /tmp/ccxZXmV1.s:4329   .debug_str:00000000000000a4 .LASF12
     /tmp/ccxZXmV1.s:4305   .debug_str:000000000000000a .LASF13
     /tmp/ccxZXmV1.s:4341   .debug_str:00000000000000fc .LASF14
     /tmp/ccxZXmV1.s:4477   .debug_str:000000000000055a .LASF15
     /tmp/ccxZXmV1.s:4347   .debug_str:0000000000000144 .LASF16
     /tmp/ccxZXmV1.s:4389   .debug_str:00000000000002b2 .LASF18
     /tmp/ccxZXmV1.s:4307   .debug_str:000000000000001a .LASF102
     /tmp/ccxZXmV1.s:4335   .debug_str:00000000000000c6 .LASF106
     /tmp/ccxZXmV1.s:4419   .debug_str:000000000000038d .LASF38
     /tmp/ccxZXmV1.s:4451   .debug_str:0000000000000498 .LASF107
     /tmp/ccxZXmV1.s:4457   .debug_str:00000000000004da .LASF17
     /tmp/ccxZXmV1.s:4473   .debug_str:0000000000000549 .LASF19
GAS LISTING /tmp/ccxZXmV1.s 			page 36


     /tmp/ccxZXmV1.s:4475   .debug_str:0000000000000553 .LASF20
     /tmp/ccxZXmV1.s:4353   .debug_str:0000000000000187 .LASF21
     /tmp/ccxZXmV1.s:4413   .debug_str:000000000000035c .LASF22
     /tmp/ccxZXmV1.s:4363   .debug_str:00000000000001e2 .LASF23
     /tmp/ccxZXmV1.s:4383   .debug_str:0000000000000281 .LASF24
     /tmp/ccxZXmV1.s:4409   .debug_str:0000000000000341 .LASF25
     /tmp/ccxZXmV1.s:4435   .debug_str:0000000000000423 .LASF26
     /tmp/ccxZXmV1.s:4437   .debug_str:000000000000042d .LASF28
     /tmp/ccxZXmV1.s:4403   .debug_str:000000000000031f .LASF27
     /tmp/ccxZXmV1.s:4507   .debug_str:000000000000070d .LASF29
     /tmp/ccxZXmV1.s:4385   .debug_str:000000000000028f .LASF108
     /tmp/ccxZXmV1.s:4325   .debug_str:000000000000007a .LASF109
     /tmp/ccxZXmV1.s:4319   .debug_str:0000000000000055 .LASF30
     /tmp/ccxZXmV1.s:4321   .debug_str:000000000000005c .LASF31
     /tmp/ccxZXmV1.s:4303   .debug_str:0000000000000000 .LASF43
     /tmp/ccxZXmV1.s:4495   .debug_str:00000000000006a3 .LASF32
     /tmp/ccxZXmV1.s:4367   .debug_str:0000000000000202 .LASF34
     /tmp/ccxZXmV1.s:4471   .debug_str:0000000000000532 .LASF33
     /tmp/ccxZXmV1.s:4459   .debug_str:00000000000004df .LASF35
     /tmp/ccxZXmV1.s:4371   .debug_str:0000000000000218 .LASF36
     /tmp/ccxZXmV1.s:4377   .debug_str:0000000000000254 .LASF110
     /tmp/ccxZXmV1.s:4397   .debug_str:00000000000002e7 .LASF37
     /tmp/ccxZXmV1.s:4331   .debug_str:00000000000000b4 .LASF39
     /tmp/ccxZXmV1.s:4375   .debug_str:0000000000000241 .LASF40
     /tmp/ccxZXmV1.s:4399   .debug_str:00000000000002f1 .LASF41
     /tmp/ccxZXmV1.s:4373   .debug_str:0000000000000223 .LASF42
     /tmp/ccxZXmV1.s:4501   .debug_str:00000000000006d2 .LASF45
     /tmp/ccxZXmV1.s:4439   .debug_str:000000000000043f .LASF58
     /tmp/ccxZXmV1.s:4349   .debug_str:000000000000015a .LASF60
     /tmp/ccxZXmV1.s:4499   .debug_str:00000000000006cb .LASF44
     /tmp/ccxZXmV1.s:4469   .debug_str:0000000000000523 .LASF78
     /tmp/ccxZXmV1.s:4369   .debug_str:0000000000000207 .LASF46
     /tmp/ccxZXmV1.s:4515   .debug_str:000000000000074e .LASF47
     /tmp/ccxZXmV1.s:4447   .debug_str:000000000000046b .LASF48
     /tmp/ccxZXmV1.s:4327   .debug_str:000000000000008e .LASF49
     /tmp/ccxZXmV1.s:4519   .debug_str:000000000000076b .LASF50
     /tmp/ccxZXmV1.s:4381   .debug_str:000000000000026e .LASF51
     /tmp/ccxZXmV1.s:4441   .debug_str:0000000000000449 .LASF52
     /tmp/ccxZXmV1.s:4445   .debug_str:0000000000000462 .LASF53
     /tmp/ccxZXmV1.s:4497   .debug_str:00000000000006b8 .LASF54
     /tmp/ccxZXmV1.s:4463   .debug_str:00000000000004f9 .LASF55
     /tmp/ccxZXmV1.s:4417   .debug_str:000000000000036f .LASF56
     /tmp/ccxZXmV1.s:4511   .debug_str:000000000000072e .LASF57
     /tmp/ccxZXmV1.s:4315   .debug_str:0000000000000042 .LASF59
     /tmp/ccxZXmV1.s:4487   .debug_str:00000000000005b5 .LASF61
     /tmp/ccxZXmV1.s:4411   .debug_str:000000000000034b .LASF62
     /tmp/ccxZXmV1.s:4351   .debug_str:000000000000016b .LASF63
     /tmp/ccxZXmV1.s:4357   .debug_str:0000000000000196 .LASF64
     /tmp/ccxZXmV1.s:4345   .debug_str:000000000000011d .LASF65
     /tmp/ccxZXmV1.s:4453   .debug_str:00000000000004ab .LASF66
     /tmp/ccxZXmV1.s:4423   .debug_str:00000000000003b9 .LASF67
     /tmp/ccxZXmV1.s:4337   .debug_str:00000000000000d9 .LASF68
     /tmp/ccxZXmV1.s:4467   .debug_str:000000000000051e .LASF69
     /tmp/ccxZXmV1.s:4483   .debug_str:00000000000005a0 .LASF70
     /tmp/ccxZXmV1.s:4431   .debug_str:00000000000003fa .LASF71
     /tmp/ccxZXmV1.s:257    .text._ZN16ProducerKeyboradD0Ev:0000000000000000 .LFB29
     /tmp/ccxZXmV1.s:297    .text._ZN16ProducerKeyboradD0Ev:000000000000004c .LFE29
GAS LISTING /tmp/ccxZXmV1.s 			page 37


     /tmp/ccxZXmV1.s:3846   .debug_loc:0000000000000000 .LLST8
     /tmp/ccxZXmV1.s:273    .text._ZN16ProducerKeyboradD0Ev:0000000000000018 .LBB45
     /tmp/ccxZXmV1.s:281    .text._ZN16ProducerKeyboradD0Ev:000000000000002c .LBE45
     /tmp/ccxZXmV1.s:3864   .debug_loc:000000000000004c .LLST9
     /tmp/ccxZXmV1.s:279    .text._ZN16ProducerKeyboradD0Ev:000000000000002c .LVL27
     /tmp/ccxZXmV1.s:284    .text._ZN16ProducerKeyboradD0Ev:0000000000000038 .LVL28
     /tmp/ccxZXmV1.s:4393   .debug_str:00000000000002c6 .LASF72
     /tmp/ccxZXmV1.s:220    .text._ZN16ProducerKeyboradD2Ev:0000000000000000 .LFB27
     /tmp/ccxZXmV1.s:248    .text._ZN16ProducerKeyboradD2Ev:0000000000000034 .LFE27
     /tmp/ccxZXmV1.s:3875   .debug_loc:0000000000000082 .LLST7
     /tmp/ccxZXmV1.s:237    .text._ZN16ProducerKeyboradD2Ev:0000000000000024 .LVL24
     /tmp/ccxZXmV1.s:4365   .debug_str:00000000000001f1 .LASF73
     /tmp/ccxZXmV1.s:341    .text._ZN8ProducerD0Ev:0000000000000000 .LFB25
     /tmp/ccxZXmV1.s:381    .text._ZN8ProducerD0Ev:000000000000004c .LFE25
     /tmp/ccxZXmV1.s:3889   .debug_loc:00000000000000bb .LLST11
     /tmp/ccxZXmV1.s:357    .text._ZN8ProducerD0Ev:0000000000000018 .LBB48
     /tmp/ccxZXmV1.s:365    .text._ZN8ProducerD0Ev:000000000000002c .LBE48
     /tmp/ccxZXmV1.s:3907   .debug_loc:0000000000000107 .LLST12
     /tmp/ccxZXmV1.s:363    .text._ZN8ProducerD0Ev:000000000000002c .LVL34
     /tmp/ccxZXmV1.s:368    .text._ZN8ProducerD0Ev:0000000000000038 .LVL35
     /tmp/ccxZXmV1.s:4309   .debug_str:000000000000001f .LASF74
     /tmp/ccxZXmV1.s:304    .text._ZN8ProducerD2Ev:0000000000000000 .LFB23
     /tmp/ccxZXmV1.s:332    .text._ZN8ProducerD2Ev:0000000000000034 .LFE23
     /tmp/ccxZXmV1.s:3918   .debug_loc:000000000000013d .LLST10
     /tmp/ccxZXmV1.s:321    .text._ZN8ProducerD2Ev:0000000000000024 .LVL31
     /tmp/ccxZXmV1.s:4465   .debug_str:000000000000050d .LASF75
     /tmp/ccxZXmV1.s:173    .text._ZN8ConsumerD0Ev:0000000000000000 .LFB21
     /tmp/ccxZXmV1.s:213    .text._ZN8ConsumerD0Ev:000000000000004c .LFE21
     /tmp/ccxZXmV1.s:3932   .debug_loc:0000000000000176 .LLST5
     /tmp/ccxZXmV1.s:189    .text._ZN8ConsumerD0Ev:0000000000000018 .LBB42
     /tmp/ccxZXmV1.s:197    .text._ZN8ConsumerD0Ev:000000000000002c .LBE42
     /tmp/ccxZXmV1.s:3950   .debug_loc:00000000000001c2 .LLST6
     /tmp/ccxZXmV1.s:195    .text._ZN8ConsumerD0Ev:000000000000002c .LVL20
     /tmp/ccxZXmV1.s:200    .text._ZN8ConsumerD0Ev:0000000000000038 .LVL21
     /tmp/ccxZXmV1.s:4405   .debug_str:000000000000032a .LASF76
     /tmp/ccxZXmV1.s:136    .text._ZN8ConsumerD2Ev:0000000000000000 .LFB19
     /tmp/ccxZXmV1.s:164    .text._ZN8ConsumerD2Ev:0000000000000034 .LFE19
     /tmp/ccxZXmV1.s:3961   .debug_loc:00000000000001f8 .LLST4
     /tmp/ccxZXmV1.s:153    .text._ZN8ConsumerD2Ev:0000000000000024 .LVL17
     /tmp/ccxZXmV1.s:4343   .debug_str:0000000000000108 .LASF77
     /tmp/ccxZXmV1.s:4401   .debug_str:0000000000000305 .LASF79
     /tmp/ccxZXmV1.s:1009   .text:0000000000000390 .LFE17
     /tmp/ccxZXmV1.s:4313   .debug_str:000000000000003c .LASF80
     /tmp/ccxZXmV1.s:3975   .debug_loc:0000000000000231 .LLST19
     /tmp/ccxZXmV1.s:4491   .debug_str:000000000000068a .LASF81
     /tmp/ccxZXmV1.s:3990   .debug_loc:000000000000027a .LLST20
     /tmp/ccxZXmV1.s:4001   .debug_loc:00000000000002b0 .LLST21
     /tmp/ccxZXmV1.s:4517   .debug_str:0000000000000761 .LASF82
     /tmp/ccxZXmV1.s:4012   .debug_loc:00000000000002e6 .LLST22
     /tmp/ccxZXmV1.s:4485   .debug_str:00000000000005aa .LASF83
     /tmp/ccxZXmV1.s:4025   .debug_loc:000000000000031e .LLST23
     /tmp/ccxZXmV1.s:4333   .debug_str:00000000000000bd .LASF84
     /tmp/ccxZXmV1.s:4033   .debug_loc:0000000000000342 .LLST24
     /tmp/ccxZXmV1.s:815    .text:000000000000021c .LBB54
     /tmp/ccxZXmV1.s:864    .text:0000000000000280 .LBE54
     /tmp/ccxZXmV1.s:4044   .debug_loc:0000000000000378 .LLST29
     /tmp/ccxZXmV1.s:841    .text:0000000000000254 .LBB55
GAS LISTING /tmp/ccxZXmV1.s 			page 38


     /tmp/ccxZXmV1.s:849    .text:0000000000000264 .LBE55
     /tmp/ccxZXmV1.s:4055   .debug_loc:00000000000003ae .LLST30
     /tmp/ccxZXmV1.s:4062   .debug_loc:00000000000003d1 .LLST31
     /tmp/ccxZXmV1.s:840    .text:0000000000000254 .LVL91
     /tmp/ccxZXmV1.s:857    .text:0000000000000278 .LVL93
     /tmp/ccxZXmV1.s:4069   .debug_loc:00000000000003f4 .LLST32
     /tmp/ccxZXmV1.s:880    .text:00000000000002a0 .LVL98
     /tmp/ccxZXmV1.s:907    .text:00000000000002c8 .LBB59
     /tmp/ccxZXmV1.s:928    .text:00000000000002f0 .LBE59
     /tmp/ccxZXmV1.s:4080   .debug_loc:000000000000042a .LLST33
     /tmp/ccxZXmV1.s:772    .text:00000000000001cc .LBB50
     /tmp/ccxZXmV1.s:780    .text:00000000000001dc .LBE50
     /tmp/ccxZXmV1.s:4087   .debug_loc:000000000000044d .LLST25
     /tmp/ccxZXmV1.s:4094   .debug_loc:0000000000000470 .LLST26
     /tmp/ccxZXmV1.s:800    .text:0000000000000200 .LBB52
     /tmp/ccxZXmV1.s:808    .text:0000000000000210 .LBE52
     /tmp/ccxZXmV1.s:4101   .debug_loc:0000000000000493 .LLST27
     /tmp/ccxZXmV1.s:4108   .debug_loc:00000000000004b6 .LLST28
     /tmp/ccxZXmV1.s:612    .text:0000000000000044 .LVL57
     /tmp/ccxZXmV1.s:619    .text:0000000000000058 .LVL58
     /tmp/ccxZXmV1.s:624    .text:0000000000000064 .LVL59
     /tmp/ccxZXmV1.s:631    .text:0000000000000078 .LVL61
     /tmp/ccxZXmV1.s:637    .text:0000000000000088 .LVL62
     /tmp/ccxZXmV1.s:642    .text:0000000000000094 .LVL63
     /tmp/ccxZXmV1.s:649    .text:00000000000000a8 .LVL65
     /tmp/ccxZXmV1.s:656    .text:00000000000000bc .LVL66
     /tmp/ccxZXmV1.s:661    .text:00000000000000cc .LVL67
     /tmp/ccxZXmV1.s:668    .text:00000000000000e0 .LVL68
     /tmp/ccxZXmV1.s:673    .text:00000000000000f0 .LVL69
     /tmp/ccxZXmV1.s:682    .text:0000000000000104 .LVL70
     /tmp/ccxZXmV1.s:688    .text:0000000000000114 .LVL71
     /tmp/ccxZXmV1.s:697    .text:0000000000000128 .LVL72
     /tmp/ccxZXmV1.s:705    .text:000000000000013c .LVL73
     /tmp/ccxZXmV1.s:716    .text:0000000000000150 .LVL75
     /tmp/ccxZXmV1.s:722    .text:0000000000000160 .LVL76
     /tmp/ccxZXmV1.s:769    .text:00000000000001c8 .LVL83
     /tmp/ccxZXmV1.s:784    .text:00000000000001e4 .LVL86
     /tmp/ccxZXmV1.s:799    .text:0000000000000200 .LVL87
     /tmp/ccxZXmV1.s:814    .text:000000000000021c .LVL89
     /tmp/ccxZXmV1.s:868    .text:0000000000000288 .LVL96
     /tmp/ccxZXmV1.s:937    .text:0000000000000304 .LVL106
     /tmp/ccxZXmV1.s:945    .text:0000000000000314 .LVL107
     /tmp/ccxZXmV1.s:948    .text:0000000000000320 .LVL108
     /tmp/ccxZXmV1.s:990    .text:0000000000000368 .LVL113
     /tmp/ccxZXmV1.s:994    .text:0000000000000374 .LVL114
     /tmp/ccxZXmV1.s:1002   .text:0000000000000384 .LVL116
     /tmp/ccxZXmV1.s:1006   .text:0000000000000390 .LVL117
     /tmp/ccxZXmV1.s:11     .text._ZN8Consumer3runEv:0000000000000000 .LFB16
     /tmp/ccxZXmV1.s:129    .text._ZN8Consumer3runEv:00000000000000d0 .LFE16
     /tmp/ccxZXmV1.s:4115   .debug_loc:00000000000004d9 .LLST0
     /tmp/ccxZXmV1.s:4133   .debug_loc:0000000000000525 .LLST1
     /tmp/ccxZXmV1.s:4153   .debug_loc:0000000000000582 .LLST2
     /tmp/ccxZXmV1.s:43     .text._ZN8Consumer3runEv:0000000000000034 .LVL3
     /tmp/ccxZXmV1.s:57     .text._ZN8Consumer3runEv:0000000000000050 .LVL4
     /tmp/ccxZXmV1.s:68     .text._ZN8Consumer3runEv:0000000000000064 .LVL7
     /tmp/ccxZXmV1.s:79     .text._ZN8Consumer3runEv:0000000000000074 .LBB40
     /tmp/ccxZXmV1.s:94     .text._ZN8Consumer3runEv:0000000000000090 .LBE40
GAS LISTING /tmp/ccxZXmV1.s 			page 39


     /tmp/ccxZXmV1.s:4160   .debug_loc:00000000000005a5 .LLST3
     /tmp/ccxZXmV1.s:86     .text._ZN8Consumer3runEv:0000000000000084 .LVL9
     /tmp/ccxZXmV1.s:92     .text._ZN8Consumer3runEv:0000000000000090 .LVL11
     /tmp/ccxZXmV1.s:102    .text._ZN8Consumer3runEv:00000000000000a0 .LVL12
     /tmp/ccxZXmV1.s:110    .text._ZN8Consumer3runEv:00000000000000b4 .LVL13
     /tmp/ccxZXmV1.s:4525   .debug_str:0000000000000797 .LASF85
     /tmp/ccxZXmV1.s:467    .text._ZN8Producer3runEv:0000000000000000 .LFB12
     /tmp/ccxZXmV1.s:545    .text._ZN8Producer3runEv:0000000000000094 .LFE12
     /tmp/ccxZXmV1.s:4167   .debug_loc:00000000000005c8 .LLST15
     /tmp/ccxZXmV1.s:4185   .debug_loc:0000000000000614 .LLST16
     /tmp/ccxZXmV1.s:502    .text._ZN8Producer3runEv:0000000000000044 .LVL51
     /tmp/ccxZXmV1.s:519    .text._ZN8Producer3runEv:0000000000000068 .LVL53
     /tmp/ccxZXmV1.s:528    .text._ZN8Producer3runEv:000000000000007c .LVL54
     /tmp/ccxZXmV1.s:4479   .debug_str:0000000000000570 .LASF86
     /tmp/ccxZXmV1.s:388    .text._ZN16ProducerKeyborad3runEv:0000000000000000 .LFB8
     /tmp/ccxZXmV1.s:460    .text._ZN16ProducerKeyborad3runEv:0000000000000084 .LFE8
     /tmp/ccxZXmV1.s:4205   .debug_loc:0000000000000671 .LLST13
     /tmp/ccxZXmV1.s:4223   .debug_loc:00000000000006bd .LLST14
     /tmp/ccxZXmV1.s:411    .text._ZN16ProducerKeyborad3runEv:0000000000000020 .LVL39
     /tmp/ccxZXmV1.s:423    .text._ZN16ProducerKeyborad3runEv:000000000000003c .LVL42
     /tmp/ccxZXmV1.s:440    .text._ZN16ProducerKeyborad3runEv:0000000000000060 .LVL45
     /tmp/ccxZXmV1.s:446    .text._ZN16ProducerKeyborad3runEv:0000000000000070 .LVL46
     /tmp/ccxZXmV1.s:4421   .debug_str:0000000000000392 .LASF87
     /tmp/ccxZXmV1.s:4433   .debug_str:0000000000000414 .LASF88
     /tmp/ccxZXmV1.s:4527   .debug_str:00000000000007b5 .LASF89
     /tmp/ccxZXmV1.s:4359   .debug_str:00000000000001b3 .LASF90
     /tmp/ccxZXmV1.s:4407   .debug_str:000000000000033b .LASF91
     /tmp/ccxZXmV1.s:4513   .debug_str:0000000000000741 .LASF92
     /tmp/ccxZXmV1.s:4521   .debug_str:0000000000000774 .LASF93
     /tmp/ccxZXmV1.s:4311   .debug_str:0000000000000030 .LASF94
     /tmp/ccxZXmV1.s:4523   .debug_str:0000000000000787 .LASF95
     /tmp/ccxZXmV1.s:4355   .debug_str:000000000000018c .LASF96
     /tmp/ccxZXmV1.s:4443   .debug_str:000000000000044f .LASF97
     /tmp/ccxZXmV1.s:4391   .debug_str:00000000000002ba .LASF98
     /tmp/ccxZXmV1.s:4425   .debug_str:00000000000003cb .LASF99
     /tmp/ccxZXmV1.s:4339   .debug_str:00000000000000f3 .LASF100
     /tmp/ccxZXmV1.s:4387   .debug_str:00000000000002a3 .LASF111
     /tmp/ccxZXmV1.s:4505   .debug_str:00000000000006f5 .LASF112
     /tmp/ccxZXmV1.s:4317   .debug_str:000000000000004c .LASF101
     /tmp/ccxZXmV1.s:260    .text._ZN16ProducerKeyboradD0Ev:0000000000000000 .LVL25
     /tmp/ccxZXmV1.s:292    .text._ZN16ProducerKeyboradD0Ev:0000000000000044 .LVL29
     /tmp/ccxZXmV1.s:272    .text._ZN16ProducerKeyboradD0Ev:0000000000000018 .LVL26
     /tmp/ccxZXmV1.s:223    .text._ZN16ProducerKeyboradD2Ev:0000000000000000 .LVL23
     /tmp/ccxZXmV1.s:344    .text._ZN8ProducerD0Ev:0000000000000000 .LVL32
     /tmp/ccxZXmV1.s:376    .text._ZN8ProducerD0Ev:0000000000000044 .LVL36
     /tmp/ccxZXmV1.s:356    .text._ZN8ProducerD0Ev:0000000000000018 .LVL33
     /tmp/ccxZXmV1.s:307    .text._ZN8ProducerD2Ev:0000000000000000 .LVL30
     /tmp/ccxZXmV1.s:176    .text._ZN8ConsumerD0Ev:0000000000000000 .LVL18
     /tmp/ccxZXmV1.s:208    .text._ZN8ConsumerD0Ev:0000000000000044 .LVL22
     /tmp/ccxZXmV1.s:188    .text._ZN8ConsumerD0Ev:0000000000000018 .LVL19
     /tmp/ccxZXmV1.s:139    .text._ZN8ConsumerD2Ev:0000000000000000 .LVL16
     /tmp/ccxZXmV1.s:644    .text:0000000000000098 .LVL64
     /tmp/ccxZXmV1.s:753    .text:00000000000001a4 .LVL82
     /tmp/ccxZXmV1.s:982    .text:0000000000000358 .LVL111
     /tmp/ccxZXmV1.s:986    .text:000000000000035c .LVL112
     /tmp/ccxZXmV1.s:998    .text:0000000000000378 .LVL115
     /tmp/ccxZXmV1.s:626    .text:0000000000000068 .LVL60
GAS LISTING /tmp/ccxZXmV1.s 			page 40


     /tmp/ccxZXmV1.s:968    .text:000000000000033c .LVL110
     /tmp/ccxZXmV1.s:711    .text:0000000000000144 .LVL74
     /tmp/ccxZXmV1.s:952    .text:0000000000000324 .LVL109
     /tmp/ccxZXmV1.s:735    .text:0000000000000180 .LVL78
     /tmp/ccxZXmV1.s:747    .text:000000000000019c .LVL80
     /tmp/ccxZXmV1.s:749    .text:00000000000001a0 .LVL81
     /tmp/ccxZXmV1.s:778    .text:00000000000001dc .LVL85
     /tmp/ccxZXmV1.s:819    .text:0000000000000220 .LVL90
     /tmp/ccxZXmV1.s:860    .text:000000000000027c .LVL94
     /tmp/ccxZXmV1.s:862    .text:0000000000000280 .LVL95
     /tmp/ccxZXmV1.s:847    .text:0000000000000264 .LVL92
     /tmp/ccxZXmV1.s:873    .text:000000000000028c .LVL97
     /tmp/ccxZXmV1.s:883    .text:00000000000002a4 .LVL99
     /tmp/ccxZXmV1.s:885    .text:00000000000002a8 .LVL100
     /tmp/ccxZXmV1.s:902    .text:00000000000002c4 .LVL102
     /tmp/ccxZXmV1.s:904    .text:00000000000002c8 .LVL103
     /tmp/ccxZXmV1.s:771    .text:00000000000001cc .LVL84
     /tmp/ccxZXmV1.s:806    .text:0000000000000210 .LVL88
     /tmp/ccxZXmV1.s:15     .text._ZN8Consumer3runEv:0000000000000000 .LVL0
     /tmp/ccxZXmV1.s:36     .text._ZN8Consumer3runEv:0000000000000028 .LVL2
     /tmp/ccxZXmV1.s:121    .text._ZN8Consumer3runEv:00000000000000c4 .LVL14
     /tmp/ccxZXmV1.s:32     .text._ZN8Consumer3runEv:0000000000000020 .LVL1
     /tmp/ccxZXmV1.s:62     .text._ZN8Consumer3runEv:0000000000000058 .LVL5
     /tmp/ccxZXmV1.s:73     .text._ZN8Consumer3runEv:000000000000006c .LVL8
     /tmp/ccxZXmV1.s:124    .text._ZN8Consumer3runEv:00000000000000c8 .LVL15
     /tmp/ccxZXmV1.s:66     .text._ZN8Consumer3runEv:000000000000005c .LVL6
     /tmp/ccxZXmV1.s:90     .text._ZN8Consumer3runEv:0000000000000088 .LVL10
     /tmp/ccxZXmV1.s:470    .text._ZN8Producer3runEv:0000000000000000 .LVL48
     /tmp/ccxZXmV1.s:488    .text._ZN8Producer3runEv:0000000000000020 .LVL50
     /tmp/ccxZXmV1.s:537    .text._ZN8Producer3runEv:0000000000000088 .LVL55
     /tmp/ccxZXmV1.s:485    .text._ZN8Producer3runEv:000000000000001c .LVL49
     /tmp/ccxZXmV1.s:507    .text._ZN8Producer3runEv:000000000000004c .LVL52
     /tmp/ccxZXmV1.s:540    .text._ZN8Producer3runEv:000000000000008c .LVL56
     /tmp/ccxZXmV1.s:391    .text._ZN16ProducerKeyborad3runEv:0000000000000000 .LVL37
     /tmp/ccxZXmV1.s:405    .text._ZN16ProducerKeyborad3runEv:0000000000000018 .LVL38
     /tmp/ccxZXmV1.s:455    .text._ZN16ProducerKeyborad3runEv:000000000000007c .LVL47
     /tmp/ccxZXmV1.s:413    .text._ZN16ProducerKeyborad3runEv:0000000000000024 .LVL40
     /tmp/ccxZXmV1.s:421    .text._ZN16ProducerKeyborad3runEv:0000000000000034 .LVL41
     /tmp/ccxZXmV1.s:427    .text._ZN16ProducerKeyborad3runEv:0000000000000040 .LVL43
     /tmp/ccxZXmV1.s:438    .text._ZN16ProducerKeyborad3runEv:0000000000000058 .LVL44
     /tmp/ccxZXmV1.s:1100   .debug_info:0000000000000000 .Ldebug_info0
     /tmp/ccxZXmV1.s:5      .text:0000000000000000 .Ltext0
     /tmp/ccxZXmV1.s:1093   .text:0000000000000390 .Letext0
     /tmp/ccxZXmV1.s:38     .text._ZN8Consumer3runEv:0000000000000028 .LBB38
     /tmp/ccxZXmV1.s:45     .text._ZN8Consumer3runEv:0000000000000034 .LBE38
     /tmp/ccxZXmV1.s:50     .text._ZN8Consumer3runEv:0000000000000040 .LBB39
     /tmp/ccxZXmV1.s:78     .text._ZN8Consumer3runEv:0000000000000074 .LBE39
     /tmp/ccxZXmV1.s:869    .text:0000000000000288 .LBB57
     /tmp/ccxZXmV1.s:887    .text:00000000000002a8 .LBE57
     /tmp/ccxZXmV1.s:899    .text:00000000000002c0 .LBB58
     /tmp/ccxZXmV1.s:906    .text:00000000000002c8 .LBE58
     /tmp/ccxZXmV1.s:1012   .gcc_except_table:0000000000000000 .LLSDA17
                           .group:0000000000000000 _ZN8ConsumerD5Ev
                           .group:0000000000000000 _ZN16ProducerKeyboradD5Ev
                           .group:0000000000000000 _ZN8ProducerD5Ev

UNDEFINED SYMBOLS
GAS LISTING /tmp/ccxZXmV1.s 			page 41


_ZN7Console4putcEc
_ZN9BufferCPP3getEv
_ZN9BufferCPP6getCntEv
_ZN9Semaphore6signalEv
_ZN6ThreadD2Ev
_ZdlPv
_Z4getcv
_ZN9BufferCPP3putEi
_ZN6Thread5sleepEm
_Z11printStringPKc
_Z9getStringPci
_Z11stringToIntPKc
_Z8printIntiii
_Znwm
_ZN9BufferCPPC1Ei
_ZN9SemaphoreC1Ej
_ZN6Thread5startEv
_ZN6Thread8dispatchEv
_ZN9Semaphore4waitEv
_ZN9BufferCPPD1Ev
_Unwind_Resume
__gxx_personality_v0
