GAS LISTING /tmp/ccOFn2re.s 			page 1


   1              		.file	"printing.cpp"
   2              		.option pic
   3              		.option norelax
   4              		.text
   5              	.Ltext0:
   6              		.align	2
   7              		.globl	_Z11printStringPKc
   9              	_Z11printStringPKc:
  10              	.LFB0:
  11              		.file 1 "test/printing.cpp"
   1:test/printing.cpp **** //
   2:test/printing.cpp **** // Created by os on 5/18/22.
   3:test/printing.cpp **** //
   4:test/printing.cpp **** 
   5:test/printing.cpp **** #include "printing.hpp"
   6:test/printing.cpp **** 
   7:test/printing.cpp **** uint64 lockPrint = 0;
   8:test/printing.cpp **** 
   9:test/printing.cpp **** #define LOCK() while(copy_and_swap(lockPrint, 0, 1)) thread_dispatch()
  10:test/printing.cpp **** #define UNLOCK() while(copy_and_swap(lockPrint, 1, 0))
  11:test/printing.cpp **** 
  12:test/printing.cpp **** void printString(char const *string)
  13:test/printing.cpp **** {
  12              		.loc 1 13 1
  13              		.cfi_startproc
  14              	.LVL0:
  15 0000 130101FE 		addi	sp,sp,-32
  16              		.cfi_def_cfa_offset 32
  17 0004 233C1100 		sd	ra,24(sp)
  18 0008 23388100 		sd	s0,16(sp)
  19 000c 23349100 		sd	s1,8(sp)
  20              		.cfi_offset 1, -8
  21              		.cfi_offset 8, -16
  22              		.cfi_offset 9, -24
  23 0010 13040102 		addi	s0,sp,32
  24              		.cfi_def_cfa 8, 0
  25 0014 93040500 		mv	s1,a0
  26              	.LVL1:
  27              	.L3:
  14:test/printing.cpp ****     LOCK();
  28              		.loc 1 14 5 discriminator 2
  29              		.loc 1 14 5 discriminator 2
  30 0018 13061000 		li	a2,1
  31 001c 93050000 		li	a1,0
  32 0020 17050000 		lla	a0,.LANCHOR0
  32      13050500 
  33 0028 97000000 		call	copy_and_swap@plt
  33      E7800000 
  34              	.LVL2:
  35 0030 63080500 		beqz	a0,.L2
  36              		.loc 1 14 5 discriminator 1
  37 0034 97000000 		call	_Z15thread_dispatchv@plt
  37      E7800000 
  38              	.LVL3:
  39 003c 6FF0DFFD 		j	.L3
  40              	.L2:
  15:test/printing.cpp ****     while (*string != '\0')
GAS LISTING /tmp/ccOFn2re.s 			page 2


  41              		.loc 1 15 5
  42              		.loc 1 15 20
  43              		.loc 1 15 12 is_stmt 0
  44 0040 03C50400 		lbu	a0,0(s1)
  45              		.loc 1 15 20
  46 0044 630A0500 		beqz	a0,.L4
  16:test/printing.cpp ****     {
  17:test/printing.cpp ****         putc(*string);
  47              		.loc 1 17 9 is_stmt 1
  48              		.loc 1 17 13 is_stmt 0
  49 0048 97000000 		call	_Z4putcc@plt
  49      E7800000 
  50              	.LVL4:
  18:test/printing.cpp ****         string++;
  51              		.loc 1 18 9 is_stmt 1
  52              		.loc 1 18 15 is_stmt 0
  53 0050 93841400 		addi	s1,s1,1
  54              	.LVL5:
  15:test/printing.cpp ****     while (*string != '\0')
  55              		.loc 1 15 5
  56 0054 6FF0DFFE 		j	.L2
  57              	.L4:
  19:test/printing.cpp ****     }
  20:test/printing.cpp ****     UNLOCK();
  58              		.loc 1 20 5 is_stmt 1
  59              		.loc 1 20 5
  60 0058 13060000 		li	a2,0
  61 005c 93051000 		li	a1,1
  62 0060 17050000 		lla	a0,.LANCHOR0
  62      13050500 
  63 0068 97000000 		call	copy_and_swap@plt
  63      E7800000 
  64              	.LVL6:
  65 0070 E31405FE 		bnez	a0,.L4
  21:test/printing.cpp **** }
  66              		.loc 1 21 1 is_stmt 0
  67 0074 83308101 		ld	ra,24(sp)
  68              		.cfi_restore 1
  69 0078 03340101 		ld	s0,16(sp)
  70              		.cfi_restore 8
  71              		.cfi_def_cfa 2, 32
  72 007c 83348100 		ld	s1,8(sp)
  73              		.cfi_restore 9
  74              	.LVL7:
  75 0080 13010102 		addi	sp,sp,32
  76              		.cfi_def_cfa_offset 0
  77 0084 67800000 		jr	ra
  78              		.cfi_endproc
  79              	.LFE0:
  81              		.align	2
  82              		.globl	_Z9getStringPci
  84              	_Z9getStringPci:
  85              	.LFB1:
  22:test/printing.cpp **** 
  23:test/printing.cpp **** char* getString(char *buf, int max) {
  86              		.loc 1 23 37 is_stmt 1
  87              		.cfi_startproc
GAS LISTING /tmp/ccOFn2re.s 			page 3


  88              	.LVL8:
  89 0088 130101FD 		addi	sp,sp,-48
  90              		.cfi_def_cfa_offset 48
  91 008c 23341102 		sd	ra,40(sp)
  92 0090 23308102 		sd	s0,32(sp)
  93 0094 233C9100 		sd	s1,24(sp)
  94 0098 23382101 		sd	s2,16(sp)
  95 009c 23343101 		sd	s3,8(sp)
  96 00a0 23304101 		sd	s4,0(sp)
  97              		.cfi_offset 1, -8
  98              		.cfi_offset 8, -16
  99              		.cfi_offset 9, -24
 100              		.cfi_offset 18, -32
 101              		.cfi_offset 19, -40
 102              		.cfi_offset 20, -48
 103 00a4 13040103 		addi	s0,sp,48
 104              		.cfi_def_cfa 8, 0
 105 00a8 93090500 		mv	s3,a0
 106 00ac 138A0500 		mv	s4,a1
 107              	.LVL9:
 108              	.L8:
  24:test/printing.cpp ****     LOCK();
 109              		.loc 1 24 5 discriminator 2
 110              		.loc 1 24 5 discriminator 2
 111 00b0 13061000 		li	a2,1
 112 00b4 93050000 		li	a1,0
 113 00b8 17050000 		lla	a0,.LANCHOR0
 113      13050500 
 114 00c0 97000000 		call	copy_and_swap@plt
 114      E7800000 
 115              	.LVL10:
 116 00c8 63080500 		beqz	a0,.L11
 117              		.loc 1 24 5 discriminator 1
 118 00cc 97000000 		call	_Z15thread_dispatchv@plt
 118      E7800000 
 119              	.LVL11:
 120 00d4 6FF0DFFD 		j	.L8
 121              	.L11:
  25:test/printing.cpp ****     int i, cc;
  26:test/printing.cpp ****     char c;
  27:test/printing.cpp **** 
  28:test/printing.cpp ****     for(i=0; i+1 < max; ){
 122              		.loc 1 28 10 is_stmt 0
 123 00d8 13090000 		li	s2,0
 124              	.L7:
 125              	.LVL12:
 126              		.loc 1 28 18 is_stmt 1 discriminator 1
 127 00dc 93040900 		mv	s1,s2
 128              		.loc 1 28 15 is_stmt 0 discriminator 1
 129 00e0 1B091900 		addiw	s2,s2,1
 130              	.LVL13:
 131              		.loc 1 28 18 discriminator 1
 132 00e4 635C4903 		bge	s2,s4,.L9
  29:test/printing.cpp ****         cc = getc();
 133              		.loc 1 29 9 is_stmt 1
 134              		.loc 1 29 18 is_stmt 0
 135 00e8 97000000 		call	_Z4getcv@plt
GAS LISTING /tmp/ccOFn2re.s 			page 4


 135      E7800000 
 136              	.LVL14:
  30:test/printing.cpp ****         if(cc < 1)
 137              		.loc 1 30 9 is_stmt 1
 138 00f0 6356A002 		blez	a0,.L9
  31:test/printing.cpp ****             break;
  32:test/printing.cpp ****         c = cc;
 139              		.loc 1 32 9
 140              		.loc 1 32 11 is_stmt 0
 141 00f4 1375F50F 		andi	a0,a0,0xff
 142              	.LVL15:
  33:test/printing.cpp ****         buf[i++] = c;
 143              		.loc 1 33 9 is_stmt 1
 144              		.loc 1 33 16 is_stmt 0
 145 00f8 B3849900 		add	s1,s3,s1
 146              		.loc 1 33 18
 147 00fc 2380A400 		sb	a0,0(s1)
  34:test/printing.cpp ****         if(c == '\n' || c == '\r')
 148              		.loc 1 34 9 is_stmt 1
 149 0100 9307A000 		li	a5,10
 150 0104 630AF500 		beq	a0,a5,.L12
 151              		.loc 1 34 22 is_stmt 0 discriminator 1
 152 0108 9307D000 		li	a5,13
 153 010c E318F5FC 		bne	a0,a5,.L7
  33:test/printing.cpp ****         buf[i++] = c;
 154              		.loc 1 33 14
 155 0110 93040900 		mv	s1,s2
 156 0114 6F008000 		j	.L9
 157              	.L12:
 158 0118 93040900 		mv	s1,s2
 159              	.LVL16:
 160              	.L9:
  35:test/printing.cpp ****             break;
  36:test/printing.cpp ****     }
  37:test/printing.cpp ****     buf[i] = '\0';
 161              		.loc 1 37 5 is_stmt 1
 162              		.loc 1 37 10 is_stmt 0
 163 011c B3849900 		add	s1,s3,s1
 164              	.LVL17:
 165              		.loc 1 37 12
 166 0120 23800400 		sb	zero,0(s1)
 167              	.L10:
  38:test/printing.cpp **** 
  39:test/printing.cpp ****     UNLOCK();
 168              		.loc 1 39 5 is_stmt 1
 169              		.loc 1 39 5
 170 0124 13060000 		li	a2,0
 171 0128 93051000 		li	a1,1
 172 012c 17050000 		lla	a0,.LANCHOR0
 172      13050500 
 173 0134 97000000 		call	copy_and_swap@plt
 173      E7800000 
 174              	.LVL18:
 175 013c E31405FE 		bnez	a0,.L10
  40:test/printing.cpp ****     return buf;
 176              		.loc 1 40 5
  41:test/printing.cpp **** }
GAS LISTING /tmp/ccOFn2re.s 			page 5


 177              		.loc 1 41 1 is_stmt 0
 178 0140 13850900 		mv	a0,s3
 179 0144 83308102 		ld	ra,40(sp)
 180              		.cfi_restore 1
 181 0148 03340102 		ld	s0,32(sp)
 182              		.cfi_restore 8
 183              		.cfi_def_cfa 2, 48
 184 014c 83348101 		ld	s1,24(sp)
 185              		.cfi_restore 9
 186 0150 03390101 		ld	s2,16(sp)
 187              		.cfi_restore 18
 188 0154 83398100 		ld	s3,8(sp)
 189              		.cfi_restore 19
 190              	.LVL19:
 191 0158 033A0100 		ld	s4,0(sp)
 192              		.cfi_restore 20
 193 015c 13010103 		addi	sp,sp,48
 194              		.cfi_def_cfa_offset 0
 195 0160 67800000 		jr	ra
 196              		.cfi_endproc
 197              	.LFE1:
 199              		.align	2
 200              		.globl	_Z11stringToIntPKc
 202              	_Z11stringToIntPKc:
 203              	.LFB2:
  42:test/printing.cpp **** 
  43:test/printing.cpp **** int stringToInt(const char *s) {
 204              		.loc 1 43 32 is_stmt 1
 205              		.cfi_startproc
 206              	.LVL20:
 207 0164 130101FF 		addi	sp,sp,-16
 208              		.cfi_def_cfa_offset 16
 209 0168 23348100 		sd	s0,8(sp)
 210              		.cfi_offset 8, -8
 211 016c 13040101 		addi	s0,sp,16
 212              		.cfi_def_cfa 8, 0
 213 0170 93060500 		mv	a3,a0
  44:test/printing.cpp ****     int n;
 214              		.loc 1 44 5
  45:test/printing.cpp **** 
  46:test/printing.cpp ****     n = 0;
 215              		.loc 1 46 5
 216              	.LVL21:
 217              		.loc 1 46 7 is_stmt 0
 218 0174 13050000 		li	a0,0
 219              	.LVL22:
 220              	.L16:
  47:test/printing.cpp ****     while ('0' <= *s && *s <= '9')
 221              		.loc 1 47 5 is_stmt 1
 222              		.loc 1 47 22
 223              		.loc 1 47 19 is_stmt 0
 224 0178 03C60600 		lbu	a2,0(a3)
 225              		.loc 1 47 22
 226 017c 1B0706FD 		addiw	a4,a2,-48
 227 0180 1377F70F 		andi	a4,a4,0xff
 228 0184 93079000 		li	a5,9
 229 0188 63E0E702 		bgtu	a4,a5,.L15
GAS LISTING /tmp/ccOFn2re.s 			page 6


  48:test/printing.cpp ****         n = n * 10 + *s++ - '0';
 230              		.loc 1 48 9 is_stmt 1
 231              		.loc 1 48 15 is_stmt 0
 232 018c 9B172500 		slliw	a5,a0,2
 233 0190 BB87A700 		addw	a5,a5,a0
 234 0194 9B971700 		slliw	a5,a5,1
 235              		.loc 1 48 24
 236 0198 93861600 		addi	a3,a3,1
 237              	.LVL23:
 238              		.loc 1 48 20
 239 019c BB87C700 		addw	a5,a5,a2
 240              		.loc 1 48 11
 241 01a0 1B8507FD 		addiw	a0,a5,-48
 242              	.LVL24:
  47:test/printing.cpp ****     while ('0' <= *s && *s <= '9')
 243              		.loc 1 47 5
 244 01a4 6FF05FFD 		j	.L16
 245              	.LVL25:
 246              	.L15:
  49:test/printing.cpp ****     return n;
 247              		.loc 1 49 5 is_stmt 1
  50:test/printing.cpp **** }
 248              		.loc 1 50 1 is_stmt 0
 249 01a8 03348100 		ld	s0,8(sp)
 250              		.cfi_restore 8
 251              		.cfi_def_cfa 2, 16
 252 01ac 13010101 		addi	sp,sp,16
 253              		.cfi_def_cfa_offset 0
 254 01b0 67800000 		jr	ra
 255              		.cfi_endproc
 256              	.LFE2:
 258              		.align	2
 259              		.globl	_Z8printIntiii
 261              	_Z8printIntiii:
 262              	.LFB3:
  51:test/printing.cpp **** 
  52:test/printing.cpp **** char digits[] = "0123456789ABCDEF";
  53:test/printing.cpp **** 
  54:test/printing.cpp **** void printInt(int xx, int base, int sgn)
  55:test/printing.cpp **** {
 263              		.loc 1 55 1 is_stmt 1
 264              		.cfi_startproc
 265              	.LVL26:
 266 01b4 130101FC 		addi	sp,sp,-64
 267              		.cfi_def_cfa_offset 64
 268 01b8 233C1102 		sd	ra,56(sp)
 269 01bc 23388102 		sd	s0,48(sp)
 270 01c0 23349102 		sd	s1,40(sp)
 271 01c4 23302103 		sd	s2,32(sp)
 272 01c8 233C3101 		sd	s3,24(sp)
 273              		.cfi_offset 1, -8
 274              		.cfi_offset 8, -16
 275              		.cfi_offset 9, -24
 276              		.cfi_offset 18, -32
 277              		.cfi_offset 19, -40
 278 01cc 13040104 		addi	s0,sp,64
 279              		.cfi_def_cfa 8, 0
GAS LISTING /tmp/ccOFn2re.s 			page 7


 280 01d0 93040500 		mv	s1,a0
 281 01d4 13890500 		mv	s2,a1
 282 01d8 93090600 		mv	s3,a2
 283              	.LVL27:
 284              	.L20:
  56:test/printing.cpp ****     LOCK();
 285              		.loc 1 56 5
 286              		.loc 1 56 5
 287 01dc 13061000 		li	a2,1
 288 01e0 93050000 		li	a1,0
 289 01e4 17050000 		lla	a0,.LANCHOR0
 289      13050500 
 290 01ec 97000000 		call	copy_and_swap@plt
 290      E7800000 
 291              	.LVL28:
 292 01f4 63080500 		beqz	a0,.L19
 293              		.loc 1 56 5 discriminator 2
 294 01f8 97000000 		call	_Z15thread_dispatchv@plt
 294      E7800000 
 295              	.LVL29:
 296 0200 6FF0DFFD 		j	.L20
 297              	.L19:
  57:test/printing.cpp ****     char buf[16];
 298              		.loc 1 57 5
  58:test/printing.cpp ****     int i, neg;
 299              		.loc 1 58 5
  59:test/printing.cpp ****     uint x;
 300              		.loc 1 59 5
  60:test/printing.cpp **** 
  61:test/printing.cpp ****     neg = 0;
 301              		.loc 1 61 5
 302              	.LVL30:
  62:test/printing.cpp ****     if(sgn && xx < 0){
 303              		.loc 1 62 5
 304 0204 63840900 		beqz	s3,.L21
 305              		.loc 1 62 12 is_stmt 0 discriminator 1
 306 0208 63C40408 		bltz	s1,.L28
 307              	.L21:
  63:test/printing.cpp ****         neg = 1;
  64:test/printing.cpp ****         x = -xx;
  65:test/printing.cpp ****     } else {
  66:test/printing.cpp ****         x = xx;
 308              		.loc 1 66 9 is_stmt 1
 309              		.loc 1 66 11 is_stmt 0
 310 020c 1B850400 		sext.w	a0,s1
 311              	.LVL31:
  61:test/printing.cpp ****     if(sgn && xx < 0){
 312              		.loc 1 61 9
 313 0210 93050000 		li	a1,0
 314              	.LVL32:
 315              	.L22:
  67:test/printing.cpp ****     }
  68:test/printing.cpp **** 
  69:test/printing.cpp ****     i = 0;
 316              		.loc 1 69 5 is_stmt 1
 317              		.loc 1 69 7 is_stmt 0
 318 0214 93040000 		li	s1,0
GAS LISTING /tmp/ccOFn2re.s 			page 8


 319              	.LVL33:
 320              	.L23:
  70:test/printing.cpp ****     do{
 321              		.loc 1 70 5 is_stmt 1
  71:test/printing.cpp ****         buf[i++] = digits[x % base];
 322              		.loc 1 71 9
 323              		.loc 1 71 31 is_stmt 0
 324 0218 9B070900 		sext.w	a5,s2
 325              		.loc 1 71 29
 326 021c 3B772503 		remuw	a4,a0,s2
 327 0220 13860400 		mv	a2,s1
 328              		.loc 1 71 14
 329 0224 9B841400 		addiw	s1,s1,1
 330              	.LVL34:
 331              		.loc 1 71 35
 332 0228 93160702 		slli	a3,a4,32
 333 022c 93D60602 		srli	a3,a3,32
 334 0230 17070000 		lla	a4,.LANCHOR1
 334      13070700 
 335 0238 3307D700 		add	a4,a4,a3
 336 023c 83460700 		lbu	a3,0(a4)
 337              		.loc 1 71 18
 338 0240 130704FD 		addi	a4,s0,-48
 339 0244 3307C700 		add	a4,a4,a2
 340 0248 2308D7FE 		sb	a3,-16(a4)
  72:test/printing.cpp ****     }while((x /= base) != 0);
 341              		.loc 1 72 24 is_stmt 1
 342 024c 1B070500 		sext.w	a4,a0
 343              		.loc 1 72 15 is_stmt 0
 344 0250 3B552503 		divuw	a0,a0,s2
 345              	.LVL35:
 346              		.loc 1 72 24
 347 0254 E372F7FC 		bleu	a5,a4,.L23
  73:test/printing.cpp ****     if(neg)
 348              		.loc 1 73 5 is_stmt 1
 349 0258 638C0500 		beqz	a1,.L26
  74:test/printing.cpp ****         buf[i++] = '-';
 350              		.loc 1 74 9
 351              	.LVL36:
 352              		.loc 1 74 18 is_stmt 0
 353 025c 930704FD 		addi	a5,s0,-48
 354 0260 B3849700 		add	s1,a5,s1
 355 0264 9307D002 		li	a5,45
 356 0268 2388F4FE 		sb	a5,-16(s1)
 357              		.loc 1 74 14
 358 026c 9B042600 		addiw	s1,a2,2
 359              	.LVL37:
 360              	.L26:
  75:test/printing.cpp **** 
  76:test/printing.cpp ****     while(--i >= 0)
 361              		.loc 1 76 5 is_stmt 1
 362              		.loc 1 76 15
 363 0270 9B84F4FF 		addiw	s1,s1,-1
 364              	.LVL38:
 365 0274 63C40402 		bltz	s1,.L25
  77:test/printing.cpp ****         putc(buf[i]);
 366              		.loc 1 77 9
GAS LISTING /tmp/ccOFn2re.s 			page 9


 367              		.loc 1 77 13 is_stmt 0
 368 0278 930704FD 		addi	a5,s0,-48
 369 027c B3879700 		add	a5,a5,s1
 370 0280 03C507FF 		lbu	a0,-16(a5)
 371 0284 97000000 		call	_Z4putcc@plt
 371      E7800000 
 372              	.LVL39:
 373 028c 6FF05FFE 		j	.L26
 374              	.LVL40:
 375              	.L28:
  63:test/printing.cpp ****         x = -xx;
 376              		.loc 1 63 9 is_stmt 1
  64:test/printing.cpp ****     } else {
 377              		.loc 1 64 9
  64:test/printing.cpp ****     } else {
 378              		.loc 1 64 11 is_stmt 0
 379 0290 3B059040 		negw	a0,s1
 380              	.LVL41:
  63:test/printing.cpp ****         x = -xx;
 381              		.loc 1 63 13
 382 0294 93051000 		li	a1,1
  64:test/printing.cpp ****     } else {
 383              		.loc 1 64 11
 384 0298 6FF0DFF7 		j	.L22
 385              	.LVL42:
 386              	.L25:
  78:test/printing.cpp **** 
  79:test/printing.cpp ****     UNLOCK();
 387              		.loc 1 79 5 is_stmt 1
 388              		.loc 1 79 5
 389 029c 13060000 		li	a2,0
 390 02a0 93051000 		li	a1,1
 391 02a4 17050000 		lla	a0,.LANCHOR0
 391      13050500 
 392 02ac 97000000 		call	copy_and_swap@plt
 392      E7800000 
 393              	.LVL43:
 394 02b4 E31405FE 		bnez	a0,.L25
  80:test/printing.cpp **** }...
 395              		.loc 1 80 1 is_stmt 0
 396 02b8 83308103 		ld	ra,56(sp)
 397              		.cfi_restore 1
 398 02bc 03340103 		ld	s0,48(sp)
 399              		.cfi_restore 8
 400              		.cfi_def_cfa 2, 64
 401 02c0 83348102 		ld	s1,40(sp)
 402              		.cfi_restore 9
 403 02c4 03390102 		ld	s2,32(sp)
 404              		.cfi_restore 18
 405 02c8 83398101 		ld	s3,24(sp)
 406              		.cfi_restore 19
 407 02cc 13010104 		addi	sp,sp,64
 408              		.cfi_def_cfa_offset 0
 409 02d0 67800000 		jr	ra
 410              		.cfi_endproc
 411              	.LFE3:
 413              		.globl	digits
GAS LISTING /tmp/ccOFn2re.s 			page 10


 414              		.globl	lockPrint
 415              		.data
 416              		.align	3
 417              		.set	.LANCHOR1,. + 0
 420              	digits:
 421 0000 30313233 		.string	"0123456789ABCDEF"
 421      34353637 
 421      38394142 
 421      43444546 
 421      00
 422              		.bss
 423              		.align	3
 424              		.set	.LANCHOR0,. + 0
 427              	lockPrint:
 428 0000 00000000 		.zero	8
 428      00000000 
 429              		.text
 430              	.Letext0:
 431              		.file 2 "test/../h/../lib/hw.h"
 432              		.file 3 "test/../h/syscall_c.hpp"
 433              		.file 4 "test/printing.hpp"
GAS LISTING /tmp/ccOFn2re.s 			page 11


DEFINED SYMBOLS
                            *ABS*:0000000000000000 printing.cpp
     /tmp/ccOFn2re.s:9      .text:0000000000000000 _Z11printStringPKc
     /tmp/ccOFn2re.s:13     .text:0000000000000000 .L0 
     /tmp/ccOFn2re.s:15     .text:0000000000000000 .L0 
     /tmp/ccOFn2re.s:16     .text:0000000000000004 .L0 
     /tmp/ccOFn2re.s:20     .text:0000000000000010 .L0 
     /tmp/ccOFn2re.s:21     .text:0000000000000010 .L0 
     /tmp/ccOFn2re.s:22     .text:0000000000000010 .L0 
     /tmp/ccOFn2re.s:24     .text:0000000000000014 .L0 
     /tmp/ccOFn2re.s:29     .text:0000000000000018 .L0 
     /tmp/ccOFn2re.s:30     .text:0000000000000018 .L0 
     /tmp/ccOFn2re.s:37     .text:0000000000000034 .L0 
     /tmp/ccOFn2re.s:42     .text:0000000000000040 .L0 
     /tmp/ccOFn2re.s:43     .text:0000000000000040 .L0 
     /tmp/ccOFn2re.s:44     .text:0000000000000040 .L0 
     /tmp/ccOFn2re.s:46     .text:0000000000000044 .L0 
     /tmp/ccOFn2re.s:48     .text:0000000000000048 .L0 
     /tmp/ccOFn2re.s:49     .text:0000000000000048 .L0 
     /tmp/ccOFn2re.s:52     .text:0000000000000050 .L0 
     /tmp/ccOFn2re.s:53     .text:0000000000000050 .L0 
     /tmp/ccOFn2re.s:56     .text:0000000000000054 .L0 
     /tmp/ccOFn2re.s:59     .text:0000000000000058 .L0 
     /tmp/ccOFn2re.s:60     .text:0000000000000058 .L0 
     /tmp/ccOFn2re.s:67     .text:0000000000000074 .L0 
     /tmp/ccOFn2re.s:68     .text:0000000000000078 .L0 
     /tmp/ccOFn2re.s:70     .text:000000000000007c .L0 
     /tmp/ccOFn2re.s:71     .text:000000000000007c .L0 
     /tmp/ccOFn2re.s:73     .text:0000000000000080 .L0 
     /tmp/ccOFn2re.s:76     .text:0000000000000084 .L0 
     /tmp/ccOFn2re.s:78     .text:0000000000000088 .L0 
     /tmp/ccOFn2re.s:84     .text:0000000000000088 _Z9getStringPci
     /tmp/ccOFn2re.s:87     .text:0000000000000088 .L0 
     /tmp/ccOFn2re.s:89     .text:0000000000000088 .L0 
     /tmp/ccOFn2re.s:90     .text:000000000000008c .L0 
     /tmp/ccOFn2re.s:97     .text:00000000000000a4 .L0 
     /tmp/ccOFn2re.s:98     .text:00000000000000a4 .L0 
     /tmp/ccOFn2re.s:99     .text:00000000000000a4 .L0 
     /tmp/ccOFn2re.s:100    .text:00000000000000a4 .L0 
     /tmp/ccOFn2re.s:101    .text:00000000000000a4 .L0 
     /tmp/ccOFn2re.s:102    .text:00000000000000a4 .L0 
     /tmp/ccOFn2re.s:104    .text:00000000000000a8 .L0 
     /tmp/ccOFn2re.s:110    .text:00000000000000b0 .L0 
     /tmp/ccOFn2re.s:111    .text:00000000000000b0 .L0 
     /tmp/ccOFn2re.s:118    .text:00000000000000cc .L0 
     /tmp/ccOFn2re.s:123    .text:00000000000000d8 .L0 
     /tmp/ccOFn2re.s:127    .text:00000000000000dc .L0 
     /tmp/ccOFn2re.s:129    .text:00000000000000e0 .L0 
     /tmp/ccOFn2re.s:132    .text:00000000000000e4 .L0 
     /tmp/ccOFn2re.s:134    .text:00000000000000e8 .L0 
     /tmp/ccOFn2re.s:135    .text:00000000000000e8 .L0 
     /tmp/ccOFn2re.s:138    .text:00000000000000f0 .L0 
     /tmp/ccOFn2re.s:140    .text:00000000000000f4 .L0 
     /tmp/ccOFn2re.s:141    .text:00000000000000f4 .L0 
     /tmp/ccOFn2re.s:144    .text:00000000000000f8 .L0 
     /tmp/ccOFn2re.s:145    .text:00000000000000f8 .L0 
     /tmp/ccOFn2re.s:147    .text:00000000000000fc .L0 
GAS LISTING /tmp/ccOFn2re.s 			page 12


     /tmp/ccOFn2re.s:149    .text:0000000000000100 .L0 
     /tmp/ccOFn2re.s:152    .text:0000000000000108 .L0 
     /tmp/ccOFn2re.s:155    .text:0000000000000110 .L0 
     /tmp/ccOFn2re.s:162    .text:000000000000011c .L0 
     /tmp/ccOFn2re.s:163    .text:000000000000011c .L0 
     /tmp/ccOFn2re.s:166    .text:0000000000000120 .L0 
     /tmp/ccOFn2re.s:169    .text:0000000000000124 .L0 
     /tmp/ccOFn2re.s:170    .text:0000000000000124 .L0 
     /tmp/ccOFn2re.s:177    .text:0000000000000140 .L0 
     /tmp/ccOFn2re.s:178    .text:0000000000000140 .L0 
     /tmp/ccOFn2re.s:180    .text:0000000000000148 .L0 
     /tmp/ccOFn2re.s:182    .text:000000000000014c .L0 
     /tmp/ccOFn2re.s:183    .text:000000000000014c .L0 
     /tmp/ccOFn2re.s:185    .text:0000000000000150 .L0 
     /tmp/ccOFn2re.s:187    .text:0000000000000154 .L0 
     /tmp/ccOFn2re.s:189    .text:0000000000000158 .L0 
     /tmp/ccOFn2re.s:192    .text:000000000000015c .L0 
     /tmp/ccOFn2re.s:194    .text:0000000000000160 .L0 
     /tmp/ccOFn2re.s:196    .text:0000000000000164 .L0 
     /tmp/ccOFn2re.s:202    .text:0000000000000164 _Z11stringToIntPKc
     /tmp/ccOFn2re.s:205    .text:0000000000000164 .L0 
     /tmp/ccOFn2re.s:207    .text:0000000000000164 .L0 
     /tmp/ccOFn2re.s:208    .text:0000000000000168 .L0 
     /tmp/ccOFn2re.s:210    .text:000000000000016c .L0 
     /tmp/ccOFn2re.s:212    .text:0000000000000170 .L0 
     /tmp/ccOFn2re.s:215    .text:0000000000000174 .L0 
     /tmp/ccOFn2re.s:217    .text:0000000000000174 .L0 
     /tmp/ccOFn2re.s:218    .text:0000000000000174 .L0 
     /tmp/ccOFn2re.s:222    .text:0000000000000178 .L0 
     /tmp/ccOFn2re.s:223    .text:0000000000000178 .L0 
     /tmp/ccOFn2re.s:224    .text:0000000000000178 .L0 
     /tmp/ccOFn2re.s:226    .text:000000000000017c .L0 
     /tmp/ccOFn2re.s:231    .text:000000000000018c .L0 
     /tmp/ccOFn2re.s:232    .text:000000000000018c .L0 
     /tmp/ccOFn2re.s:236    .text:0000000000000198 .L0 
     /tmp/ccOFn2re.s:239    .text:000000000000019c .L0 
     /tmp/ccOFn2re.s:241    .text:00000000000001a0 .L0 
     /tmp/ccOFn2re.s:244    .text:00000000000001a4 .L0 
     /tmp/ccOFn2re.s:248    .text:00000000000001a8 .L0 
     /tmp/ccOFn2re.s:249    .text:00000000000001a8 .L0 
     /tmp/ccOFn2re.s:250    .text:00000000000001ac .L0 
     /tmp/ccOFn2re.s:251    .text:00000000000001ac .L0 
     /tmp/ccOFn2re.s:253    .text:00000000000001b0 .L0 
     /tmp/ccOFn2re.s:255    .text:00000000000001b4 .L0 
     /tmp/ccOFn2re.s:261    .text:00000000000001b4 _Z8printIntiii
     /tmp/ccOFn2re.s:264    .text:00000000000001b4 .L0 
     /tmp/ccOFn2re.s:266    .text:00000000000001b4 .L0 
     /tmp/ccOFn2re.s:267    .text:00000000000001b8 .L0 
     /tmp/ccOFn2re.s:273    .text:00000000000001cc .L0 
     /tmp/ccOFn2re.s:274    .text:00000000000001cc .L0 
     /tmp/ccOFn2re.s:275    .text:00000000000001cc .L0 
     /tmp/ccOFn2re.s:276    .text:00000000000001cc .L0 
     /tmp/ccOFn2re.s:277    .text:00000000000001cc .L0 
     /tmp/ccOFn2re.s:279    .text:00000000000001d0 .L0 
     /tmp/ccOFn2re.s:286    .text:00000000000001dc .L0 
     /tmp/ccOFn2re.s:287    .text:00000000000001dc .L0 
     /tmp/ccOFn2re.s:294    .text:00000000000001f8 .L0 
GAS LISTING /tmp/ccOFn2re.s 			page 13


     /tmp/ccOFn2re.s:299    .text:0000000000000204 .L0 
     /tmp/ccOFn2re.s:300    .text:0000000000000204 .L0 
     /tmp/ccOFn2re.s:301    .text:0000000000000204 .L0 
     /tmp/ccOFn2re.s:303    .text:0000000000000204 .L0 
     /tmp/ccOFn2re.s:304    .text:0000000000000204 .L0 
     /tmp/ccOFn2re.s:306    .text:0000000000000208 .L0 
     /tmp/ccOFn2re.s:309    .text:000000000000020c .L0 
     /tmp/ccOFn2re.s:310    .text:000000000000020c .L0 
     /tmp/ccOFn2re.s:313    .text:0000000000000210 .L0 
     /tmp/ccOFn2re.s:317    .text:0000000000000214 .L0 
     /tmp/ccOFn2re.s:318    .text:0000000000000214 .L0 
     /tmp/ccOFn2re.s:322    .text:0000000000000218 .L0 
     /tmp/ccOFn2re.s:323    .text:0000000000000218 .L0 
     /tmp/ccOFn2re.s:324    .text:0000000000000218 .L0 
     /tmp/ccOFn2re.s:326    .text:000000000000021c .L0 
     /tmp/ccOFn2re.s:329    .text:0000000000000224 .L0 
     /tmp/ccOFn2re.s:332    .text:0000000000000228 .L0 
     /tmp/ccOFn2re.s:338    .text:0000000000000240 .L0 
     /tmp/ccOFn2re.s:342    .text:000000000000024c .L0 
     /tmp/ccOFn2re.s:344    .text:0000000000000250 .L0 
     /tmp/ccOFn2re.s:347    .text:0000000000000254 .L0 
     /tmp/ccOFn2re.s:349    .text:0000000000000258 .L0 
     /tmp/ccOFn2re.s:352    .text:000000000000025c .L0 
     /tmp/ccOFn2re.s:353    .text:000000000000025c .L0 
     /tmp/ccOFn2re.s:358    .text:000000000000026c .L0 
     /tmp/ccOFn2re.s:362    .text:0000000000000270 .L0 
     /tmp/ccOFn2re.s:363    .text:0000000000000270 .L0 
     /tmp/ccOFn2re.s:367    .text:0000000000000278 .L0 
     /tmp/ccOFn2re.s:368    .text:0000000000000278 .L0 
     /tmp/ccOFn2re.s:377    .text:0000000000000290 .L0 
     /tmp/ccOFn2re.s:378    .text:0000000000000290 .L0 
     /tmp/ccOFn2re.s:379    .text:0000000000000290 .L0 
     /tmp/ccOFn2re.s:382    .text:0000000000000294 .L0 
     /tmp/ccOFn2re.s:384    .text:0000000000000298 .L0 
     /tmp/ccOFn2re.s:388    .text:000000000000029c .L0 
     /tmp/ccOFn2re.s:389    .text:000000000000029c .L0 
     /tmp/ccOFn2re.s:396    .text:00000000000002b8 .L0 
     /tmp/ccOFn2re.s:397    .text:00000000000002bc .L0 
     /tmp/ccOFn2re.s:399    .text:00000000000002c0 .L0 
     /tmp/ccOFn2re.s:400    .text:00000000000002c0 .L0 
     /tmp/ccOFn2re.s:402    .text:00000000000002c4 .L0 
     /tmp/ccOFn2re.s:404    .text:00000000000002c8 .L0 
     /tmp/ccOFn2re.s:406    .text:00000000000002cc .L0 
     /tmp/ccOFn2re.s:408    .text:00000000000002d0 .L0 
     /tmp/ccOFn2re.s:410    .text:00000000000002d4 .L0 
     /tmp/ccOFn2re.s:420    .data:0000000000000000 digits
     /tmp/ccOFn2re.s:427    .bss:0000000000000000 lockPrint
     /tmp/ccOFn2re.s:417    .data:0000000000000000 .LANCHOR1
     /tmp/ccOFn2re.s:424    .bss:0000000000000000 .LANCHOR0
     /tmp/ccOFn2re.s:434    .text:00000000000002d4 .L0 
     /tmp/ccOFn2re.s:32     .text:0000000000000020 .L0 
     /tmp/ccOFn2re.s:62     .text:0000000000000060 .L0 
     /tmp/ccOFn2re.s:113    .text:00000000000000b8 .L0 
     /tmp/ccOFn2re.s:172    .text:000000000000012c .L0 
     /tmp/ccOFn2re.s:289    .text:00000000000001e4 .L0 
     /tmp/ccOFn2re.s:334    .text:0000000000000230 .L0 
     /tmp/ccOFn2re.s:391    .text:00000000000002a4 .L0 
GAS LISTING /tmp/ccOFn2re.s 			page 14


     /tmp/ccOFn2re.s:40     .text:0000000000000040 .L2
     /tmp/ccOFn2re.s:27     .text:0000000000000018 .L3
     /tmp/ccOFn2re.s:57     .text:0000000000000058 .L4
     /tmp/ccOFn2re.s:121    .text:00000000000000d8 .L11
     /tmp/ccOFn2re.s:108    .text:00000000000000b0 .L8
     /tmp/ccOFn2re.s:160    .text:000000000000011c .L9
     /tmp/ccOFn2re.s:157    .text:0000000000000118 .L12
     /tmp/ccOFn2re.s:124    .text:00000000000000dc .L7
     /tmp/ccOFn2re.s:167    .text:0000000000000124 .L10
     /tmp/ccOFn2re.s:246    .text:00000000000001a8 .L15
     /tmp/ccOFn2re.s:220    .text:0000000000000178 .L16
     /tmp/ccOFn2re.s:297    .text:0000000000000204 .L19
     /tmp/ccOFn2re.s:284    .text:00000000000001dc .L20
     /tmp/ccOFn2re.s:307    .text:000000000000020c .L21
     /tmp/ccOFn2re.s:375    .text:0000000000000290 .L28
     /tmp/ccOFn2re.s:320    .text:0000000000000218 .L23
     /tmp/ccOFn2re.s:360    .text:0000000000000270 .L26
     /tmp/ccOFn2re.s:386    .text:000000000000029c .L25
     /tmp/ccOFn2re.s:315    .text:0000000000000214 .L22
     /tmp/ccOFn2re.s:959    .debug_abbrev:0000000000000000 .Ldebug_abbrev0
     /tmp/ccOFn2re.s:1593   .debug_str:000000000000012a .LASF38
     /tmp/ccOFn2re.s:1625   .debug_str:00000000000002ad .LASF39
     /tmp/ccOFn2re.s:1589   .debug_str:00000000000000ff .LASF40
     /tmp/ccOFn2re.s:5      .text:0000000000000000 .Ltext0
     /tmp/ccOFn2re.s:430    .text:00000000000002d4 .Letext0
     /tmp/ccOFn2re.s:1549   .debug_line:0000000000000000 .Ldebug_line0
     /tmp/ccOFn2re.s:1601   .debug_str:000000000000020b .LASF0
     /tmp/ccOFn2re.s:1597   .debug_str:0000000000000201 .LASF3
     /tmp/ccOFn2re.s:1587   .debug_str:00000000000000ec .LASF1
     /tmp/ccOFn2re.s:1579   .debug_str:00000000000000bd .LASF2
     /tmp/ccOFn2re.s:1557   .debug_str:0000000000000028 .LASF4
     /tmp/ccOFn2re.s:1585   .debug_str:00000000000000da .LASF5
     /tmp/ccOFn2re.s:1553   .debug_str:0000000000000013 .LASF6
     /tmp/ccOFn2re.s:1551   .debug_str:0000000000000000 .LASF7
     /tmp/ccOFn2re.s:1573   .debug_str:0000000000000091 .LASF8
     /tmp/ccOFn2re.s:1607   .debug_str:0000000000000222 .LASF9
     /tmp/ccOFn2re.s:1555   .debug_str:000000000000001a .LASF10
     /tmp/ccOFn2re.s:1631   .debug_str:00000000000002d4 .LASF11
     /tmp/ccOFn2re.s:1575   .debug_str:00000000000000a4 .LASF12
     /tmp/ccOFn2re.s:1623   .debug_str:000000000000029d .LASF13
     /tmp/ccOFn2re.s:1611   .debug_str:0000000000000248 .LASF14
     /tmp/ccOFn2re.s:1591   .debug_str:000000000000011e .LASF15
     /tmp/ccOFn2re.s:1563   .debug_str:0000000000000048 .LASF16
     /tmp/ccOFn2re.s:1609   .debug_str:0000000000000232 .LASF17
     /tmp/ccOFn2re.s:1577   .debug_str:00000000000000b3 .LASF18
     /tmp/ccOFn2re.s:1605   .debug_str:000000000000021d .LASF19
     /tmp/ccOFn2re.s:1619   .debug_str:0000000000000283 .LASF20
     /tmp/ccOFn2re.s:1561   .debug_str:000000000000003f .LASF26
     /tmp/ccOFn2re.s:1617   .debug_str:0000000000000274 .LASF28
     /tmp/ccOFn2re.s:262    .text:00000000000001b4 .LFB3
     /tmp/ccOFn2re.s:411    .text:00000000000002d4 .LFE3
     /tmp/ccOFn2re.s:1328   .debug_loc:0000000000000000 .LLST8
     /tmp/ccOFn2re.s:1599   .debug_str:0000000000000206 .LASF21
     /tmp/ccOFn2re.s:1342   .debug_loc:0000000000000039 .LLST9
     /tmp/ccOFn2re.s:1356   .debug_loc:0000000000000072 .LLST10
     /tmp/ccOFn2re.s:1370   .debug_loc:00000000000000ab .LLST11
     /tmp/ccOFn2re.s:1392   .debug_loc:000000000000010a .LLST12
GAS LISTING /tmp/ccOFn2re.s 			page 15


     /tmp/ccOFn2re.s:1409   .debug_loc:0000000000000155 .LLST13
     /tmp/ccOFn2re.s:291    .text:00000000000001f4 .LVL28
     /tmp/ccOFn2re.s:295    .text:0000000000000200 .LVL29
     /tmp/ccOFn2re.s:372    .text:000000000000028c .LVL39
     /tmp/ccOFn2re.s:393    .text:00000000000002b4 .LVL43
     /tmp/ccOFn2re.s:1613   .debug_str:0000000000000258 .LASF22
     /tmp/ccOFn2re.s:1621   .debug_str:000000000000028a .LASF24
     /tmp/ccOFn2re.s:203    .text:0000000000000164 .LFB2
     /tmp/ccOFn2re.s:256    .text:00000000000001b4 .LFE2
     /tmp/ccOFn2re.s:1438   .debug_loc:00000000000001ac .LLST6
     /tmp/ccOFn2re.s:1449   .debug_loc:00000000000001e2 .LLST7
     /tmp/ccOFn2re.s:1583   .debug_str:00000000000000d0 .LASF23
     /tmp/ccOFn2re.s:1559   .debug_str:000000000000002f .LASF25
     /tmp/ccOFn2re.s:85     .text:0000000000000088 .LFB1
     /tmp/ccOFn2re.s:197    .text:0000000000000164 .LFE1
     /tmp/ccOFn2re.s:1471   .debug_loc:0000000000000241 .LLST1
     /tmp/ccOFn2re.s:1486   .debug_loc:000000000000028a .LLST2
     /tmp/ccOFn2re.s:1500   .debug_loc:00000000000002c3 .LLST3
     /tmp/ccOFn2re.s:1511   .debug_loc:00000000000002f9 .LLST4
     /tmp/ccOFn2re.s:1518   .debug_loc:000000000000031c .LLST5
     /tmp/ccOFn2re.s:115    .text:00000000000000c8 .LVL10
     /tmp/ccOFn2re.s:119    .text:00000000000000d4 .LVL11
     /tmp/ccOFn2re.s:136    .text:00000000000000f0 .LVL14
     /tmp/ccOFn2re.s:174    .text:000000000000013c .LVL18
     /tmp/ccOFn2re.s:1629   .debug_str:00000000000002c8 .LASF27
     /tmp/ccOFn2re.s:1595   .debug_str:00000000000001ee .LASF29
     /tmp/ccOFn2re.s:10     .text:0000000000000000 .LFB0
     /tmp/ccOFn2re.s:79     .text:0000000000000088 .LFE0
     /tmp/ccOFn2re.s:1569   .debug_str:0000000000000075 .LASF30
     /tmp/ccOFn2re.s:1525   .debug_loc:000000000000033f .LLST0
     /tmp/ccOFn2re.s:34     .text:0000000000000030 .LVL2
     /tmp/ccOFn2re.s:38     .text:000000000000003c .LVL3
     /tmp/ccOFn2re.s:50     .text:0000000000000050 .LVL4
     /tmp/ccOFn2re.s:64     .text:0000000000000070 .LVL6
     /tmp/ccOFn2re.s:1565   .debug_str:000000000000005e .LASF31
     /tmp/ccOFn2re.s:1571   .debug_str:000000000000007c .LASF32
     /tmp/ccOFn2re.s:1615   .debug_str:0000000000000264 .LASF33
     /tmp/ccOFn2re.s:1567   .debug_str:000000000000006c .LASF34
     /tmp/ccOFn2re.s:1603   .debug_str:0000000000000218 .LASF35
     /tmp/ccOFn2re.s:1627   .debug_str:00000000000002bf .LASF36
     /tmp/ccOFn2re.s:1581   .debug_str:00000000000000cb .LASF37
     /tmp/ccOFn2re.s:265    .text:00000000000001b4 .LVL26
     /tmp/ccOFn2re.s:283    .text:00000000000001dc .LVL27
     /tmp/ccOFn2re.s:314    .text:0000000000000214 .LVL32
     /tmp/ccOFn2re.s:319    .text:0000000000000218 .LVL33
     /tmp/ccOFn2re.s:330    .text:0000000000000228 .LVL34
     /tmp/ccOFn2re.s:351    .text:000000000000025c .LVL36
     /tmp/ccOFn2re.s:359    .text:0000000000000270 .LVL37
     /tmp/ccOFn2re.s:364    .text:0000000000000274 .LVL38
     /tmp/ccOFn2re.s:302    .text:0000000000000204 .LVL30
     /tmp/ccOFn2re.s:374    .text:0000000000000290 .LVL40
     /tmp/ccOFn2re.s:385    .text:000000000000029c .LVL42
     /tmp/ccOFn2re.s:311    .text:0000000000000210 .LVL31
     /tmp/ccOFn2re.s:345    .text:0000000000000254 .LVL35
     /tmp/ccOFn2re.s:380    .text:0000000000000294 .LVL41
     /tmp/ccOFn2re.s:206    .text:0000000000000164 .LVL20
     /tmp/ccOFn2re.s:219    .text:0000000000000178 .LVL22
GAS LISTING /tmp/ccOFn2re.s 			page 16


     /tmp/ccOFn2re.s:216    .text:0000000000000174 .LVL21
     /tmp/ccOFn2re.s:242    .text:00000000000001a4 .LVL24
     /tmp/ccOFn2re.s:245    .text:00000000000001a8 .LVL25
     /tmp/ccOFn2re.s:88     .text:0000000000000088 .LVL8
     /tmp/ccOFn2re.s:107    .text:00000000000000b0 .LVL9
     /tmp/ccOFn2re.s:190    .text:0000000000000158 .LVL19
     /tmp/ccOFn2re.s:125    .text:00000000000000dc .LVL12
     /tmp/ccOFn2re.s:130    .text:00000000000000e4 .LVL13
     /tmp/ccOFn2re.s:159    .text:000000000000011c .LVL16
     /tmp/ccOFn2re.s:164    .text:0000000000000120 .LVL17
     /tmp/ccOFn2re.s:142    .text:00000000000000f8 .LVL15
     /tmp/ccOFn2re.s:14     .text:0000000000000000 .LVL0
     /tmp/ccOFn2re.s:26     .text:0000000000000018 .LVL1
     /tmp/ccOFn2re.s:74     .text:0000000000000080 .LVL7
     /tmp/ccOFn2re.s:435    .debug_info:0000000000000000 .Ldebug_info0

UNDEFINED SYMBOLS
copy_and_swap
_Z15thread_dispatchv
_Z4putcc
_Z4getcv
