GAS LISTING /tmp/cc6bA9Dg.s 			page 1


   1              		.file	"Threads_CPP_API_test.cpp"
   2              		.option pic
   3              		.option norelax
   4              		.text
   5              	.Ltext0:
   6              		.align	2
   8              	_ZL9fibonaccim:
   9              	.LFB2:
  10              		.file 1 "test/Threads_CPP_API_test.cpp"
   1:test/Threads_CPP_API_test.cpp **** #include "../h/syscall_cpp.hpp"
   2:test/Threads_CPP_API_test.cpp **** 
   3:test/Threads_CPP_API_test.cpp **** #include "printing.hpp"
   4:test/Threads_CPP_API_test.cpp **** 
   5:test/Threads_CPP_API_test.cpp **** static volatile bool finishedA = false;
   6:test/Threads_CPP_API_test.cpp **** static volatile bool finishedB = false;
   7:test/Threads_CPP_API_test.cpp **** static volatile bool finishedC = false;
   8:test/Threads_CPP_API_test.cpp **** static volatile bool finishedD = false;
   9:test/Threads_CPP_API_test.cpp **** 
  10:test/Threads_CPP_API_test.cpp **** static uint64 fibonacci(uint64 n) {
  11              		.loc 1 10 35
  12              		.cfi_startproc
  13              	.LVL0:
  14 0000 130101FE 		addi	sp,sp,-32
  15              		.cfi_def_cfa_offset 32
  16 0004 233C1100 		sd	ra,24(sp)
  17 0008 23388100 		sd	s0,16(sp)
  18 000c 23349100 		sd	s1,8(sp)
  19 0010 23302101 		sd	s2,0(sp)
  20              		.cfi_offset 1, -8
  21              		.cfi_offset 8, -16
  22              		.cfi_offset 9, -24
  23              		.cfi_offset 18, -32
  24 0014 13040102 		addi	s0,sp,32
  25              		.cfi_def_cfa 8, 0
  26 0018 93040500 		mv	s1,a0
  11:test/Threads_CPP_API_test.cpp ****     if (n == 0 || n == 1) { return n; }
  27              		.loc 1 11 5
  28 001c 93071000 		li	a5,1
  29 0020 63F8A702 		bleu	a0,a5,.L1
  12:test/Threads_CPP_API_test.cpp ****     if (n % 10 == 0) { thread_dispatch(); }
  30              		.loc 1 12 5
  31              		.loc 1 12 11 is_stmt 0
  32 0024 9307A000 		li	a5,10
  33 0028 B377F502 		remu	a5,a0,a5
  34              		.loc 1 12 5
  35 002c 638E0702 		beqz	a5,.L6
  36              	.LVL1:
  37              	.L3:
  13:test/Threads_CPP_API_test.cpp ****     return fibonacci(n - 1) + fibonacci(n - 2);
  38              		.loc 1 13 5 is_stmt 1
  39              		.loc 1 13 21 is_stmt 0
  40 0030 1385F4FF 		addi	a0,s1,-1
  41 0034 97000000 		call	_ZL9fibonaccim
  41      E7800000 
  42              	.LVL2:
  43 003c 13090500 		mv	s2,a0
  44              		.loc 1 13 40
GAS LISTING /tmp/cc6bA9Dg.s 			page 2


  45 0040 1385E4FF 		addi	a0,s1,-2
  46 0044 97000000 		call	_ZL9fibonaccim
  46      E7800000 
  47              	.LVL3:
  48              		.loc 1 13 46
  49 004c 3305A900 		add	a0,s2,a0
  50              	.L1:
  14:test/Threads_CPP_API_test.cpp **** }
  51              		.loc 1 14 1
  52 0050 83308101 		ld	ra,24(sp)
  53              		.cfi_remember_state
  54              		.cfi_restore 1
  55 0054 03340101 		ld	s0,16(sp)
  56              		.cfi_restore 8
  57              		.cfi_def_cfa 2, 32
  58 0058 83348100 		ld	s1,8(sp)
  59              		.cfi_restore 9
  60              	.LVL4:
  61 005c 03390100 		ld	s2,0(sp)
  62              		.cfi_restore 18
  63 0060 13010102 		addi	sp,sp,32
  64              		.cfi_def_cfa_offset 0
  65 0064 67800000 		jr	ra
  66              	.LVL5:
  67              	.L6:
  68              		.cfi_restore_state
  12:test/Threads_CPP_API_test.cpp ****     if (n % 10 == 0) { thread_dispatch(); }
  69              		.loc 1 12 24 is_stmt 1 discriminator 1
  12:test/Threads_CPP_API_test.cpp ****     if (n % 10 == 0) { thread_dispatch(); }
  70              		.loc 1 12 39 is_stmt 0 discriminator 1
  71 0068 97000000 		call	_Z15thread_dispatchv@plt
  71      E7800000 
  72              	.LVL6:
  73 0070 6FF01FFC 		j	.L3
  74              		.cfi_endproc
  75              	.LFE2:
  77              		.section	.text._ZN7WorkerAD2Ev,"axG",@progbits,_ZN7WorkerAD5Ev,comdat
  78              		.align	2
  79              		.weak	_ZN7WorkerAD2Ev
  81              	_ZN7WorkerAD2Ev:
  82              	.LFB40:
  15:test/Threads_CPP_API_test.cpp **** 
  16:test/Threads_CPP_API_test.cpp **** class WorkerA: public Thread {
  83              		.loc 1 16 7 is_stmt 1
  84              		.cfi_startproc
  85              	.LVL7:
  86 0000 130101FF 		addi	sp,sp,-16
  87              		.cfi_def_cfa_offset 16
  88 0004 23341100 		sd	ra,8(sp)
  89 0008 23308100 		sd	s0,0(sp)
  90              		.cfi_offset 1, -8
  91              		.cfi_offset 8, -16
  92 000c 13040101 		addi	s0,sp,16
  93              		.cfi_def_cfa 8, 0
  94              	.LBB48:
  95              		.loc 1 16 7 is_stmt 0
  96 0010 97070000 		lla	a5,_ZTV7WorkerA+16
GAS LISTING /tmp/cc6bA9Dg.s 			page 3


  96      93870700 
  97 0018 2330F500 		sd	a5,0(a0)
  98 001c 97000000 		call	_ZN6ThreadD2Ev@plt
  98      E7800000 
  99              	.LVL8:
 100              	.LBE48:
 101 0024 83308100 		ld	ra,8(sp)
 102              		.cfi_restore 1
 103 0028 03340100 		ld	s0,0(sp)
 104              		.cfi_restore 8
 105              		.cfi_def_cfa 2, 16
 106 002c 13010101 		addi	sp,sp,16
 107              		.cfi_def_cfa_offset 0
 108 0030 67800000 		jr	ra
 109              		.cfi_endproc
 110              	.LFE40:
 112              		.weak	_ZN7WorkerAD1Ev
 113              		.set	_ZN7WorkerAD1Ev,_ZN7WorkerAD2Ev
 114              		.section	.text._ZN7WorkerAD0Ev,"axG",@progbits,_ZN7WorkerAD5Ev,comdat
 115              		.align	2
 116              		.weak	_ZN7WorkerAD0Ev
 118              	_ZN7WorkerAD0Ev:
 119              	.LFB42:
 120              		.loc 1 16 7 is_stmt 1
 121              		.cfi_startproc
 122              	.LVL9:
 123 0000 130101FE 		addi	sp,sp,-32
 124              		.cfi_def_cfa_offset 32
 125 0004 233C1100 		sd	ra,24(sp)
 126 0008 23388100 		sd	s0,16(sp)
 127 000c 23349100 		sd	s1,8(sp)
 128              		.cfi_offset 1, -8
 129              		.cfi_offset 8, -16
 130              		.cfi_offset 9, -24
 131 0010 13040102 		addi	s0,sp,32
 132              		.cfi_def_cfa 8, 0
 133 0014 93040500 		mv	s1,a0
 134              	.LVL10:
 135              	.LBB49:
 136              	.LBB50:
 137              		.loc 1 16 7 is_stmt 0
 138 0018 97070000 		lla	a5,_ZTV7WorkerA+16
 138      93870700 
 139 0020 2330F500 		sd	a5,0(a0)
 140 0024 97000000 		call	_ZN6ThreadD2Ev@plt
 140      E7800000 
 141              	.LVL11:
 142              	.LBE50:
 143              	.LBE49:
 144 002c 13850400 		mv	a0,s1
 145 0030 97000000 		call	_ZdlPv@plt
 145      E7800000 
 146              	.LVL12:
 147 0038 83308101 		ld	ra,24(sp)
 148              		.cfi_restore 1
 149 003c 03340101 		ld	s0,16(sp)
 150              		.cfi_restore 8
GAS LISTING /tmp/cc6bA9Dg.s 			page 4


 151              		.cfi_def_cfa 2, 32
 152 0040 83348100 		ld	s1,8(sp)
 153              		.cfi_restore 9
 154              	.LVL13:
 155 0044 13010102 		addi	sp,sp,32
 156              		.cfi_def_cfa_offset 0
 157 0048 67800000 		jr	ra
 158              		.cfi_endproc
 159              	.LFE42:
 161              		.section	.text._ZN7WorkerBD2Ev,"axG",@progbits,_ZN7WorkerBD5Ev,comdat
 162              		.align	2
 163              		.weak	_ZN7WorkerBD2Ev
 165              	_ZN7WorkerBD2Ev:
 166              	.LFB36:
  17:test/Threads_CPP_API_test.cpp ****     void workerBodyA(void* arg);
  18:test/Threads_CPP_API_test.cpp **** public:
  19:test/Threads_CPP_API_test.cpp ****     WorkerA():Thread() {}
  20:test/Threads_CPP_API_test.cpp **** 
  21:test/Threads_CPP_API_test.cpp ****     void run() override {
  22:test/Threads_CPP_API_test.cpp ****         workerBodyA(nullptr);
  23:test/Threads_CPP_API_test.cpp ****     }
  24:test/Threads_CPP_API_test.cpp **** };
  25:test/Threads_CPP_API_test.cpp **** 
  26:test/Threads_CPP_API_test.cpp **** class WorkerB: public Thread {
 167              		.loc 1 26 7 is_stmt 1
 168              		.cfi_startproc
 169              	.LVL14:
 170 0000 130101FF 		addi	sp,sp,-16
 171              		.cfi_def_cfa_offset 16
 172 0004 23341100 		sd	ra,8(sp)
 173 0008 23308100 		sd	s0,0(sp)
 174              		.cfi_offset 1, -8
 175              		.cfi_offset 8, -16
 176 000c 13040101 		addi	s0,sp,16
 177              		.cfi_def_cfa 8, 0
 178              	.LBB51:
 179              		.loc 1 26 7 is_stmt 0
 180 0010 97070000 		lla	a5,_ZTV7WorkerB+16
 180      93870700 
 181 0018 2330F500 		sd	a5,0(a0)
 182 001c 97000000 		call	_ZN6ThreadD2Ev@plt
 182      E7800000 
 183              	.LVL15:
 184              	.LBE51:
 185 0024 83308100 		ld	ra,8(sp)
 186              		.cfi_restore 1
 187 0028 03340100 		ld	s0,0(sp)
 188              		.cfi_restore 8
 189              		.cfi_def_cfa 2, 16
 190 002c 13010101 		addi	sp,sp,16
 191              		.cfi_def_cfa_offset 0
 192 0030 67800000 		jr	ra
 193              		.cfi_endproc
 194              	.LFE36:
 196              		.weak	_ZN7WorkerBD1Ev
 197              		.set	_ZN7WorkerBD1Ev,_ZN7WorkerBD2Ev
 198              		.section	.text._ZN7WorkerBD0Ev,"axG",@progbits,_ZN7WorkerBD5Ev,comdat
GAS LISTING /tmp/cc6bA9Dg.s 			page 5


 199              		.align	2
 200              		.weak	_ZN7WorkerBD0Ev
 202              	_ZN7WorkerBD0Ev:
 203              	.LFB38:
 204              		.loc 1 26 7 is_stmt 1
 205              		.cfi_startproc
 206              	.LVL16:
 207 0000 130101FE 		addi	sp,sp,-32
 208              		.cfi_def_cfa_offset 32
 209 0004 233C1100 		sd	ra,24(sp)
 210 0008 23388100 		sd	s0,16(sp)
 211 000c 23349100 		sd	s1,8(sp)
 212              		.cfi_offset 1, -8
 213              		.cfi_offset 8, -16
 214              		.cfi_offset 9, -24
 215 0010 13040102 		addi	s0,sp,32
 216              		.cfi_def_cfa 8, 0
 217 0014 93040500 		mv	s1,a0
 218              	.LVL17:
 219              	.LBB52:
 220              	.LBB53:
 221              		.loc 1 26 7 is_stmt 0
 222 0018 97070000 		lla	a5,_ZTV7WorkerB+16
 222      93870700 
 223 0020 2330F500 		sd	a5,0(a0)
 224 0024 97000000 		call	_ZN6ThreadD2Ev@plt
 224      E7800000 
 225              	.LVL18:
 226              	.LBE53:
 227              	.LBE52:
 228 002c 13850400 		mv	a0,s1
 229 0030 97000000 		call	_ZdlPv@plt
 229      E7800000 
 230              	.LVL19:
 231 0038 83308101 		ld	ra,24(sp)
 232              		.cfi_restore 1
 233 003c 03340101 		ld	s0,16(sp)
 234              		.cfi_restore 8
 235              		.cfi_def_cfa 2, 32
 236 0040 83348100 		ld	s1,8(sp)
 237              		.cfi_restore 9
 238              	.LVL20:
 239 0044 13010102 		addi	sp,sp,32
 240              		.cfi_def_cfa_offset 0
 241 0048 67800000 		jr	ra
 242              		.cfi_endproc
 243              	.LFE38:
 245              		.section	.text._ZN7WorkerCD2Ev,"axG",@progbits,_ZN7WorkerCD5Ev,comdat
 246              		.align	2
 247              		.weak	_ZN7WorkerCD2Ev
 249              	_ZN7WorkerCD2Ev:
 250              	.LFB32:
  27:test/Threads_CPP_API_test.cpp ****     void workerBodyB(void* arg);
  28:test/Threads_CPP_API_test.cpp **** public:
  29:test/Threads_CPP_API_test.cpp ****     WorkerB():Thread() {}
  30:test/Threads_CPP_API_test.cpp **** 
  31:test/Threads_CPP_API_test.cpp ****     void run() override {
GAS LISTING /tmp/cc6bA9Dg.s 			page 6


  32:test/Threads_CPP_API_test.cpp ****         workerBodyB(nullptr);
  33:test/Threads_CPP_API_test.cpp ****     }
  34:test/Threads_CPP_API_test.cpp **** };
  35:test/Threads_CPP_API_test.cpp **** 
  36:test/Threads_CPP_API_test.cpp **** class WorkerC: public Thread {
 251              		.loc 1 36 7 is_stmt 1
 252              		.cfi_startproc
 253              	.LVL21:
 254 0000 130101FF 		addi	sp,sp,-16
 255              		.cfi_def_cfa_offset 16
 256 0004 23341100 		sd	ra,8(sp)
 257 0008 23308100 		sd	s0,0(sp)
 258              		.cfi_offset 1, -8
 259              		.cfi_offset 8, -16
 260 000c 13040101 		addi	s0,sp,16
 261              		.cfi_def_cfa 8, 0
 262              	.LBB54:
 263              		.loc 1 36 7 is_stmt 0
 264 0010 97070000 		lla	a5,_ZTV7WorkerC+16
 264      93870700 
 265 0018 2330F500 		sd	a5,0(a0)
 266 001c 97000000 		call	_ZN6ThreadD2Ev@plt
 266      E7800000 
 267              	.LVL22:
 268              	.LBE54:
 269 0024 83308100 		ld	ra,8(sp)
 270              		.cfi_restore 1
 271 0028 03340100 		ld	s0,0(sp)
 272              		.cfi_restore 8
 273              		.cfi_def_cfa 2, 16
 274 002c 13010101 		addi	sp,sp,16
 275              		.cfi_def_cfa_offset 0
 276 0030 67800000 		jr	ra
 277              		.cfi_endproc
 278              	.LFE32:
 280              		.weak	_ZN7WorkerCD1Ev
 281              		.set	_ZN7WorkerCD1Ev,_ZN7WorkerCD2Ev
 282              		.section	.text._ZN7WorkerCD0Ev,"axG",@progbits,_ZN7WorkerCD5Ev,comdat
 283              		.align	2
 284              		.weak	_ZN7WorkerCD0Ev
 286              	_ZN7WorkerCD0Ev:
 287              	.LFB34:
 288              		.loc 1 36 7 is_stmt 1
 289              		.cfi_startproc
 290              	.LVL23:
 291 0000 130101FE 		addi	sp,sp,-32
 292              		.cfi_def_cfa_offset 32
 293 0004 233C1100 		sd	ra,24(sp)
 294 0008 23388100 		sd	s0,16(sp)
 295 000c 23349100 		sd	s1,8(sp)
 296              		.cfi_offset 1, -8
 297              		.cfi_offset 8, -16
 298              		.cfi_offset 9, -24
 299 0010 13040102 		addi	s0,sp,32
 300              		.cfi_def_cfa 8, 0
 301 0014 93040500 		mv	s1,a0
 302              	.LVL24:
GAS LISTING /tmp/cc6bA9Dg.s 			page 7


 303              	.LBB55:
 304              	.LBB56:
 305              		.loc 1 36 7 is_stmt 0
 306 0018 97070000 		lla	a5,_ZTV7WorkerC+16
 306      93870700 
 307 0020 2330F500 		sd	a5,0(a0)
 308 0024 97000000 		call	_ZN6ThreadD2Ev@plt
 308      E7800000 
 309              	.LVL25:
 310              	.LBE56:
 311              	.LBE55:
 312 002c 13850400 		mv	a0,s1
 313 0030 97000000 		call	_ZdlPv@plt
 313      E7800000 
 314              	.LVL26:
 315 0038 83308101 		ld	ra,24(sp)
 316              		.cfi_restore 1
 317 003c 03340101 		ld	s0,16(sp)
 318              		.cfi_restore 8
 319              		.cfi_def_cfa 2, 32
 320 0040 83348100 		ld	s1,8(sp)
 321              		.cfi_restore 9
 322              	.LVL27:
 323 0044 13010102 		addi	sp,sp,32
 324              		.cfi_def_cfa_offset 0
 325 0048 67800000 		jr	ra
 326              		.cfi_endproc
 327              	.LFE34:
 329              		.section	.text._ZN7WorkerDD2Ev,"axG",@progbits,_ZN7WorkerDD5Ev,comdat
 330              		.align	2
 331              		.weak	_ZN7WorkerDD2Ev
 333              	_ZN7WorkerDD2Ev:
 334              	.LFB28:
  37:test/Threads_CPP_API_test.cpp ****     void workerBodyC(void* arg);
  38:test/Threads_CPP_API_test.cpp **** public:
  39:test/Threads_CPP_API_test.cpp ****     WorkerC():Thread() {}
  40:test/Threads_CPP_API_test.cpp **** 
  41:test/Threads_CPP_API_test.cpp ****     void run() override {
  42:test/Threads_CPP_API_test.cpp ****         workerBodyC(nullptr);
  43:test/Threads_CPP_API_test.cpp ****     }
  44:test/Threads_CPP_API_test.cpp **** };
  45:test/Threads_CPP_API_test.cpp **** 
  46:test/Threads_CPP_API_test.cpp **** class WorkerD: public Thread {
 335              		.loc 1 46 7 is_stmt 1
 336              		.cfi_startproc
 337              	.LVL28:
 338 0000 130101FF 		addi	sp,sp,-16
 339              		.cfi_def_cfa_offset 16
 340 0004 23341100 		sd	ra,8(sp)
 341 0008 23308100 		sd	s0,0(sp)
 342              		.cfi_offset 1, -8
 343              		.cfi_offset 8, -16
 344 000c 13040101 		addi	s0,sp,16
 345              		.cfi_def_cfa 8, 0
 346              	.LBB57:
 347              		.loc 1 46 7 is_stmt 0
 348 0010 97070000 		lla	a5,_ZTV7WorkerD+16
GAS LISTING /tmp/cc6bA9Dg.s 			page 8


 348      93870700 
 349 0018 2330F500 		sd	a5,0(a0)
 350 001c 97000000 		call	_ZN6ThreadD2Ev@plt
 350      E7800000 
 351              	.LVL29:
 352              	.LBE57:
 353 0024 83308100 		ld	ra,8(sp)
 354              		.cfi_restore 1
 355 0028 03340100 		ld	s0,0(sp)
 356              		.cfi_restore 8
 357              		.cfi_def_cfa 2, 16
 358 002c 13010101 		addi	sp,sp,16
 359              		.cfi_def_cfa_offset 0
 360 0030 67800000 		jr	ra
 361              		.cfi_endproc
 362              	.LFE28:
 364              		.weak	_ZN7WorkerDD1Ev
 365              		.set	_ZN7WorkerDD1Ev,_ZN7WorkerDD2Ev
 366              		.section	.text._ZN7WorkerDD0Ev,"axG",@progbits,_ZN7WorkerDD5Ev,comdat
 367              		.align	2
 368              		.weak	_ZN7WorkerDD0Ev
 370              	_ZN7WorkerDD0Ev:
 371              	.LFB30:
 372              		.loc 1 46 7 is_stmt 1
 373              		.cfi_startproc
 374              	.LVL30:
 375 0000 130101FE 		addi	sp,sp,-32
 376              		.cfi_def_cfa_offset 32
 377 0004 233C1100 		sd	ra,24(sp)
 378 0008 23388100 		sd	s0,16(sp)
 379 000c 23349100 		sd	s1,8(sp)
 380              		.cfi_offset 1, -8
 381              		.cfi_offset 8, -16
 382              		.cfi_offset 9, -24
 383 0010 13040102 		addi	s0,sp,32
 384              		.cfi_def_cfa 8, 0
 385 0014 93040500 		mv	s1,a0
 386              	.LVL31:
 387              	.LBB58:
 388              	.LBB59:
 389              		.loc 1 46 7 is_stmt 0
 390 0018 97070000 		lla	a5,_ZTV7WorkerD+16
 390      93870700 
 391 0020 2330F500 		sd	a5,0(a0)
 392 0024 97000000 		call	_ZN6ThreadD2Ev@plt
 392      E7800000 
 393              	.LVL32:
 394              	.LBE59:
 395              	.LBE58:
 396 002c 13850400 		mv	a0,s1
 397 0030 97000000 		call	_ZdlPv@plt
 397      E7800000 
 398              	.LVL33:
 399 0038 83308101 		ld	ra,24(sp)
 400              		.cfi_restore 1
 401 003c 03340101 		ld	s0,16(sp)
 402              		.cfi_restore 8
GAS LISTING /tmp/cc6bA9Dg.s 			page 9


 403              		.cfi_def_cfa 2, 32
 404 0040 83348100 		ld	s1,8(sp)
 405              		.cfi_restore 9
 406              	.LVL34:
 407 0044 13010102 		addi	sp,sp,32
 408              		.cfi_def_cfa_offset 0
 409 0048 67800000 		jr	ra
 410              		.cfi_endproc
 411              	.LFE30:
 413              		.section	.rodata.str1.8,"aMS",@progbits,1
 414              		.align	3
 415              	.LC0:
 416 0000 413A2069 		.string	"A: i="
 416      3D00
 417 0006 0000     		.align	3
 418              	.LC1:
 419 0008 0A00     		.string	"\n"
 420 000a 00000000 		.align	3
 420      0000
 421              	.LC2:
 422 0010 41206669 		.string	"A finished!\n"
 422      6E697368 
 422      6564210A 
 422      00
 423              		.text
 424              		.align	2
 425              		.globl	_ZN7WorkerA11workerBodyAEPv
 427              	_ZN7WorkerA11workerBodyAEPv:
 428              	.LFB22:
  47:test/Threads_CPP_API_test.cpp ****     void workerBodyD(void* arg);
  48:test/Threads_CPP_API_test.cpp **** public:
  49:test/Threads_CPP_API_test.cpp ****     WorkerD():Thread() {}
  50:test/Threads_CPP_API_test.cpp **** 
  51:test/Threads_CPP_API_test.cpp ****     void run() override {
  52:test/Threads_CPP_API_test.cpp ****         workerBodyD(nullptr);
  53:test/Threads_CPP_API_test.cpp ****     }
  54:test/Threads_CPP_API_test.cpp **** };
  55:test/Threads_CPP_API_test.cpp **** 
  56:test/Threads_CPP_API_test.cpp **** void WorkerA::workerBodyA(void *arg) {
 429              		.loc 1 56 38 is_stmt 1
 430              		.cfi_startproc
 431              	.LVL35:
 432 0074 130101FE 		addi	sp,sp,-32
 433              		.cfi_def_cfa_offset 32
 434 0078 233C1100 		sd	ra,24(sp)
 435 007c 23388100 		sd	s0,16(sp)
 436 0080 23349100 		sd	s1,8(sp)
 437 0084 23302101 		sd	s2,0(sp)
 438              		.cfi_offset 1, -8
 439              		.cfi_offset 8, -16
 440              		.cfi_offset 9, -24
 441              		.cfi_offset 18, -32
 442 0088 13040102 		addi	s0,sp,32
 443              		.cfi_def_cfa 8, 0
  57:test/Threads_CPP_API_test.cpp ****     for (uint64 i = 0; i < 10; i++) {
 444              		.loc 1 57 5
 445              	.LVL36:
GAS LISTING /tmp/cc6bA9Dg.s 			page 10


 446              	.LBB60:
 447              		.loc 1 57 17 is_stmt 0
 448 008c 13090000 		li	s2,0
 449 0090 6F008003 		j	.L29
 450              	.LVL37:
 451              	.L26:
 452              	.LBB61:
 453              	.LBB62:
 454              	.LBB63:
  58:test/Threads_CPP_API_test.cpp ****         printString("A: i="); printInt(i); printString("\n");
  59:test/Threads_CPP_API_test.cpp ****         for (uint64 j = 0; j < 10000; j++) {
  60:test/Threads_CPP_API_test.cpp ****             for (uint64 k = 0; k < 30000; k++) { /* busy wait */ }
  61:test/Threads_CPP_API_test.cpp ****             thread_dispatch();
 455              		.loc 1 61 13 is_stmt 1 discriminator 2
 456              		.loc 1 61 28 is_stmt 0 discriminator 2
 457 0094 97000000 		call	_Z15thread_dispatchv@plt
 457      E7800000 
 458              	.LVL38:
 459              	.LBE63:
  59:test/Threads_CPP_API_test.cpp ****             for (uint64 k = 0; k < 30000; k++) { /* busy wait */ }
 460              		.loc 1 59 9 is_stmt 1 discriminator 2
 461 009c 93841400 		addi	s1,s1,1
 462              	.LVL39:
 463              	.L28:
  59:test/Threads_CPP_API_test.cpp ****             for (uint64 k = 0; k < 30000; k++) { /* busy wait */ }
 464              		.loc 1 59 30 discriminator 1
 465 00a0 B7270000 		li	a5,8192
 466 00a4 9387F770 		addi	a5,a5,1807
 467 00a8 63EE9700 		bgtu	s1,a5,.L25
 468              	.LBB65:
 469              	.LBB64:
  60:test/Threads_CPP_API_test.cpp ****             thread_dispatch();
 470              		.loc 1 60 25 is_stmt 0
 471 00ac 13070000 		li	a4,0
 472              	.L27:
 473              	.LVL40:
  60:test/Threads_CPP_API_test.cpp ****             thread_dispatch();
 474              		.loc 1 60 34 is_stmt 1 discriminator 3
 475 00b0 B7770000 		li	a5,28672
 476 00b4 9387F752 		addi	a5,a5,1327
 477 00b8 E3EEE7FC 		bgtu	a4,a5,.L26
  60:test/Threads_CPP_API_test.cpp ****             thread_dispatch();
 478              		.loc 1 60 13 discriminator 2
 479 00bc 13071700 		addi	a4,a4,1
 480              	.LVL41:
 481 00c0 6FF01FFF 		j	.L27
 482              	.LVL42:
 483              	.L25:
 484              	.LBE64:
 485              	.LBE65:
 486              	.LBE62:
 487              	.LBE61:
  57:test/Threads_CPP_API_test.cpp ****         printString("A: i="); printInt(i); printString("\n");
 488              		.loc 1 57 5 discriminator 2
 489 00c4 13091900 		addi	s2,s2,1
 490              	.LVL43:
 491              	.L29:
GAS LISTING /tmp/cc6bA9Dg.s 			page 11


  57:test/Threads_CPP_API_test.cpp ****         printString("A: i="); printInt(i); printString("\n");
 492              		.loc 1 57 26 discriminator 1
 493 00c8 93079000 		li	a5,9
 494 00cc 63E02705 		bgtu	s2,a5,.L24
 495              	.LBB67:
  58:test/Threads_CPP_API_test.cpp ****         for (uint64 j = 0; j < 10000; j++) {
 496              		.loc 1 58 9
  58:test/Threads_CPP_API_test.cpp ****         for (uint64 j = 0; j < 10000; j++) {
 497              		.loc 1 58 20 is_stmt 0
 498 00d0 17050000 		lla	a0,.LC0
 498      13050500 
 499 00d8 97000000 		call	_Z11printStringPKc@plt
 499      E7800000 
 500              	.LVL44:
  58:test/Threads_CPP_API_test.cpp ****         for (uint64 j = 0; j < 10000; j++) {
 501              		.loc 1 58 31 is_stmt 1
  58:test/Threads_CPP_API_test.cpp ****         for (uint64 j = 0; j < 10000; j++) {
 502              		.loc 1 58 39 is_stmt 0
 503 00e0 13060000 		li	a2,0
 504 00e4 9305A000 		li	a1,10
 505 00e8 1B050900 		sext.w	a0,s2
 506 00ec 97000000 		call	_Z8printIntiii@plt
 506      E7800000 
 507              	.LVL45:
  58:test/Threads_CPP_API_test.cpp ****         for (uint64 j = 0; j < 10000; j++) {
 508              		.loc 1 58 44 is_stmt 1
  58:test/Threads_CPP_API_test.cpp ****         for (uint64 j = 0; j < 10000; j++) {
 509              		.loc 1 58 55 is_stmt 0
 510 00f4 17050000 		lla	a0,.LC1
 510      13050500 
 511 00fc 97000000 		call	_Z11printStringPKc@plt
 511      E7800000 
 512              	.LVL46:
  59:test/Threads_CPP_API_test.cpp ****             for (uint64 k = 0; k < 30000; k++) { /* busy wait */ }
 513              		.loc 1 59 9 is_stmt 1
 514              	.LBB66:
  59:test/Threads_CPP_API_test.cpp ****             for (uint64 k = 0; k < 30000; k++) { /* busy wait */ }
 515              		.loc 1 59 21 is_stmt 0
 516 0104 93040000 		li	s1,0
 517 0108 6FF09FF9 		j	.L28
 518              	.LVL47:
 519              	.L24:
 520              	.LBE66:
 521              	.LBE67:
 522              	.LBE60:
  62:test/Threads_CPP_API_test.cpp ****         }
  63:test/Threads_CPP_API_test.cpp ****     }
  64:test/Threads_CPP_API_test.cpp ****     printString("A finished!\n");
 523              		.loc 1 64 5 is_stmt 1
 524              		.loc 1 64 16 is_stmt 0
 525 010c 17050000 		lla	a0,.LC2
 525      13050500 
 526 0114 97000000 		call	_Z11printStringPKc@plt
 526      E7800000 
 527              	.LVL48:
  65:test/Threads_CPP_API_test.cpp ****     finishedA = true;
 528              		.loc 1 65 5 is_stmt 1
GAS LISTING /tmp/cc6bA9Dg.s 			page 12


 529              		.loc 1 65 15 is_stmt 0
 530 011c 93071000 		li	a5,1
 531 0120 17070000 		sb	a5,.LANCHOR0,a4
 531      2300F700 
  66:test/Threads_CPP_API_test.cpp **** }
 532              		.loc 1 66 1
 533 0128 83308101 		ld	ra,24(sp)
 534              		.cfi_restore 1
 535 012c 03340101 		ld	s0,16(sp)
 536              		.cfi_restore 8
 537              		.cfi_def_cfa 2, 32
 538 0130 83348100 		ld	s1,8(sp)
 539              		.cfi_restore 9
 540 0134 03390100 		ld	s2,0(sp)
 541              		.cfi_restore 18
 542              	.LVL49:
 543 0138 13010102 		addi	sp,sp,32
 544              		.cfi_def_cfa_offset 0
 545 013c 67800000 		jr	ra
 546              		.cfi_endproc
 547              	.LFE22:
 549              		.section	.text._ZN7WorkerA3runEv,"axG",@progbits,_ZN7WorkerA3runEv,comdat
 550              		.align	2
 551              		.weak	_ZN7WorkerA3runEv
 553              	_ZN7WorkerA3runEv:
 554              	.LFB9:
  21:test/Threads_CPP_API_test.cpp ****         workerBodyA(nullptr);
 555              		.loc 1 21 10 is_stmt 1
 556              		.cfi_startproc
 557              	.LVL50:
 558 0000 130101FF 		addi	sp,sp,-16
 559              		.cfi_def_cfa_offset 16
 560 0004 23341100 		sd	ra,8(sp)
 561 0008 23308100 		sd	s0,0(sp)
 562              		.cfi_offset 1, -8
 563              		.cfi_offset 8, -16
 564 000c 13040101 		addi	s0,sp,16
 565              		.cfi_def_cfa 8, 0
  22:test/Threads_CPP_API_test.cpp ****     }
 566              		.loc 1 22 9
  22:test/Threads_CPP_API_test.cpp ****     }
 567              		.loc 1 22 20 is_stmt 0
 568 0010 93050000 		li	a1,0
 569 0014 97000000 		call	_ZN7WorkerA11workerBodyAEPv
 569      E7800000 
 570              	.LVL51:
  23:test/Threads_CPP_API_test.cpp **** };
 571              		.loc 1 23 5
 572 001c 83308100 		ld	ra,8(sp)
 573              		.cfi_restore 1
 574 0020 03340100 		ld	s0,0(sp)
 575              		.cfi_restore 8
 576              		.cfi_def_cfa 2, 16
 577 0024 13010101 		addi	sp,sp,16
 578              		.cfi_def_cfa_offset 0
 579 0028 67800000 		jr	ra
 580              		.cfi_endproc
GAS LISTING /tmp/cc6bA9Dg.s 			page 13


 581              	.LFE9:
 583              		.section	.rodata.str1.8
 584 001d 000000   		.align	3
 585              	.LC3:
 586 0020 423A2069 		.string	"B: i="
 586      3D00
 587 0026 0000     		.align	3
 588              	.LC4:
 589 0028 42206669 		.string	"B finished!\n"
 589      6E697368 
 589      6564210A 
 589      00
 590              		.text
 591              		.align	2
 592              		.globl	_ZN7WorkerB11workerBodyBEPv
 594              	_ZN7WorkerB11workerBodyBEPv:
 595              	.LFB23:
  67:test/Threads_CPP_API_test.cpp **** 
  68:test/Threads_CPP_API_test.cpp **** void WorkerB::workerBodyB(void *arg) {
 596              		.loc 1 68 38 is_stmt 1
 597              		.cfi_startproc
 598              	.LVL52:
 599 0140 130101FE 		addi	sp,sp,-32
 600              		.cfi_def_cfa_offset 32
 601 0144 233C1100 		sd	ra,24(sp)
 602 0148 23388100 		sd	s0,16(sp)
 603 014c 23349100 		sd	s1,8(sp)
 604 0150 23302101 		sd	s2,0(sp)
 605              		.cfi_offset 1, -8
 606              		.cfi_offset 8, -16
 607              		.cfi_offset 9, -24
 608              		.cfi_offset 18, -32
 609 0154 13040102 		addi	s0,sp,32
 610              		.cfi_def_cfa 8, 0
  69:test/Threads_CPP_API_test.cpp ****     for (uint64 i = 0; i < 16; i++) {
 611              		.loc 1 69 5
 612              	.LVL53:
 613              	.LBB68:
 614              		.loc 1 69 17 is_stmt 0
 615 0158 13090000 		li	s2,0
 616 015c 6F008003 		j	.L39
 617              	.LVL54:
 618              	.L36:
 619              	.LBB69:
 620              	.LBB70:
 621              	.LBB71:
  70:test/Threads_CPP_API_test.cpp ****         printString("B: i="); printInt(i); printString("\n");
  71:test/Threads_CPP_API_test.cpp ****         for (uint64 j = 0; j < 10000; j++) {
  72:test/Threads_CPP_API_test.cpp ****             for (uint64 k = 0; k < 30000; k++) { /* busy wait */ }
  73:test/Threads_CPP_API_test.cpp ****             thread_dispatch();
 622              		.loc 1 73 13 is_stmt 1 discriminator 2
 623              		.loc 1 73 28 is_stmt 0 discriminator 2
 624 0160 97000000 		call	_Z15thread_dispatchv@plt
 624      E7800000 
 625              	.LVL55:
 626              	.LBE71:
  71:test/Threads_CPP_API_test.cpp ****             for (uint64 k = 0; k < 30000; k++) { /* busy wait */ }
GAS LISTING /tmp/cc6bA9Dg.s 			page 14


 627              		.loc 1 71 9 is_stmt 1 discriminator 2
 628 0168 93841400 		addi	s1,s1,1
 629              	.LVL56:
 630              	.L38:
  71:test/Threads_CPP_API_test.cpp ****             for (uint64 k = 0; k < 30000; k++) { /* busy wait */ }
 631              		.loc 1 71 30 discriminator 1
 632 016c B7270000 		li	a5,8192
 633 0170 9387F770 		addi	a5,a5,1807
 634 0174 63EE9700 		bgtu	s1,a5,.L35
 635              	.LBB73:
 636              	.LBB72:
  72:test/Threads_CPP_API_test.cpp ****             thread_dispatch();
 637              		.loc 1 72 25 is_stmt 0
 638 0178 13070000 		li	a4,0
 639              	.L37:
 640              	.LVL57:
  72:test/Threads_CPP_API_test.cpp ****             thread_dispatch();
 641              		.loc 1 72 34 is_stmt 1 discriminator 3
 642 017c B7770000 		li	a5,28672
 643 0180 9387F752 		addi	a5,a5,1327
 644 0184 E3EEE7FC 		bgtu	a4,a5,.L36
  72:test/Threads_CPP_API_test.cpp ****             thread_dispatch();
 645              		.loc 1 72 13 discriminator 2
 646 0188 13071700 		addi	a4,a4,1
 647              	.LVL58:
 648 018c 6FF01FFF 		j	.L37
 649              	.LVL59:
 650              	.L35:
 651              	.LBE72:
 652              	.LBE73:
 653              	.LBE70:
 654              	.LBE69:
  69:test/Threads_CPP_API_test.cpp ****         printString("B: i="); printInt(i); printString("\n");
 655              		.loc 1 69 5 discriminator 2
 656 0190 13091900 		addi	s2,s2,1
 657              	.LVL60:
 658              	.L39:
  69:test/Threads_CPP_API_test.cpp ****         printString("B: i="); printInt(i); printString("\n");
 659              		.loc 1 69 26 discriminator 1
 660 0194 9307F000 		li	a5,15
 661 0198 63E02705 		bgtu	s2,a5,.L34
 662              	.LBB75:
  70:test/Threads_CPP_API_test.cpp ****         for (uint64 j = 0; j < 10000; j++) {
 663              		.loc 1 70 9
  70:test/Threads_CPP_API_test.cpp ****         for (uint64 j = 0; j < 10000; j++) {
 664              		.loc 1 70 20 is_stmt 0
 665 019c 17050000 		lla	a0,.LC3
 665      13050500 
 666 01a4 97000000 		call	_Z11printStringPKc@plt
 666      E7800000 
 667              	.LVL61:
  70:test/Threads_CPP_API_test.cpp ****         for (uint64 j = 0; j < 10000; j++) {
 668              		.loc 1 70 31 is_stmt 1
  70:test/Threads_CPP_API_test.cpp ****         for (uint64 j = 0; j < 10000; j++) {
 669              		.loc 1 70 39 is_stmt 0
 670 01ac 13060000 		li	a2,0
 671 01b0 9305A000 		li	a1,10
GAS LISTING /tmp/cc6bA9Dg.s 			page 15


 672 01b4 1B050900 		sext.w	a0,s2
 673 01b8 97000000 		call	_Z8printIntiii@plt
 673      E7800000 
 674              	.LVL62:
  70:test/Threads_CPP_API_test.cpp ****         for (uint64 j = 0; j < 10000; j++) {
 675              		.loc 1 70 44 is_stmt 1
  70:test/Threads_CPP_API_test.cpp ****         for (uint64 j = 0; j < 10000; j++) {
 676              		.loc 1 70 55 is_stmt 0
 677 01c0 17050000 		lla	a0,.LC1
 677      13050500 
 678 01c8 97000000 		call	_Z11printStringPKc@plt
 678      E7800000 
 679              	.LVL63:
  71:test/Threads_CPP_API_test.cpp ****             for (uint64 k = 0; k < 30000; k++) { /* busy wait */ }
 680              		.loc 1 71 9 is_stmt 1
 681              	.LBB74:
  71:test/Threads_CPP_API_test.cpp ****             for (uint64 k = 0; k < 30000; k++) { /* busy wait */ }
 682              		.loc 1 71 21 is_stmt 0
 683 01d0 93040000 		li	s1,0
 684 01d4 6FF09FF9 		j	.L38
 685              	.LVL64:
 686              	.L34:
 687              	.LBE74:
 688              	.LBE75:
 689              	.LBE68:
  74:test/Threads_CPP_API_test.cpp ****         }
  75:test/Threads_CPP_API_test.cpp ****     }
  76:test/Threads_CPP_API_test.cpp ****     printString("B finished!\n");
 690              		.loc 1 76 5 is_stmt 1
 691              		.loc 1 76 16 is_stmt 0
 692 01d8 17050000 		lla	a0,.LC4
 692      13050500 
 693 01e0 97000000 		call	_Z11printStringPKc@plt
 693      E7800000 
 694              	.LVL65:
  77:test/Threads_CPP_API_test.cpp ****     finishedB = true;
 695              		.loc 1 77 5 is_stmt 1
 696              		.loc 1 77 15 is_stmt 0
 697 01e8 93071000 		li	a5,1
 698 01ec 17070000 		sb	a5,.LANCHOR0+1,a4
 698      2300F700 
  78:test/Threads_CPP_API_test.cpp ****     thread_dispatch();
 699              		.loc 1 78 5 is_stmt 1
 700              		.loc 1 78 20 is_stmt 0
 701 01f4 97000000 		call	_Z15thread_dispatchv@plt
 701      E7800000 
 702              	.LVL66:
  79:test/Threads_CPP_API_test.cpp **** }
 703              		.loc 1 79 1
 704 01fc 83308101 		ld	ra,24(sp)
 705              		.cfi_restore 1
 706 0200 03340101 		ld	s0,16(sp)
 707              		.cfi_restore 8
 708              		.cfi_def_cfa 2, 32
 709 0204 83348100 		ld	s1,8(sp)
 710              		.cfi_restore 9
 711 0208 03390100 		ld	s2,0(sp)
GAS LISTING /tmp/cc6bA9Dg.s 			page 16


 712              		.cfi_restore 18
 713              	.LVL67:
 714 020c 13010102 		addi	sp,sp,32
 715              		.cfi_def_cfa_offset 0
 716 0210 67800000 		jr	ra
 717              		.cfi_endproc
 718              	.LFE23:
 720              		.section	.text._ZN7WorkerB3runEv,"axG",@progbits,_ZN7WorkerB3runEv,comdat
 721              		.align	2
 722              		.weak	_ZN7WorkerB3runEv
 724              	_ZN7WorkerB3runEv:
 725              	.LFB13:
  31:test/Threads_CPP_API_test.cpp ****         workerBodyB(nullptr);
 726              		.loc 1 31 10 is_stmt 1
 727              		.cfi_startproc
 728              	.LVL68:
 729 0000 130101FF 		addi	sp,sp,-16
 730              		.cfi_def_cfa_offset 16
 731 0004 23341100 		sd	ra,8(sp)
 732 0008 23308100 		sd	s0,0(sp)
 733              		.cfi_offset 1, -8
 734              		.cfi_offset 8, -16
 735 000c 13040101 		addi	s0,sp,16
 736              		.cfi_def_cfa 8, 0
  32:test/Threads_CPP_API_test.cpp ****     }
 737              		.loc 1 32 9
  32:test/Threads_CPP_API_test.cpp ****     }
 738              		.loc 1 32 20 is_stmt 0
 739 0010 93050000 		li	a1,0
 740 0014 97000000 		call	_ZN7WorkerB11workerBodyBEPv
 740      E7800000 
 741              	.LVL69:
  33:test/Threads_CPP_API_test.cpp **** };
 742              		.loc 1 33 5
 743 001c 83308100 		ld	ra,8(sp)
 744              		.cfi_restore 1
 745 0020 03340100 		ld	s0,0(sp)
 746              		.cfi_restore 8
 747              		.cfi_def_cfa 2, 16
 748 0024 13010101 		addi	sp,sp,16
 749              		.cfi_def_cfa_offset 0
 750 0028 67800000 		jr	ra
 751              		.cfi_endproc
 752              	.LFE13:
 754              		.section	.rodata.str1.8
 755 0035 000000   		.align	3
 756              	.LC5:
 757 0038 433A2069 		.string	"C: i="
 757      3D00
 758 003e 0000     		.align	3
 759              	.LC6:
 760 0040 433A2064 		.string	"C: dispatch\n"
 760      69737061 
 760      7463680A 
 760      00
 761 004d 000000   		.align	3
 762              	.LC7:
GAS LISTING /tmp/cc6bA9Dg.s 			page 17


 763 0050 433A2074 		.string	"C: t1="
 763      313D00
 764 0057 00       		.align	3
 765              	.LC8:
 766 0058 433A2066 		.string	"C: fibonaci="
 766      69626F6E 
 766      6163693D 
 766      00
 767              		.text
 768              		.align	2
 769              		.globl	_ZN7WorkerC11workerBodyCEPv
 771              	_ZN7WorkerC11workerBodyCEPv:
 772              	.LFB24:
  80:test/Threads_CPP_API_test.cpp **** 
  81:test/Threads_CPP_API_test.cpp **** void WorkerC::workerBodyC(void *arg) {
 773              		.loc 1 81 38 is_stmt 1
 774              		.cfi_startproc
 775              	.LVL70:
 776 0214 130101FE 		addi	sp,sp,-32
 777              		.cfi_def_cfa_offset 32
 778 0218 233C1100 		sd	ra,24(sp)
 779 021c 23388100 		sd	s0,16(sp)
 780 0220 23349100 		sd	s1,8(sp)
 781 0224 23302101 		sd	s2,0(sp)
 782              		.cfi_offset 1, -8
 783              		.cfi_offset 8, -16
 784              		.cfi_offset 9, -24
 785              		.cfi_offset 18, -32
 786 0228 13040102 		addi	s0,sp,32
 787              		.cfi_def_cfa 8, 0
  82:test/Threads_CPP_API_test.cpp ****     uint8 i = 0;
 788              		.loc 1 82 5
 789              	.LVL71:
 790              		.loc 1 82 11 is_stmt 0
 791 022c 93040000 		li	s1,0
 792 0230 6F000004 		j	.L45
 793              	.LVL72:
 794              	.L49:
  83:test/Threads_CPP_API_test.cpp ****     for (; i < 3; i++) {
  84:test/Threads_CPP_API_test.cpp ****         printString("C: i="); printInt(i); printString("\n");
 795              		.loc 1 84 9 is_stmt 1 discriminator 1
 796              		.loc 1 84 20 is_stmt 0 discriminator 1
 797 0234 17050000 		lla	a0,.LC5
 797      13050500 
 798 023c 97000000 		call	_Z11printStringPKc@plt
 798      E7800000 
 799              	.LVL73:
 800              		.loc 1 84 31 is_stmt 1 discriminator 1
 801              		.loc 1 84 39 is_stmt 0 discriminator 1
 802 0244 13060000 		li	a2,0
 803 0248 9305A000 		li	a1,10
 804 024c 13850400 		mv	a0,s1
 805 0250 97000000 		call	_Z8printIntiii@plt
 805      E7800000 
 806              	.LVL74:
 807              		.loc 1 84 44 is_stmt 1 discriminator 1
 808              		.loc 1 84 55 is_stmt 0 discriminator 1
GAS LISTING /tmp/cc6bA9Dg.s 			page 18


 809 0258 17050000 		lla	a0,.LC1
 809      13050500 
 810 0260 97000000 		call	_Z11printStringPKc@plt
 810      E7800000 
 811              	.LVL75:
  83:test/Threads_CPP_API_test.cpp ****     for (; i < 3; i++) {
 812              		.loc 1 83 5 is_stmt 1 discriminator 1
 813 0268 9B841400 		addiw	s1,s1,1
 814              	.LVL76:
 815 026c 93F4F40F 		andi	s1,s1,0xff
 816              	.LVL77:
 817              	.L45:
  83:test/Threads_CPP_API_test.cpp ****     for (; i < 3; i++) {
 818              		.loc 1 83 5 discriminator 2
  83:test/Threads_CPP_API_test.cpp ****     for (; i < 3; i++) {
 819              		.loc 1 83 14 discriminator 2
 820 0270 93072000 		li	a5,2
 821 0274 E3F097FC 		bleu	s1,a5,.L49
  85:test/Threads_CPP_API_test.cpp ****     }
  86:test/Threads_CPP_API_test.cpp **** 
  87:test/Threads_CPP_API_test.cpp ****     printString("C: dispatch\n");
 822              		.loc 1 87 5
 823              		.loc 1 87 16 is_stmt 0
 824 0278 17050000 		lla	a0,.LC6
 824      13050500 
 825 0280 97000000 		call	_Z11printStringPKc@plt
 825      E7800000 
 826              	.LVL78:
  88:test/Threads_CPP_API_test.cpp ****     __asm__ ("li t1, 7");
 827              		.loc 1 88 5 is_stmt 1
 828              		.loc 1 88 25 is_stmt 0
 829              	#APP
 830              	# 88 "test/Threads_CPP_API_test.cpp" 1
  89              	    thread_dispatch();
 831              		li t1, 7
 832              	# 0 "" 2
 833              		.loc 1 89 5 is_stmt 1
 834              		.loc 1 89 20 is_stmt 0
 835              	#NO_APP
 836 028c 97000000 		call	_Z15thread_dispatchv@plt
 836      E7800000 
 837              	.LVL79:
  90:test/Threads_CPP_API_test.cpp **** 
  91:test/Threads_CPP_API_test.cpp ****     uint64 t1 = 0;
 838              		.loc 1 91 5 is_stmt 1
  92:test/Threads_CPP_API_test.cpp ****     __asm__ ("mv %[t1], t1" : [t1] "=r"(t1));
 839              		.loc 1 92 5
 840              		.loc 1 92 45 is_stmt 0
 841              	#APP
 842              	# 92 "test/Threads_CPP_API_test.cpp" 1
  93              	
 843              		mv s2, t1
 844              	# 0 "" 2
 845              	.LVL80:
  94:test/Threads_CPP_API_test.cpp ****     printString("C: t1="); printInt(t1); printString("\n");
 846              		.loc 1 94 5 is_stmt 1
 847              		.loc 1 94 16 is_stmt 0
GAS LISTING /tmp/cc6bA9Dg.s 			page 19


 848              	#NO_APP
 849 0298 17050000 		lla	a0,.LC7
 849      13050500 
 850 02a0 97000000 		call	_Z11printStringPKc@plt
 850      E7800000 
 851              	.LVL81:
 852              		.loc 1 94 28 is_stmt 1
 853              		.loc 1 94 36 is_stmt 0
 854 02a8 13060000 		li	a2,0
 855 02ac 9305A000 		li	a1,10
 856 02b0 1B050900 		sext.w	a0,s2
 857 02b4 97000000 		call	_Z8printIntiii@plt
 857      E7800000 
 858              	.LVL82:
 859              		.loc 1 94 42 is_stmt 1
 860              		.loc 1 94 53 is_stmt 0
 861 02bc 17050000 		lla	a0,.LC1
 861      13050500 
 862 02c4 97000000 		call	_Z11printStringPKc@plt
 862      E7800000 
 863              	.LVL83:
  95:test/Threads_CPP_API_test.cpp **** 
  96:test/Threads_CPP_API_test.cpp ****     uint64 result = fibonacci(12);
 864              		.loc 1 96 5 is_stmt 1
 865              		.loc 1 96 30 is_stmt 0
 866 02cc 1305C000 		li	a0,12
 867 02d0 97000000 		call	_ZL9fibonaccim
 867      E7800000 
 868              	.LVL84:
 869 02d8 13090500 		mv	s2,a0
 870              	.LVL85:
  97:test/Threads_CPP_API_test.cpp ****     printString("C: fibonaci="); printInt(result); printString("\n");
 871              		.loc 1 97 5 is_stmt 1
 872              		.loc 1 97 16 is_stmt 0
 873 02dc 17050000 		lla	a0,.LC8
 873      13050500 
 874              	.LVL86:
 875 02e4 97000000 		call	_Z11printStringPKc@plt
 875      E7800000 
 876              	.LVL87:
 877              		.loc 1 97 34 is_stmt 1
 878              		.loc 1 97 42 is_stmt 0
 879 02ec 13060000 		li	a2,0
 880 02f0 9305A000 		li	a1,10
 881 02f4 1B050900 		sext.w	a0,s2
 882 02f8 97000000 		call	_Z8printIntiii@plt
 882      E7800000 
 883              	.LVL88:
 884              		.loc 1 97 52 is_stmt 1
 885              		.loc 1 97 63 is_stmt 0
 886 0300 17050000 		lla	a0,.LC1
 886      13050500 
 887 0308 97000000 		call	_Z11printStringPKc@plt
 887      E7800000 
 888              	.LVL89:
 889 0310 6F000004 		j	.L47
 890              	.L50:
GAS LISTING /tmp/cc6bA9Dg.s 			page 20


  98:test/Threads_CPP_API_test.cpp **** 
  99:test/Threads_CPP_API_test.cpp ****     for (; i < 6; i++) {
 100:test/Threads_CPP_API_test.cpp ****         printString("C: i="); printInt(i); printString("\n");
 891              		.loc 1 100 9 is_stmt 1 discriminator 1
 892              		.loc 1 100 20 is_stmt 0 discriminator 1
 893 0314 17050000 		lla	a0,.LC5
 893      13050500 
 894 031c 97000000 		call	_Z11printStringPKc@plt
 894      E7800000 
 895              	.LVL90:
 896              		.loc 1 100 31 is_stmt 1 discriminator 1
 897              		.loc 1 100 39 is_stmt 0 discriminator 1
 898 0324 13060000 		li	a2,0
 899 0328 9305A000 		li	a1,10
 900 032c 13850400 		mv	a0,s1
 901 0330 97000000 		call	_Z8printIntiii@plt
 901      E7800000 
 902              	.LVL91:
 903              		.loc 1 100 44 is_stmt 1 discriminator 1
 904              		.loc 1 100 55 is_stmt 0 discriminator 1
 905 0338 17050000 		lla	a0,.LC1
 905      13050500 
 906 0340 97000000 		call	_Z11printStringPKc@plt
 906      E7800000 
 907              	.LVL92:
  99:test/Threads_CPP_API_test.cpp ****         printString("C: i="); printInt(i); printString("\n");
 908              		.loc 1 99 5 is_stmt 1 discriminator 1
 909 0348 9B841400 		addiw	s1,s1,1
 910              	.LVL93:
 911 034c 93F4F40F 		andi	s1,s1,0xff
 912              	.LVL94:
 913              	.L47:
  99:test/Threads_CPP_API_test.cpp ****         printString("C: i="); printInt(i); printString("\n");
 914              		.loc 1 99 5 discriminator 2
  99:test/Threads_CPP_API_test.cpp ****         printString("C: i="); printInt(i); printString("\n");
 915              		.loc 1 99 14 discriminator 2
 916 0350 93075000 		li	a5,5
 917 0354 E3F097FC 		bleu	s1,a5,.L50
 101:test/Threads_CPP_API_test.cpp ****     }
 102:test/Threads_CPP_API_test.cpp **** 
 103:test/Threads_CPP_API_test.cpp ****     printString("A finished!\n");
 918              		.loc 1 103 5
 919              		.loc 1 103 16 is_stmt 0
 920 0358 17050000 		lla	a0,.LC2
 920      13050500 
 921 0360 97000000 		call	_Z11printStringPKc@plt
 921      E7800000 
 922              	.LVL95:
 104:test/Threads_CPP_API_test.cpp ****     finishedC = true;
 923              		.loc 1 104 5 is_stmt 1
 924              		.loc 1 104 15 is_stmt 0
 925 0368 93071000 		li	a5,1
 926 036c 17070000 		sb	a5,.LANCHOR0+2,a4
 926      2300F700 
 105:test/Threads_CPP_API_test.cpp ****     thread_dispatch();
 927              		.loc 1 105 5 is_stmt 1
 928              		.loc 1 105 20 is_stmt 0
GAS LISTING /tmp/cc6bA9Dg.s 			page 21


 929 0374 97000000 		call	_Z15thread_dispatchv@plt
 929      E7800000 
 930              	.LVL96:
 106:test/Threads_CPP_API_test.cpp **** }
 931              		.loc 1 106 1
 932 037c 83308101 		ld	ra,24(sp)
 933              		.cfi_restore 1
 934 0380 03340101 		ld	s0,16(sp)
 935              		.cfi_restore 8
 936              		.cfi_def_cfa 2, 32
 937 0384 83348100 		ld	s1,8(sp)
 938              		.cfi_restore 9
 939              	.LVL97:
 940 0388 03390100 		ld	s2,0(sp)
 941              		.cfi_restore 18
 942              	.LVL98:
 943 038c 13010102 		addi	sp,sp,32
 944              		.cfi_def_cfa_offset 0
 945 0390 67800000 		jr	ra
 946              		.cfi_endproc
 947              	.LFE24:
 949              		.section	.text._ZN7WorkerC3runEv,"axG",@progbits,_ZN7WorkerC3runEv,comdat
 950              		.align	2
 951              		.weak	_ZN7WorkerC3runEv
 953              	_ZN7WorkerC3runEv:
 954              	.LFB17:
  41:test/Threads_CPP_API_test.cpp ****         workerBodyC(nullptr);
 955              		.loc 1 41 10 is_stmt 1
 956              		.cfi_startproc
 957              	.LVL99:
 958 0000 130101FF 		addi	sp,sp,-16
 959              		.cfi_def_cfa_offset 16
 960 0004 23341100 		sd	ra,8(sp)
 961 0008 23308100 		sd	s0,0(sp)
 962              		.cfi_offset 1, -8
 963              		.cfi_offset 8, -16
 964 000c 13040101 		addi	s0,sp,16
 965              		.cfi_def_cfa 8, 0
  42:test/Threads_CPP_API_test.cpp ****     }
 966              		.loc 1 42 9
  42:test/Threads_CPP_API_test.cpp ****     }
 967              		.loc 1 42 20 is_stmt 0
 968 0010 93050000 		li	a1,0
 969 0014 97000000 		call	_ZN7WorkerC11workerBodyCEPv
 969      E7800000 
 970              	.LVL100:
  43:test/Threads_CPP_API_test.cpp **** };
 971              		.loc 1 43 5
 972 001c 83308100 		ld	ra,8(sp)
 973              		.cfi_restore 1
 974 0020 03340100 		ld	s0,0(sp)
 975              		.cfi_restore 8
 976              		.cfi_def_cfa 2, 16
 977 0024 13010101 		addi	sp,sp,16
 978              		.cfi_def_cfa_offset 0
 979 0028 67800000 		jr	ra
 980              		.cfi_endproc
GAS LISTING /tmp/cc6bA9Dg.s 			page 22


 981              	.LFE17:
 983              		.section	.rodata.str1.8
 984 0065 000000   		.align	3
 985              	.LC9:
 986 0068 443A2069 		.string	"D: i="
 986      3D00
 987 006e 0000     		.align	3
 988              	.LC10:
 989 0070 443A2064 		.string	"D: dispatch\n"
 989      69737061 
 989      7463680A 
 989      00
 990 007d 000000   		.align	3
 991              	.LC11:
 992 0080 443A2066 		.string	"D: fibonaci="
 992      69626F6E 
 992      6163693D 
 992      00
 993 008d 000000   		.align	3
 994              	.LC12:
 995 0090 44206669 		.string	"D finished!\n"
 995      6E697368 
 995      6564210A 
 995      00
 996              		.text
 997              		.align	2
 998              		.globl	_ZN7WorkerD11workerBodyDEPv
 1000              	_ZN7WorkerD11workerBodyDEPv:
 1001              	.LFB25:
 107:test/Threads_CPP_API_test.cpp **** 
 108:test/Threads_CPP_API_test.cpp **** void WorkerD::workerBodyD(void* arg) {
 1002              		.loc 1 108 38 is_stmt 1
 1003              		.cfi_startproc
 1004              	.LVL101:
 1005 0394 130101FE 		addi	sp,sp,-32
 1006              		.cfi_def_cfa_offset 32
 1007 0398 233C1100 		sd	ra,24(sp)
 1008 039c 23388100 		sd	s0,16(sp)
 1009 03a0 23349100 		sd	s1,8(sp)
 1010 03a4 23302101 		sd	s2,0(sp)
 1011              		.cfi_offset 1, -8
 1012              		.cfi_offset 8, -16
 1013              		.cfi_offset 9, -24
 1014              		.cfi_offset 18, -32
 1015 03a8 13040102 		addi	s0,sp,32
 1016              		.cfi_def_cfa 8, 0
 109:test/Threads_CPP_API_test.cpp ****     uint8 i = 10;
 1017              		.loc 1 109 5
 1018              	.LVL102:
 1019              		.loc 1 109 11 is_stmt 0
 1020 03ac 9304A000 		li	s1,10
 1021 03b0 6F000004 		j	.L55
 1022              	.LVL103:
 1023              	.L59:
 110:test/Threads_CPP_API_test.cpp ****     for (; i < 13; i++) {
 111:test/Threads_CPP_API_test.cpp ****         printString("D: i="); printInt(i); printString("\n");
 1024              		.loc 1 111 9 is_stmt 1 discriminator 1
GAS LISTING /tmp/cc6bA9Dg.s 			page 23


 1025              		.loc 1 111 20 is_stmt 0 discriminator 1
 1026 03b4 17050000 		lla	a0,.LC9
 1026      13050500 
 1027 03bc 97000000 		call	_Z11printStringPKc@plt
 1027      E7800000 
 1028              	.LVL104:
 1029              		.loc 1 111 31 is_stmt 1 discriminator 1
 1030              		.loc 1 111 39 is_stmt 0 discriminator 1
 1031 03c4 13060000 		li	a2,0
 1032 03c8 9305A000 		li	a1,10
 1033 03cc 13850400 		mv	a0,s1
 1034 03d0 97000000 		call	_Z8printIntiii@plt
 1034      E7800000 
 1035              	.LVL105:
 1036              		.loc 1 111 44 is_stmt 1 discriminator 1
 1037              		.loc 1 111 55 is_stmt 0 discriminator 1
 1038 03d8 17050000 		lla	a0,.LC1
 1038      13050500 
 1039 03e0 97000000 		call	_Z11printStringPKc@plt
 1039      E7800000 
 1040              	.LVL106:
 110:test/Threads_CPP_API_test.cpp ****     for (; i < 13; i++) {
 1041              		.loc 1 110 5 is_stmt 1 discriminator 1
 1042 03e8 9B841400 		addiw	s1,s1,1
 1043              	.LVL107:
 1044 03ec 93F4F40F 		andi	s1,s1,0xff
 1045              	.LVL108:
 1046              	.L55:
 110:test/Threads_CPP_API_test.cpp ****     for (; i < 13; i++) {
 1047              		.loc 1 110 5 discriminator 2
 110:test/Threads_CPP_API_test.cpp ****     for (; i < 13; i++) {
 1048              		.loc 1 110 14 discriminator 2
 1049 03f0 9307C000 		li	a5,12
 1050 03f4 E3F097FC 		bleu	s1,a5,.L59
 112:test/Threads_CPP_API_test.cpp ****     }
 113:test/Threads_CPP_API_test.cpp **** 
 114:test/Threads_CPP_API_test.cpp ****     printString("D: dispatch\n");
 1051              		.loc 1 114 5
 1052              		.loc 1 114 16 is_stmt 0
 1053 03f8 17050000 		lla	a0,.LC10
 1053      13050500 
 1054 0400 97000000 		call	_Z11printStringPKc@plt
 1054      E7800000 
 1055              	.LVL109:
 115:test/Threads_CPP_API_test.cpp ****     __asm__ ("li t1, 5");
 1056              		.loc 1 115 5 is_stmt 1
 1057              		.loc 1 115 25 is_stmt 0
 1058              	#APP
 1059              	# 115 "test/Threads_CPP_API_test.cpp" 1
 116              	    thread_dispatch();
 1060              		li t1, 5
 1061              	# 0 "" 2
 1062              		.loc 1 116 5 is_stmt 1
 1063              		.loc 1 116 20 is_stmt 0
 1064              	#NO_APP
 1065 040c 97000000 		call	_Z15thread_dispatchv@plt
 1065      E7800000 
GAS LISTING /tmp/cc6bA9Dg.s 			page 24


 1066              	.LVL110:
 117:test/Threads_CPP_API_test.cpp **** 
 118:test/Threads_CPP_API_test.cpp ****     uint64 result = fibonacci(16);
 1067              		.loc 1 118 5 is_stmt 1
 1068              		.loc 1 118 30 is_stmt 0
 1069 0414 13050001 		li	a0,16
 1070 0418 97000000 		call	_ZL9fibonaccim
 1070      E7800000 
 1071              	.LVL111:
 1072 0420 13090500 		mv	s2,a0
 1073              	.LVL112:
 119:test/Threads_CPP_API_test.cpp ****     printString("D: fibonaci="); printInt(result); printString("\n");
 1074              		.loc 1 119 5 is_stmt 1
 1075              		.loc 1 119 16 is_stmt 0
 1076 0424 17050000 		lla	a0,.LC11
 1076      13050500 
 1077              	.LVL113:
 1078 042c 97000000 		call	_Z11printStringPKc@plt
 1078      E7800000 
 1079              	.LVL114:
 1080              		.loc 1 119 34 is_stmt 1
 1081              		.loc 1 119 42 is_stmt 0
 1082 0434 13060000 		li	a2,0
 1083 0438 9305A000 		li	a1,10
 1084 043c 1B050900 		sext.w	a0,s2
 1085 0440 97000000 		call	_Z8printIntiii@plt
 1085      E7800000 
 1086              	.LVL115:
 1087              		.loc 1 119 52 is_stmt 1
 1088              		.loc 1 119 63 is_stmt 0
 1089 0448 17050000 		lla	a0,.LC1
 1089      13050500 
 1090 0450 97000000 		call	_Z11printStringPKc@plt
 1090      E7800000 
 1091              	.LVL116:
 1092 0458 6F000004 		j	.L57
 1093              	.L60:
 120:test/Threads_CPP_API_test.cpp **** 
 121:test/Threads_CPP_API_test.cpp ****     for (; i < 16; i++) {
 122:test/Threads_CPP_API_test.cpp ****         printString("D: i="); printInt(i); printString("\n");
 1094              		.loc 1 122 9 is_stmt 1 discriminator 1
 1095              		.loc 1 122 20 is_stmt 0 discriminator 1
 1096 045c 17050000 		lla	a0,.LC9
 1096      13050500 
 1097 0464 97000000 		call	_Z11printStringPKc@plt
 1097      E7800000 
 1098              	.LVL117:
 1099              		.loc 1 122 31 is_stmt 1 discriminator 1
 1100              		.loc 1 122 39 is_stmt 0 discriminator 1
 1101 046c 13060000 		li	a2,0
 1102 0470 9305A000 		li	a1,10
 1103 0474 13850400 		mv	a0,s1
 1104 0478 97000000 		call	_Z8printIntiii@plt
 1104      E7800000 
 1105              	.LVL118:
 1106              		.loc 1 122 44 is_stmt 1 discriminator 1
 1107              		.loc 1 122 55 is_stmt 0 discriminator 1
GAS LISTING /tmp/cc6bA9Dg.s 			page 25


 1108 0480 17050000 		lla	a0,.LC1
 1108      13050500 
 1109 0488 97000000 		call	_Z11printStringPKc@plt
 1109      E7800000 
 1110              	.LVL119:
 121:test/Threads_CPP_API_test.cpp ****         printString("D: i="); printInt(i); printString("\n");
 1111              		.loc 1 121 5 is_stmt 1 discriminator 1
 1112 0490 9B841400 		addiw	s1,s1,1
 1113              	.LVL120:
 1114 0494 93F4F40F 		andi	s1,s1,0xff
 1115              	.LVL121:
 1116              	.L57:
 121:test/Threads_CPP_API_test.cpp ****         printString("D: i="); printInt(i); printString("\n");
 1117              		.loc 1 121 5 discriminator 2
 121:test/Threads_CPP_API_test.cpp ****         printString("D: i="); printInt(i); printString("\n");
 1118              		.loc 1 121 14 discriminator 2
 1119 0498 9307F000 		li	a5,15
 1120 049c E3F097FC 		bleu	s1,a5,.L60
 123:test/Threads_CPP_API_test.cpp ****     }
 124:test/Threads_CPP_API_test.cpp **** 
 125:test/Threads_CPP_API_test.cpp ****     printString("D finished!\n");
 1121              		.loc 1 125 5
 1122              		.loc 1 125 16 is_stmt 0
 1123 04a0 17050000 		lla	a0,.LC12
 1123      13050500 
 1124 04a8 97000000 		call	_Z11printStringPKc@plt
 1124      E7800000 
 1125              	.LVL122:
 126:test/Threads_CPP_API_test.cpp ****     finishedD = true;
 1126              		.loc 1 126 5 is_stmt 1
 1127              		.loc 1 126 15 is_stmt 0
 1128 04b0 93071000 		li	a5,1
 1129 04b4 17070000 		sb	a5,.LANCHOR0+3,a4
 1129      2300F700 
 127:test/Threads_CPP_API_test.cpp ****     thread_dispatch();
 1130              		.loc 1 127 5 is_stmt 1
 1131              		.loc 1 127 20 is_stmt 0
 1132 04bc 97000000 		call	_Z15thread_dispatchv@plt
 1132      E7800000 
 1133              	.LVL123:
 128:test/Threads_CPP_API_test.cpp **** }
 1134              		.loc 1 128 1
 1135 04c4 83308101 		ld	ra,24(sp)
 1136              		.cfi_restore 1
 1137 04c8 03340101 		ld	s0,16(sp)
 1138              		.cfi_restore 8
 1139              		.cfi_def_cfa 2, 32
 1140 04cc 83348100 		ld	s1,8(sp)
 1141              		.cfi_restore 9
 1142              	.LVL124:
 1143 04d0 03390100 		ld	s2,0(sp)
 1144              		.cfi_restore 18
 1145              	.LVL125:
 1146 04d4 13010102 		addi	sp,sp,32
 1147              		.cfi_def_cfa_offset 0
 1148 04d8 67800000 		jr	ra
 1149              		.cfi_endproc
GAS LISTING /tmp/cc6bA9Dg.s 			page 26


 1150              	.LFE25:
 1152              		.section	.text._ZN7WorkerD3runEv,"axG",@progbits,_ZN7WorkerD3runEv,comdat
 1153              		.align	2
 1154              		.weak	_ZN7WorkerD3runEv
 1156              	_ZN7WorkerD3runEv:
 1157              	.LFB21:
  51:test/Threads_CPP_API_test.cpp ****         workerBodyD(nullptr);
 1158              		.loc 1 51 10 is_stmt 1
 1159              		.cfi_startproc
 1160              	.LVL126:
 1161 0000 130101FF 		addi	sp,sp,-16
 1162              		.cfi_def_cfa_offset 16
 1163 0004 23341100 		sd	ra,8(sp)
 1164 0008 23308100 		sd	s0,0(sp)
 1165              		.cfi_offset 1, -8
 1166              		.cfi_offset 8, -16
 1167 000c 13040101 		addi	s0,sp,16
 1168              		.cfi_def_cfa 8, 0
  52:test/Threads_CPP_API_test.cpp ****     }
 1169              		.loc 1 52 9
  52:test/Threads_CPP_API_test.cpp ****     }
 1170              		.loc 1 52 20 is_stmt 0
 1171 0010 93050000 		li	a1,0
 1172 0014 97000000 		call	_ZN7WorkerD11workerBodyDEPv
 1172      E7800000 
 1173              	.LVL127:
  53:test/Threads_CPP_API_test.cpp **** };
 1174              		.loc 1 53 5
 1175 001c 83308100 		ld	ra,8(sp)
 1176              		.cfi_restore 1
 1177 0020 03340100 		ld	s0,0(sp)
 1178              		.cfi_restore 8
 1179              		.cfi_def_cfa 2, 16
 1180 0024 13010101 		addi	sp,sp,16
 1181              		.cfi_def_cfa_offset 0
 1182 0028 67800000 		jr	ra
 1183              		.cfi_endproc
 1184              	.LFE21:
 1186              		.section	.rodata.str1.8
 1187 009d 000000   		.align	3
 1188              	.LC13:
 1189 00a0 54687265 		.string	"ThreadA created\n"
 1189      61644120 
 1189      63726561 
 1189      7465640A 
 1189      00
 1190 00b1 00000000 		.align	3
 1190      000000
 1191              	.LC14:
 1192 00b8 54687265 		.string	"ThreadB created\n"
 1192      61644220 
 1192      63726561 
 1192      7465640A 
 1192      00
 1193 00c9 00000000 		.align	3
 1193      000000
 1194              	.LC15:
GAS LISTING /tmp/cc6bA9Dg.s 			page 27


 1195 00d0 54687265 		.string	"ThreadC created\n"
 1195      61644320 
 1195      63726561 
 1195      7465640A 
 1195      00
 1196 00e1 00000000 		.align	3
 1196      000000
 1197              	.LC16:
 1198 00e8 54687265 		.string	"ThreadD created\n"
 1198      61644420 
 1198      63726561 
 1198      7465640A 
 1198      00
 1199              		.text
 1200              		.align	2
 1201              		.globl	_Z20Threads_CPP_API_testv
 1203              	_Z20Threads_CPP_API_testv:
 1204              	.LFB26:
 129:test/Threads_CPP_API_test.cpp **** 
 130:test/Threads_CPP_API_test.cpp **** 
 131:test/Threads_CPP_API_test.cpp **** void Threads_CPP_API_test() {
 1205              		.loc 1 131 29 is_stmt 1
 1206              		.cfi_startproc
 1207 04dc 130101FC 		addi	sp,sp,-64
 1208              		.cfi_def_cfa_offset 64
 1209 04e0 233C1102 		sd	ra,56(sp)
 1210 04e4 23388102 		sd	s0,48(sp)
 1211 04e8 23349102 		sd	s1,40(sp)
 1212              		.cfi_offset 1, -8
 1213              		.cfi_offset 8, -16
 1214              		.cfi_offset 9, -24
 1215 04ec 13040104 		addi	s0,sp,64
 1216              		.cfi_def_cfa 8, 0
 132:test/Threads_CPP_API_test.cpp ****     Thread* threads[4];
 1217              		.loc 1 132 5
 133:test/Threads_CPP_API_test.cpp **** 
 134:test/Threads_CPP_API_test.cpp ****     threads[0] = new WorkerA();
 1218              		.loc 1 134 5
 1219              		.loc 1 134 30 is_stmt 0
 1220 04f0 13050002 		li	a0,32
 1221 04f4 97000000 		call	_Znwm@plt
 1221      E7800000 
 1222              	.LVL128:
 1223              	.LBB76:
 1224              	.LBB77:
  19:test/Threads_CPP_API_test.cpp **** 
 1225              		.loc 1 19 22
 1226 04fc 97070000 		lla	a5,_ZTV7WorkerA+16
 1226      93870700 
 1227 0504 2330F500 		sd	a5,0(a0)
 1228              	.LVL129:
 1229              	.LBE77:
 1230              	.LBE76:
 1231              		.loc 1 134 16
 1232 0508 2330A4FC 		sd	a0,-64(s0)
 135:test/Threads_CPP_API_test.cpp ****     printString("ThreadA created\n");
 1233              		.loc 1 135 5 is_stmt 1
GAS LISTING /tmp/cc6bA9Dg.s 			page 28


 1234              		.loc 1 135 16 is_stmt 0
 1235 050c 17050000 		lla	a0,.LC13
 1235      13050500 
 1236 0514 97000000 		call	_Z11printStringPKc@plt
 1236      E7800000 
 1237              	.LVL130:
 136:test/Threads_CPP_API_test.cpp **** 
 137:test/Threads_CPP_API_test.cpp ****     threads[1] = new WorkerB();
 1238              		.loc 1 137 5 is_stmt 1
 1239              		.loc 1 137 30 is_stmt 0
 1240 051c 13050002 		li	a0,32
 1241 0520 97000000 		call	_Znwm@plt
 1241      E7800000 
 1242              	.LVL131:
 1243              	.LBB78:
 1244              	.LBB79:
  29:test/Threads_CPP_API_test.cpp **** 
 1245              		.loc 1 29 22
 1246 0528 97070000 		lla	a5,_ZTV7WorkerB+16
 1246      93870700 
 1247 0530 2330F500 		sd	a5,0(a0)
 1248              	.LVL132:
 1249              	.LBE79:
 1250              	.LBE78:
 1251              		.loc 1 137 16
 1252 0534 2334A4FC 		sd	a0,-56(s0)
 138:test/Threads_CPP_API_test.cpp ****     printString("ThreadB created\n");
 1253              		.loc 1 138 5 is_stmt 1
 1254              		.loc 1 138 16 is_stmt 0
 1255 0538 17050000 		lla	a0,.LC14
 1255      13050500 
 1256 0540 97000000 		call	_Z11printStringPKc@plt
 1256      E7800000 
 1257              	.LVL133:
 139:test/Threads_CPP_API_test.cpp **** 
 140:test/Threads_CPP_API_test.cpp ****     threads[2] = new WorkerC();
 1258              		.loc 1 140 5 is_stmt 1
 1259              		.loc 1 140 30 is_stmt 0
 1260 0548 13050002 		li	a0,32
 1261 054c 97000000 		call	_Znwm@plt
 1261      E7800000 
 1262              	.LVL134:
 1263              	.LBB80:
 1264              	.LBB81:
  39:test/Threads_CPP_API_test.cpp **** 
 1265              		.loc 1 39 22
 1266 0554 97070000 		lla	a5,_ZTV7WorkerC+16
 1266      93870700 
 1267 055c 2330F500 		sd	a5,0(a0)
 1268              	.LVL135:
 1269              	.LBE81:
 1270              	.LBE80:
 1271              		.loc 1 140 16
 1272 0560 2338A4FC 		sd	a0,-48(s0)
 141:test/Threads_CPP_API_test.cpp ****     printString("ThreadC created\n");
 1273              		.loc 1 141 5 is_stmt 1
 1274              		.loc 1 141 16 is_stmt 0
GAS LISTING /tmp/cc6bA9Dg.s 			page 29


 1275 0564 17050000 		lla	a0,.LC15
 1275      13050500 
 1276 056c 97000000 		call	_Z11printStringPKc@plt
 1276      E7800000 
 1277              	.LVL136:
 142:test/Threads_CPP_API_test.cpp **** 
 143:test/Threads_CPP_API_test.cpp ****     threads[3] = new WorkerD();
 1278              		.loc 1 143 5 is_stmt 1
 1279              		.loc 1 143 30 is_stmt 0
 1280 0574 13050002 		li	a0,32
 1281 0578 97000000 		call	_Znwm@plt
 1281      E7800000 
 1282              	.LVL137:
 1283              	.LBB82:
 1284              	.LBB83:
  49:test/Threads_CPP_API_test.cpp **** 
 1285              		.loc 1 49 22
 1286 0580 97070000 		lla	a5,_ZTV7WorkerD+16
 1286      93870700 
 1287 0588 2330F500 		sd	a5,0(a0)
 1288              	.LVL138:
 1289              	.LBE83:
 1290              	.LBE82:
 1291              		.loc 1 143 16
 1292 058c 233CA4FC 		sd	a0,-40(s0)
 144:test/Threads_CPP_API_test.cpp ****     printString("ThreadD created\n");
 1293              		.loc 1 144 5 is_stmt 1
 1294              		.loc 1 144 16 is_stmt 0
 1295 0590 17050000 		lla	a0,.LC16
 1295      13050500 
 1296 0598 97000000 		call	_Z11printStringPKc@plt
 1296      E7800000 
 1297              	.LVL139:
 1298              	.LBB84:
 145:test/Threads_CPP_API_test.cpp **** 
 146:test/Threads_CPP_API_test.cpp ****     for(int i=0; i<4; i++) {
 1299              		.loc 1 146 13
 1300 05a0 93040000 		li	s1,0
 1301              	.L65:
 1302              	.LVL140:
 1303              		.loc 1 146 19 is_stmt 1 discriminator 1
 1304 05a4 93073000 		li	a5,3
 1305 05a8 63C69702 		bgt	s1,a5,.L64
 147:test/Threads_CPP_API_test.cpp ****         threads[i]->start();
 1306              		.loc 1 147 9
 1307              		.loc 1 147 18 is_stmt 0
 1308 05ac 93973400 		slli	a5,s1,3
 1309 05b0 130704FE 		addi	a4,s0,-32
 1310 05b4 B307F700 		add	a5,a4,a5
 1311              		.loc 1 147 26
 1312 05b8 03B507FE 		ld	a0,-32(a5)
 1313 05bc 97000000 		call	_ZN6Thread5startEv@plt
 1313      E7800000 
 1314              	.LVL141:
 146:test/Threads_CPP_API_test.cpp ****         threads[i]->start();
 1315              		.loc 1 146 5 is_stmt 1
 1316 05c4 9B841400 		addiw	s1,s1,1
GAS LISTING /tmp/cc6bA9Dg.s 			page 30


 1317              	.LVL142:
 1318 05c8 6FF0DFFD 		j	.L65
 1319              	.LVL143:
 1320              	.L66:
 1321              	.LBE84:
 148:test/Threads_CPP_API_test.cpp ****     }
 149:test/Threads_CPP_API_test.cpp **** 
 150:test/Threads_CPP_API_test.cpp ****     while (!(finishedA && finishedB && finishedC && finishedD)) {
 151:test/Threads_CPP_API_test.cpp ****         Thread::dispatch();
 1322              		.loc 1 151 9
 1323              		.loc 1 151 25 is_stmt 0
 1324 05cc 97000000 		call	_ZN6Thread8dispatchEv@plt
 1324      E7800000 
 1325              	.LVL144:
 1326              	.L64:
 150:test/Threads_CPP_API_test.cpp ****         Thread::dispatch();
 1327              		.loc 1 150 5 is_stmt 1
 150:test/Threads_CPP_API_test.cpp ****         Thread::dispatch();
 1328              		.loc 1 150 12
 150:test/Threads_CPP_API_test.cpp ****         Thread::dispatch();
 1329              		.loc 1 150 14 is_stmt 0
 1330 05d4 97070000 		lbu	a5,.LANCHOR0
 1330      83C70700 
 150:test/Threads_CPP_API_test.cpp ****         Thread::dispatch();
 1331              		.loc 1 150 12
 1332 05dc E38807FE 		beqz	a5,.L66
 150:test/Threads_CPP_API_test.cpp ****         Thread::dispatch();
 1333              		.loc 1 150 27 discriminator 2
 1334 05e0 97070000 		lbu	a5,.LANCHOR0+1
 1334      83C70700 
 150:test/Threads_CPP_API_test.cpp ****         Thread::dispatch();
 1335              		.loc 1 150 24 discriminator 2
 1336 05e8 E38207FE 		beqz	a5,.L66
 150:test/Threads_CPP_API_test.cpp ****         Thread::dispatch();
 1337              		.loc 1 150 40 discriminator 4
 1338 05ec 97070000 		lbu	a5,.LANCHOR0+2
 1338      83C70700 
 150:test/Threads_CPP_API_test.cpp ****         Thread::dispatch();
 1339              		.loc 1 150 37 discriminator 4
 1340 05f4 E38C07FC 		beqz	a5,.L66
 150:test/Threads_CPP_API_test.cpp ****         Thread::dispatch();
 1341              		.loc 1 150 53 discriminator 6
 1342 05f8 97070000 		lbu	a5,.LANCHOR0+3
 1342      83C70700 
 150:test/Threads_CPP_API_test.cpp ****         Thread::dispatch();
 1343              		.loc 1 150 12 discriminator 6
 1344 0600 E38607FC 		beqz	a5,.L66
 1345 0604 930404FC 		addi	s1,s0,-64
 1346              	.LVL145:
 1347 0608 6F008000 		j	.L67
 1348              	.LVL146:
 1349              	.L69:
 1350              	.LBB85:
 152:test/Threads_CPP_API_test.cpp ****     }
 153:test/Threads_CPP_API_test.cpp **** 
 154:test/Threads_CPP_API_test.cpp ****     for (auto thread: threads) { delete thread; }
 1351              		.loc 1 154 5 is_stmt 1 discriminator 5
GAS LISTING /tmp/cc6bA9Dg.s 			page 31


 1352 060c 93848400 		addi	s1,s1,8
 1353              	.LVL147:
 1354              	.L67:
 1355              		.loc 1 154 23 discriminator 6
 1356 0610 930704FE 		addi	a5,s0,-32
 1357 0614 638EF400 		beq	s1,a5,.L63
 1358              		.loc 1 154 15 is_stmt 0 discriminator 2
 1359 0618 03B50400 		ld	a0,0(s1)
 1360              	.LVL148:
 1361              		.loc 1 154 34 is_stmt 1 discriminator 2
 1362              		.loc 1 154 47 is_stmt 0 discriminator 2
 1363 061c E30805FE 		beqz	a0,.L69
 1364              		.loc 1 154 41 discriminator 3
 1365 0620 83370500 		ld	a5,0(a0)
 1366 0624 83B78700 		ld	a5,8(a5)
 1367 0628 E7800700 		jalr	a5
 1368              	.LVL149:
 1369 062c 6FF01FFE 		j	.L69
 1370              	.L63:
 1371              	.LBE85:
 155:test/Threads_CPP_API_test.cpp **** }
 1372              		.loc 1 155 1
 1373 0630 83308103 		ld	ra,56(sp)
 1374              		.cfi_restore 1
 1375 0634 03340103 		ld	s0,48(sp)
 1376              		.cfi_restore 8
 1377              		.cfi_def_cfa 2, 64
 1378 0638 83348102 		ld	s1,40(sp)
 1379              		.cfi_restore 9
 1380              	.LVL150:
 1381 063c 13010104 		addi	sp,sp,64
 1382              		.cfi_def_cfa_offset 0
 1383 0640 67800000 		jr	ra
 1384              		.cfi_endproc
 1385              	.LFE26:
 1387              		.weak	_ZTV7WorkerA
 1388              		.section	.data.rel.ro.local._ZTV7WorkerA,"awG",@progbits,_ZTV7WorkerA,comdat
 1389              		.align	3
 1392              	_ZTV7WorkerA:
 1393 0000 00000000 		.dword	0
 1393      00000000 
 1394 0008 00000000 		.dword	0
 1394      00000000 
 1395 0010 00000000 		.dword	_ZN7WorkerAD1Ev
 1395      00000000 
 1396 0018 00000000 		.dword	_ZN7WorkerAD0Ev
 1396      00000000 
 1397 0020 00000000 		.dword	_ZN7WorkerA3runEv
 1397      00000000 
 1398              		.weak	_ZTV7WorkerB
 1399              		.section	.data.rel.ro.local._ZTV7WorkerB,"awG",@progbits,_ZTV7WorkerB,comdat
 1400              		.align	3
 1403              	_ZTV7WorkerB:
 1404 0000 00000000 		.dword	0
 1404      00000000 
 1405 0008 00000000 		.dword	0
 1405      00000000 
GAS LISTING /tmp/cc6bA9Dg.s 			page 32


 1406 0010 00000000 		.dword	_ZN7WorkerBD1Ev
 1406      00000000 
 1407 0018 00000000 		.dword	_ZN7WorkerBD0Ev
 1407      00000000 
 1408 0020 00000000 		.dword	_ZN7WorkerB3runEv
 1408      00000000 
 1409              		.weak	_ZTV7WorkerC
 1410              		.section	.data.rel.ro.local._ZTV7WorkerC,"awG",@progbits,_ZTV7WorkerC,comdat
 1411              		.align	3
 1414              	_ZTV7WorkerC:
 1415 0000 00000000 		.dword	0
 1415      00000000 
 1416 0008 00000000 		.dword	0
 1416      00000000 
 1417 0010 00000000 		.dword	_ZN7WorkerCD1Ev
 1417      00000000 
 1418 0018 00000000 		.dword	_ZN7WorkerCD0Ev
 1418      00000000 
 1419 0020 00000000 		.dword	_ZN7WorkerC3runEv
 1419      00000000 
 1420              		.weak	_ZTV7WorkerD
 1421              		.section	.data.rel.ro.local._ZTV7WorkerD,"awG",@progbits,_ZTV7WorkerD,comdat
 1422              		.align	3
 1425              	_ZTV7WorkerD:
 1426 0000 00000000 		.dword	0
 1426      00000000 
 1427 0008 00000000 		.dword	0
 1427      00000000 
 1428 0010 00000000 		.dword	_ZN7WorkerDD1Ev
 1428      00000000 
 1429 0018 00000000 		.dword	_ZN7WorkerDD0Ev
 1429      00000000 
 1430 0020 00000000 		.dword	_ZN7WorkerD3runEv
 1430      00000000 
 1431              		.bss
 1432              		.set	.LANCHOR0,. + 0
 1435              	_ZL9finishedA:
 1436 0000 00       		.zero	1
 1439              	_ZL9finishedB:
 1440 0001 00       		.zero	1
 1443              	_ZL9finishedC:
 1444 0002 00       		.zero	1
 1447              	_ZL9finishedD:
 1448 0003 00       		.zero	1
 1449              		.text
 1450              	.Letext0:
 1451              		.file 2 "test/../h/../lib/hw.h"
 1452              		.file 3 "test/../h/syscall_cpp.hpp"
 1453              		.file 4 "test/../h/syscall_c.hpp"
 1454              		.file 5 "test/printing.hpp"
GAS LISTING /tmp/cc6bA9Dg.s 			page 33


DEFINED SYMBOLS
                            *ABS*:0000000000000000 Threads_CPP_API_test.cpp
     /tmp/cc6bA9Dg.s:8      .text:0000000000000000 _ZL9fibonaccim
     /tmp/cc6bA9Dg.s:12     .text:0000000000000000 .L0 
     /tmp/cc6bA9Dg.s:14     .text:0000000000000000 .L0 
     /tmp/cc6bA9Dg.s:15     .text:0000000000000004 .L0 
     /tmp/cc6bA9Dg.s:20     .text:0000000000000014 .L0 
     /tmp/cc6bA9Dg.s:21     .text:0000000000000014 .L0 
     /tmp/cc6bA9Dg.s:22     .text:0000000000000014 .L0 
     /tmp/cc6bA9Dg.s:23     .text:0000000000000014 .L0 
     /tmp/cc6bA9Dg.s:25     .text:0000000000000018 .L0 
     /tmp/cc6bA9Dg.s:28     .text:000000000000001c .L0 
     /tmp/cc6bA9Dg.s:31     .text:0000000000000024 .L0 
     /tmp/cc6bA9Dg.s:32     .text:0000000000000024 .L0 
     /tmp/cc6bA9Dg.s:35     .text:000000000000002c .L0 
     /tmp/cc6bA9Dg.s:39     .text:0000000000000030 .L0 
     /tmp/cc6bA9Dg.s:40     .text:0000000000000030 .L0 
     /tmp/cc6bA9Dg.s:45     .text:0000000000000040 .L0 
     /tmp/cc6bA9Dg.s:49     .text:000000000000004c .L0 
     /tmp/cc6bA9Dg.s:52     .text:0000000000000050 .L0 
     /tmp/cc6bA9Dg.s:53     .text:0000000000000054 .L0 
     /tmp/cc6bA9Dg.s:54     .text:0000000000000054 .L0 
     /tmp/cc6bA9Dg.s:56     .text:0000000000000058 .L0 
     /tmp/cc6bA9Dg.s:57     .text:0000000000000058 .L0 
     /tmp/cc6bA9Dg.s:59     .text:000000000000005c .L0 
     /tmp/cc6bA9Dg.s:62     .text:0000000000000060 .L0 
     /tmp/cc6bA9Dg.s:64     .text:0000000000000064 .L0 
     /tmp/cc6bA9Dg.s:68     .text:0000000000000068 .L0 
     /tmp/cc6bA9Dg.s:70     .text:0000000000000068 .L0 
     /tmp/cc6bA9Dg.s:71     .text:0000000000000068 .L0 
     /tmp/cc6bA9Dg.s:74     .text:0000000000000074 .L0 
     /tmp/cc6bA9Dg.s:81     .text._ZN7WorkerAD2Ev:0000000000000000 _ZN7WorkerAD2Ev
     /tmp/cc6bA9Dg.s:84     .text._ZN7WorkerAD2Ev:0000000000000000 .L0 
     /tmp/cc6bA9Dg.s:86     .text._ZN7WorkerAD2Ev:0000000000000000 .L0 
     /tmp/cc6bA9Dg.s:87     .text._ZN7WorkerAD2Ev:0000000000000004 .L0 
     /tmp/cc6bA9Dg.s:90     .text._ZN7WorkerAD2Ev:000000000000000c .L0 
     /tmp/cc6bA9Dg.s:91     .text._ZN7WorkerAD2Ev:000000000000000c .L0 
     /tmp/cc6bA9Dg.s:93     .text._ZN7WorkerAD2Ev:0000000000000010 .L0 
     /tmp/cc6bA9Dg.s:1392   .data.rel.ro.local._ZTV7WorkerA:0000000000000000 _ZTV7WorkerA
     /tmp/cc6bA9Dg.s:96     .text._ZN7WorkerAD2Ev:0000000000000010 .L0 
     /tmp/cc6bA9Dg.s:102    .text._ZN7WorkerAD2Ev:0000000000000028 .L0 
     /tmp/cc6bA9Dg.s:104    .text._ZN7WorkerAD2Ev:000000000000002c .L0 
     /tmp/cc6bA9Dg.s:105    .text._ZN7WorkerAD2Ev:000000000000002c .L0 
     /tmp/cc6bA9Dg.s:107    .text._ZN7WorkerAD2Ev:0000000000000030 .L0 
     /tmp/cc6bA9Dg.s:109    .text._ZN7WorkerAD2Ev:0000000000000034 .L0 
     /tmp/cc6bA9Dg.s:81     .text._ZN7WorkerAD2Ev:0000000000000000 _ZN7WorkerAD1Ev
     /tmp/cc6bA9Dg.s:118    .text._ZN7WorkerAD0Ev:0000000000000000 _ZN7WorkerAD0Ev
     /tmp/cc6bA9Dg.s:121    .text._ZN7WorkerAD0Ev:0000000000000000 .L0 
     /tmp/cc6bA9Dg.s:123    .text._ZN7WorkerAD0Ev:0000000000000000 .L0 
     /tmp/cc6bA9Dg.s:124    .text._ZN7WorkerAD0Ev:0000000000000004 .L0 
     /tmp/cc6bA9Dg.s:128    .text._ZN7WorkerAD0Ev:0000000000000010 .L0 
     /tmp/cc6bA9Dg.s:129    .text._ZN7WorkerAD0Ev:0000000000000010 .L0 
     /tmp/cc6bA9Dg.s:130    .text._ZN7WorkerAD0Ev:0000000000000010 .L0 
     /tmp/cc6bA9Dg.s:132    .text._ZN7WorkerAD0Ev:0000000000000014 .L0 
     /tmp/cc6bA9Dg.s:138    .text._ZN7WorkerAD0Ev:0000000000000018 .L0 
     /tmp/cc6bA9Dg.s:148    .text._ZN7WorkerAD0Ev:000000000000003c .L0 
     /tmp/cc6bA9Dg.s:150    .text._ZN7WorkerAD0Ev:0000000000000040 .L0 
GAS LISTING /tmp/cc6bA9Dg.s 			page 34


     /tmp/cc6bA9Dg.s:151    .text._ZN7WorkerAD0Ev:0000000000000040 .L0 
     /tmp/cc6bA9Dg.s:153    .text._ZN7WorkerAD0Ev:0000000000000044 .L0 
     /tmp/cc6bA9Dg.s:156    .text._ZN7WorkerAD0Ev:0000000000000048 .L0 
     /tmp/cc6bA9Dg.s:158    .text._ZN7WorkerAD0Ev:000000000000004c .L0 
     /tmp/cc6bA9Dg.s:165    .text._ZN7WorkerBD2Ev:0000000000000000 _ZN7WorkerBD2Ev
     /tmp/cc6bA9Dg.s:168    .text._ZN7WorkerBD2Ev:0000000000000000 .L0 
     /tmp/cc6bA9Dg.s:170    .text._ZN7WorkerBD2Ev:0000000000000000 .L0 
     /tmp/cc6bA9Dg.s:171    .text._ZN7WorkerBD2Ev:0000000000000004 .L0 
     /tmp/cc6bA9Dg.s:174    .text._ZN7WorkerBD2Ev:000000000000000c .L0 
     /tmp/cc6bA9Dg.s:175    .text._ZN7WorkerBD2Ev:000000000000000c .L0 
     /tmp/cc6bA9Dg.s:177    .text._ZN7WorkerBD2Ev:0000000000000010 .L0 
     /tmp/cc6bA9Dg.s:1403   .data.rel.ro.local._ZTV7WorkerB:0000000000000000 _ZTV7WorkerB
     /tmp/cc6bA9Dg.s:180    .text._ZN7WorkerBD2Ev:0000000000000010 .L0 
     /tmp/cc6bA9Dg.s:186    .text._ZN7WorkerBD2Ev:0000000000000028 .L0 
     /tmp/cc6bA9Dg.s:188    .text._ZN7WorkerBD2Ev:000000000000002c .L0 
     /tmp/cc6bA9Dg.s:189    .text._ZN7WorkerBD2Ev:000000000000002c .L0 
     /tmp/cc6bA9Dg.s:191    .text._ZN7WorkerBD2Ev:0000000000000030 .L0 
     /tmp/cc6bA9Dg.s:193    .text._ZN7WorkerBD2Ev:0000000000000034 .L0 
     /tmp/cc6bA9Dg.s:165    .text._ZN7WorkerBD2Ev:0000000000000000 _ZN7WorkerBD1Ev
     /tmp/cc6bA9Dg.s:202    .text._ZN7WorkerBD0Ev:0000000000000000 _ZN7WorkerBD0Ev
     /tmp/cc6bA9Dg.s:205    .text._ZN7WorkerBD0Ev:0000000000000000 .L0 
     /tmp/cc6bA9Dg.s:207    .text._ZN7WorkerBD0Ev:0000000000000000 .L0 
     /tmp/cc6bA9Dg.s:208    .text._ZN7WorkerBD0Ev:0000000000000004 .L0 
     /tmp/cc6bA9Dg.s:212    .text._ZN7WorkerBD0Ev:0000000000000010 .L0 
     /tmp/cc6bA9Dg.s:213    .text._ZN7WorkerBD0Ev:0000000000000010 .L0 
     /tmp/cc6bA9Dg.s:214    .text._ZN7WorkerBD0Ev:0000000000000010 .L0 
     /tmp/cc6bA9Dg.s:216    .text._ZN7WorkerBD0Ev:0000000000000014 .L0 
     /tmp/cc6bA9Dg.s:222    .text._ZN7WorkerBD0Ev:0000000000000018 .L0 
     /tmp/cc6bA9Dg.s:232    .text._ZN7WorkerBD0Ev:000000000000003c .L0 
     /tmp/cc6bA9Dg.s:234    .text._ZN7WorkerBD0Ev:0000000000000040 .L0 
     /tmp/cc6bA9Dg.s:235    .text._ZN7WorkerBD0Ev:0000000000000040 .L0 
     /tmp/cc6bA9Dg.s:237    .text._ZN7WorkerBD0Ev:0000000000000044 .L0 
     /tmp/cc6bA9Dg.s:240    .text._ZN7WorkerBD0Ev:0000000000000048 .L0 
     /tmp/cc6bA9Dg.s:242    .text._ZN7WorkerBD0Ev:000000000000004c .L0 
     /tmp/cc6bA9Dg.s:249    .text._ZN7WorkerCD2Ev:0000000000000000 _ZN7WorkerCD2Ev
     /tmp/cc6bA9Dg.s:252    .text._ZN7WorkerCD2Ev:0000000000000000 .L0 
     /tmp/cc6bA9Dg.s:254    .text._ZN7WorkerCD2Ev:0000000000000000 .L0 
     /tmp/cc6bA9Dg.s:255    .text._ZN7WorkerCD2Ev:0000000000000004 .L0 
     /tmp/cc6bA9Dg.s:258    .text._ZN7WorkerCD2Ev:000000000000000c .L0 
     /tmp/cc6bA9Dg.s:259    .text._ZN7WorkerCD2Ev:000000000000000c .L0 
     /tmp/cc6bA9Dg.s:261    .text._ZN7WorkerCD2Ev:0000000000000010 .L0 
     /tmp/cc6bA9Dg.s:1414   .data.rel.ro.local._ZTV7WorkerC:0000000000000000 _ZTV7WorkerC
     /tmp/cc6bA9Dg.s:264    .text._ZN7WorkerCD2Ev:0000000000000010 .L0 
     /tmp/cc6bA9Dg.s:270    .text._ZN7WorkerCD2Ev:0000000000000028 .L0 
     /tmp/cc6bA9Dg.s:272    .text._ZN7WorkerCD2Ev:000000000000002c .L0 
     /tmp/cc6bA9Dg.s:273    .text._ZN7WorkerCD2Ev:000000000000002c .L0 
     /tmp/cc6bA9Dg.s:275    .text._ZN7WorkerCD2Ev:0000000000000030 .L0 
     /tmp/cc6bA9Dg.s:277    .text._ZN7WorkerCD2Ev:0000000000000034 .L0 
     /tmp/cc6bA9Dg.s:249    .text._ZN7WorkerCD2Ev:0000000000000000 _ZN7WorkerCD1Ev
     /tmp/cc6bA9Dg.s:286    .text._ZN7WorkerCD0Ev:0000000000000000 _ZN7WorkerCD0Ev
     /tmp/cc6bA9Dg.s:289    .text._ZN7WorkerCD0Ev:0000000000000000 .L0 
     /tmp/cc6bA9Dg.s:291    .text._ZN7WorkerCD0Ev:0000000000000000 .L0 
     /tmp/cc6bA9Dg.s:292    .text._ZN7WorkerCD0Ev:0000000000000004 .L0 
     /tmp/cc6bA9Dg.s:296    .text._ZN7WorkerCD0Ev:0000000000000010 .L0 
     /tmp/cc6bA9Dg.s:297    .text._ZN7WorkerCD0Ev:0000000000000010 .L0 
     /tmp/cc6bA9Dg.s:298    .text._ZN7WorkerCD0Ev:0000000000000010 .L0 
     /tmp/cc6bA9Dg.s:300    .text._ZN7WorkerCD0Ev:0000000000000014 .L0 
GAS LISTING /tmp/cc6bA9Dg.s 			page 35


     /tmp/cc6bA9Dg.s:306    .text._ZN7WorkerCD0Ev:0000000000000018 .L0 
     /tmp/cc6bA9Dg.s:316    .text._ZN7WorkerCD0Ev:000000000000003c .L0 
     /tmp/cc6bA9Dg.s:318    .text._ZN7WorkerCD0Ev:0000000000000040 .L0 
     /tmp/cc6bA9Dg.s:319    .text._ZN7WorkerCD0Ev:0000000000000040 .L0 
     /tmp/cc6bA9Dg.s:321    .text._ZN7WorkerCD0Ev:0000000000000044 .L0 
     /tmp/cc6bA9Dg.s:324    .text._ZN7WorkerCD0Ev:0000000000000048 .L0 
     /tmp/cc6bA9Dg.s:326    .text._ZN7WorkerCD0Ev:000000000000004c .L0 
     /tmp/cc6bA9Dg.s:333    .text._ZN7WorkerDD2Ev:0000000000000000 _ZN7WorkerDD2Ev
     /tmp/cc6bA9Dg.s:336    .text._ZN7WorkerDD2Ev:0000000000000000 .L0 
     /tmp/cc6bA9Dg.s:338    .text._ZN7WorkerDD2Ev:0000000000000000 .L0 
     /tmp/cc6bA9Dg.s:339    .text._ZN7WorkerDD2Ev:0000000000000004 .L0 
     /tmp/cc6bA9Dg.s:342    .text._ZN7WorkerDD2Ev:000000000000000c .L0 
     /tmp/cc6bA9Dg.s:343    .text._ZN7WorkerDD2Ev:000000000000000c .L0 
     /tmp/cc6bA9Dg.s:345    .text._ZN7WorkerDD2Ev:0000000000000010 .L0 
     /tmp/cc6bA9Dg.s:1425   .data.rel.ro.local._ZTV7WorkerD:0000000000000000 _ZTV7WorkerD
     /tmp/cc6bA9Dg.s:348    .text._ZN7WorkerDD2Ev:0000000000000010 .L0 
     /tmp/cc6bA9Dg.s:354    .text._ZN7WorkerDD2Ev:0000000000000028 .L0 
     /tmp/cc6bA9Dg.s:356    .text._ZN7WorkerDD2Ev:000000000000002c .L0 
     /tmp/cc6bA9Dg.s:357    .text._ZN7WorkerDD2Ev:000000000000002c .L0 
     /tmp/cc6bA9Dg.s:359    .text._ZN7WorkerDD2Ev:0000000000000030 .L0 
     /tmp/cc6bA9Dg.s:361    .text._ZN7WorkerDD2Ev:0000000000000034 .L0 
     /tmp/cc6bA9Dg.s:333    .text._ZN7WorkerDD2Ev:0000000000000000 _ZN7WorkerDD1Ev
     /tmp/cc6bA9Dg.s:370    .text._ZN7WorkerDD0Ev:0000000000000000 _ZN7WorkerDD0Ev
     /tmp/cc6bA9Dg.s:373    .text._ZN7WorkerDD0Ev:0000000000000000 .L0 
     /tmp/cc6bA9Dg.s:375    .text._ZN7WorkerDD0Ev:0000000000000000 .L0 
     /tmp/cc6bA9Dg.s:376    .text._ZN7WorkerDD0Ev:0000000000000004 .L0 
     /tmp/cc6bA9Dg.s:380    .text._ZN7WorkerDD0Ev:0000000000000010 .L0 
     /tmp/cc6bA9Dg.s:381    .text._ZN7WorkerDD0Ev:0000000000000010 .L0 
     /tmp/cc6bA9Dg.s:382    .text._ZN7WorkerDD0Ev:0000000000000010 .L0 
     /tmp/cc6bA9Dg.s:384    .text._ZN7WorkerDD0Ev:0000000000000014 .L0 
     /tmp/cc6bA9Dg.s:390    .text._ZN7WorkerDD0Ev:0000000000000018 .L0 
     /tmp/cc6bA9Dg.s:400    .text._ZN7WorkerDD0Ev:000000000000003c .L0 
     /tmp/cc6bA9Dg.s:402    .text._ZN7WorkerDD0Ev:0000000000000040 .L0 
     /tmp/cc6bA9Dg.s:403    .text._ZN7WorkerDD0Ev:0000000000000040 .L0 
     /tmp/cc6bA9Dg.s:405    .text._ZN7WorkerDD0Ev:0000000000000044 .L0 
     /tmp/cc6bA9Dg.s:408    .text._ZN7WorkerDD0Ev:0000000000000048 .L0 
     /tmp/cc6bA9Dg.s:410    .text._ZN7WorkerDD0Ev:000000000000004c .L0 
     /tmp/cc6bA9Dg.s:427    .text:0000000000000074 _ZN7WorkerA11workerBodyAEPv
     /tmp/cc6bA9Dg.s:430    .text:0000000000000074 .L0 
     /tmp/cc6bA9Dg.s:432    .text:0000000000000074 .L0 
     /tmp/cc6bA9Dg.s:433    .text:0000000000000078 .L0 
     /tmp/cc6bA9Dg.s:438    .text:0000000000000088 .L0 
     /tmp/cc6bA9Dg.s:439    .text:0000000000000088 .L0 
     /tmp/cc6bA9Dg.s:440    .text:0000000000000088 .L0 
     /tmp/cc6bA9Dg.s:441    .text:0000000000000088 .L0 
     /tmp/cc6bA9Dg.s:443    .text:000000000000008c .L0 
     /tmp/cc6bA9Dg.s:447    .text:000000000000008c .L0 
     /tmp/cc6bA9Dg.s:448    .text:000000000000008c .L0 
     /tmp/cc6bA9Dg.s:456    .text:0000000000000094 .L0 
     /tmp/cc6bA9Dg.s:457    .text:0000000000000094 .L0 
     /tmp/cc6bA9Dg.s:461    .text:000000000000009c .L0 
     /tmp/cc6bA9Dg.s:465    .text:00000000000000a0 .L0 
     /tmp/cc6bA9Dg.s:471    .text:00000000000000ac .L0 
     /tmp/cc6bA9Dg.s:475    .text:00000000000000b0 .L0 
     /tmp/cc6bA9Dg.s:479    .text:00000000000000bc .L0 
     /tmp/cc6bA9Dg.s:489    .text:00000000000000c4 .L0 
     /tmp/cc6bA9Dg.s:493    .text:00000000000000c8 .L0 
GAS LISTING /tmp/cc6bA9Dg.s 			page 36


     /tmp/cc6bA9Dg.s:497    .text:00000000000000d0 .L0 
     /tmp/cc6bA9Dg.s:498    .text:00000000000000d0 .L0 
     /tmp/cc6bA9Dg.s:502    .text:00000000000000e0 .L0 
     /tmp/cc6bA9Dg.s:503    .text:00000000000000e0 .L0 
     /tmp/cc6bA9Dg.s:509    .text:00000000000000f4 .L0 
     /tmp/cc6bA9Dg.s:510    .text:00000000000000f4 .L0 
     /tmp/cc6bA9Dg.s:515    .text:0000000000000104 .L0 
     /tmp/cc6bA9Dg.s:516    .text:0000000000000104 .L0 
     /tmp/cc6bA9Dg.s:524    .text:000000000000010c .L0 
     /tmp/cc6bA9Dg.s:525    .text:000000000000010c .L0 
     /tmp/cc6bA9Dg.s:529    .text:000000000000011c .L0 
     /tmp/cc6bA9Dg.s:530    .text:000000000000011c .L0 
     /tmp/cc6bA9Dg.s:533    .text:0000000000000128 .L0 
     /tmp/cc6bA9Dg.s:534    .text:000000000000012c .L0 
     /tmp/cc6bA9Dg.s:536    .text:0000000000000130 .L0 
     /tmp/cc6bA9Dg.s:537    .text:0000000000000130 .L0 
     /tmp/cc6bA9Dg.s:539    .text:0000000000000134 .L0 
     /tmp/cc6bA9Dg.s:541    .text:0000000000000138 .L0 
     /tmp/cc6bA9Dg.s:544    .text:000000000000013c .L0 
     /tmp/cc6bA9Dg.s:546    .text:0000000000000140 .L0 
     /tmp/cc6bA9Dg.s:553    .text._ZN7WorkerA3runEv:0000000000000000 _ZN7WorkerA3runEv
     /tmp/cc6bA9Dg.s:556    .text._ZN7WorkerA3runEv:0000000000000000 .L0 
     /tmp/cc6bA9Dg.s:558    .text._ZN7WorkerA3runEv:0000000000000000 .L0 
     /tmp/cc6bA9Dg.s:559    .text._ZN7WorkerA3runEv:0000000000000004 .L0 
     /tmp/cc6bA9Dg.s:562    .text._ZN7WorkerA3runEv:000000000000000c .L0 
     /tmp/cc6bA9Dg.s:563    .text._ZN7WorkerA3runEv:000000000000000c .L0 
     /tmp/cc6bA9Dg.s:565    .text._ZN7WorkerA3runEv:0000000000000010 .L0 
     /tmp/cc6bA9Dg.s:567    .text._ZN7WorkerA3runEv:0000000000000010 .L0 
     /tmp/cc6bA9Dg.s:568    .text._ZN7WorkerA3runEv:0000000000000010 .L0 
     /tmp/cc6bA9Dg.s:572    .text._ZN7WorkerA3runEv:000000000000001c .L0 
     /tmp/cc6bA9Dg.s:573    .text._ZN7WorkerA3runEv:0000000000000020 .L0 
     /tmp/cc6bA9Dg.s:575    .text._ZN7WorkerA3runEv:0000000000000024 .L0 
     /tmp/cc6bA9Dg.s:576    .text._ZN7WorkerA3runEv:0000000000000024 .L0 
     /tmp/cc6bA9Dg.s:578    .text._ZN7WorkerA3runEv:0000000000000028 .L0 
     /tmp/cc6bA9Dg.s:580    .text._ZN7WorkerA3runEv:000000000000002c .L0 
     /tmp/cc6bA9Dg.s:594    .text:0000000000000140 _ZN7WorkerB11workerBodyBEPv
     /tmp/cc6bA9Dg.s:597    .text:0000000000000140 .L0 
     /tmp/cc6bA9Dg.s:599    .text:0000000000000140 .L0 
     /tmp/cc6bA9Dg.s:600    .text:0000000000000144 .L0 
     /tmp/cc6bA9Dg.s:605    .text:0000000000000154 .L0 
     /tmp/cc6bA9Dg.s:606    .text:0000000000000154 .L0 
     /tmp/cc6bA9Dg.s:607    .text:0000000000000154 .L0 
     /tmp/cc6bA9Dg.s:608    .text:0000000000000154 .L0 
     /tmp/cc6bA9Dg.s:610    .text:0000000000000158 .L0 
     /tmp/cc6bA9Dg.s:614    .text:0000000000000158 .L0 
     /tmp/cc6bA9Dg.s:615    .text:0000000000000158 .L0 
     /tmp/cc6bA9Dg.s:623    .text:0000000000000160 .L0 
     /tmp/cc6bA9Dg.s:624    .text:0000000000000160 .L0 
     /tmp/cc6bA9Dg.s:628    .text:0000000000000168 .L0 
     /tmp/cc6bA9Dg.s:632    .text:000000000000016c .L0 
     /tmp/cc6bA9Dg.s:638    .text:0000000000000178 .L0 
     /tmp/cc6bA9Dg.s:642    .text:000000000000017c .L0 
     /tmp/cc6bA9Dg.s:646    .text:0000000000000188 .L0 
     /tmp/cc6bA9Dg.s:656    .text:0000000000000190 .L0 
     /tmp/cc6bA9Dg.s:660    .text:0000000000000194 .L0 
     /tmp/cc6bA9Dg.s:664    .text:000000000000019c .L0 
     /tmp/cc6bA9Dg.s:665    .text:000000000000019c .L0 
GAS LISTING /tmp/cc6bA9Dg.s 			page 37


     /tmp/cc6bA9Dg.s:669    .text:00000000000001ac .L0 
     /tmp/cc6bA9Dg.s:670    .text:00000000000001ac .L0 
     /tmp/cc6bA9Dg.s:676    .text:00000000000001c0 .L0 
     /tmp/cc6bA9Dg.s:677    .text:00000000000001c0 .L0 
     /tmp/cc6bA9Dg.s:682    .text:00000000000001d0 .L0 
     /tmp/cc6bA9Dg.s:683    .text:00000000000001d0 .L0 
     /tmp/cc6bA9Dg.s:691    .text:00000000000001d8 .L0 
     /tmp/cc6bA9Dg.s:692    .text:00000000000001d8 .L0 
     /tmp/cc6bA9Dg.s:696    .text:00000000000001e8 .L0 
     /tmp/cc6bA9Dg.s:697    .text:00000000000001e8 .L0 
     /tmp/cc6bA9Dg.s:700    .text:00000000000001f4 .L0 
     /tmp/cc6bA9Dg.s:701    .text:00000000000001f4 .L0 
     /tmp/cc6bA9Dg.s:704    .text:00000000000001fc .L0 
     /tmp/cc6bA9Dg.s:705    .text:0000000000000200 .L0 
     /tmp/cc6bA9Dg.s:707    .text:0000000000000204 .L0 
     /tmp/cc6bA9Dg.s:708    .text:0000000000000204 .L0 
     /tmp/cc6bA9Dg.s:710    .text:0000000000000208 .L0 
     /tmp/cc6bA9Dg.s:712    .text:000000000000020c .L0 
     /tmp/cc6bA9Dg.s:715    .text:0000000000000210 .L0 
     /tmp/cc6bA9Dg.s:717    .text:0000000000000214 .L0 
     /tmp/cc6bA9Dg.s:724    .text._ZN7WorkerB3runEv:0000000000000000 _ZN7WorkerB3runEv
     /tmp/cc6bA9Dg.s:727    .text._ZN7WorkerB3runEv:0000000000000000 .L0 
     /tmp/cc6bA9Dg.s:729    .text._ZN7WorkerB3runEv:0000000000000000 .L0 
     /tmp/cc6bA9Dg.s:730    .text._ZN7WorkerB3runEv:0000000000000004 .L0 
     /tmp/cc6bA9Dg.s:733    .text._ZN7WorkerB3runEv:000000000000000c .L0 
     /tmp/cc6bA9Dg.s:734    .text._ZN7WorkerB3runEv:000000000000000c .L0 
     /tmp/cc6bA9Dg.s:736    .text._ZN7WorkerB3runEv:0000000000000010 .L0 
     /tmp/cc6bA9Dg.s:738    .text._ZN7WorkerB3runEv:0000000000000010 .L0 
     /tmp/cc6bA9Dg.s:739    .text._ZN7WorkerB3runEv:0000000000000010 .L0 
     /tmp/cc6bA9Dg.s:743    .text._ZN7WorkerB3runEv:000000000000001c .L0 
     /tmp/cc6bA9Dg.s:744    .text._ZN7WorkerB3runEv:0000000000000020 .L0 
     /tmp/cc6bA9Dg.s:746    .text._ZN7WorkerB3runEv:0000000000000024 .L0 
     /tmp/cc6bA9Dg.s:747    .text._ZN7WorkerB3runEv:0000000000000024 .L0 
     /tmp/cc6bA9Dg.s:749    .text._ZN7WorkerB3runEv:0000000000000028 .L0 
     /tmp/cc6bA9Dg.s:751    .text._ZN7WorkerB3runEv:000000000000002c .L0 
     /tmp/cc6bA9Dg.s:771    .text:0000000000000214 _ZN7WorkerC11workerBodyCEPv
     /tmp/cc6bA9Dg.s:774    .text:0000000000000214 .L0 
     /tmp/cc6bA9Dg.s:776    .text:0000000000000214 .L0 
     /tmp/cc6bA9Dg.s:777    .text:0000000000000218 .L0 
     /tmp/cc6bA9Dg.s:782    .text:0000000000000228 .L0 
     /tmp/cc6bA9Dg.s:783    .text:0000000000000228 .L0 
     /tmp/cc6bA9Dg.s:784    .text:0000000000000228 .L0 
     /tmp/cc6bA9Dg.s:785    .text:0000000000000228 .L0 
     /tmp/cc6bA9Dg.s:787    .text:000000000000022c .L0 
     /tmp/cc6bA9Dg.s:790    .text:000000000000022c .L0 
     /tmp/cc6bA9Dg.s:791    .text:000000000000022c .L0 
     /tmp/cc6bA9Dg.s:796    .text:0000000000000234 .L0 
     /tmp/cc6bA9Dg.s:797    .text:0000000000000234 .L0 
     /tmp/cc6bA9Dg.s:801    .text:0000000000000244 .L0 
     /tmp/cc6bA9Dg.s:802    .text:0000000000000244 .L0 
     /tmp/cc6bA9Dg.s:808    .text:0000000000000258 .L0 
     /tmp/cc6bA9Dg.s:809    .text:0000000000000258 .L0 
     /tmp/cc6bA9Dg.s:813    .text:0000000000000268 .L0 
     /tmp/cc6bA9Dg.s:819    .text:0000000000000270 .L0 
     /tmp/cc6bA9Dg.s:820    .text:0000000000000270 .L0 
     /tmp/cc6bA9Dg.s:823    .text:0000000000000278 .L0 
     /tmp/cc6bA9Dg.s:824    .text:0000000000000278 .L0 
GAS LISTING /tmp/cc6bA9Dg.s 			page 38


     /tmp/cc6bA9Dg.s:828    .text:0000000000000288 .L0 
test/Threads_CPP_API_test.cpp:88     .text:0000000000000288 .L0 
     /tmp/cc6bA9Dg.s:834    .text:000000000000028c .L0 
     /tmp/cc6bA9Dg.s:836    .text:000000000000028c .L0 
     /tmp/cc6bA9Dg.s:839    .text:0000000000000294 .L0 
     /tmp/cc6bA9Dg.s:840    .text:0000000000000294 .L0 
test/Threads_CPP_API_test.cpp:92     .text:0000000000000294 .L0 
     /tmp/cc6bA9Dg.s:847    .text:0000000000000298 .L0 
     /tmp/cc6bA9Dg.s:849    .text:0000000000000298 .L0 
     /tmp/cc6bA9Dg.s:853    .text:00000000000002a8 .L0 
     /tmp/cc6bA9Dg.s:854    .text:00000000000002a8 .L0 
     /tmp/cc6bA9Dg.s:860    .text:00000000000002bc .L0 
     /tmp/cc6bA9Dg.s:861    .text:00000000000002bc .L0 
     /tmp/cc6bA9Dg.s:865    .text:00000000000002cc .L0 
     /tmp/cc6bA9Dg.s:866    .text:00000000000002cc .L0 
     /tmp/cc6bA9Dg.s:872    .text:00000000000002dc .L0 
     /tmp/cc6bA9Dg.s:873    .text:00000000000002dc .L0 
     /tmp/cc6bA9Dg.s:878    .text:00000000000002ec .L0 
     /tmp/cc6bA9Dg.s:879    .text:00000000000002ec .L0 
     /tmp/cc6bA9Dg.s:885    .text:0000000000000300 .L0 
     /tmp/cc6bA9Dg.s:886    .text:0000000000000300 .L0 
     /tmp/cc6bA9Dg.s:892    .text:0000000000000314 .L0 
     /tmp/cc6bA9Dg.s:893    .text:0000000000000314 .L0 
     /tmp/cc6bA9Dg.s:897    .text:0000000000000324 .L0 
     /tmp/cc6bA9Dg.s:898    .text:0000000000000324 .L0 
     /tmp/cc6bA9Dg.s:904    .text:0000000000000338 .L0 
     /tmp/cc6bA9Dg.s:905    .text:0000000000000338 .L0 
     /tmp/cc6bA9Dg.s:909    .text:0000000000000348 .L0 
     /tmp/cc6bA9Dg.s:915    .text:0000000000000350 .L0 
     /tmp/cc6bA9Dg.s:916    .text:0000000000000350 .L0 
     /tmp/cc6bA9Dg.s:919    .text:0000000000000358 .L0 
     /tmp/cc6bA9Dg.s:920    .text:0000000000000358 .L0 
     /tmp/cc6bA9Dg.s:924    .text:0000000000000368 .L0 
     /tmp/cc6bA9Dg.s:925    .text:0000000000000368 .L0 
     /tmp/cc6bA9Dg.s:928    .text:0000000000000374 .L0 
     /tmp/cc6bA9Dg.s:929    .text:0000000000000374 .L0 
     /tmp/cc6bA9Dg.s:932    .text:000000000000037c .L0 
     /tmp/cc6bA9Dg.s:933    .text:0000000000000380 .L0 
     /tmp/cc6bA9Dg.s:935    .text:0000000000000384 .L0 
     /tmp/cc6bA9Dg.s:936    .text:0000000000000384 .L0 
     /tmp/cc6bA9Dg.s:938    .text:0000000000000388 .L0 
     /tmp/cc6bA9Dg.s:941    .text:000000000000038c .L0 
     /tmp/cc6bA9Dg.s:944    .text:0000000000000390 .L0 
     /tmp/cc6bA9Dg.s:946    .text:0000000000000394 .L0 
     /tmp/cc6bA9Dg.s:953    .text._ZN7WorkerC3runEv:0000000000000000 _ZN7WorkerC3runEv
     /tmp/cc6bA9Dg.s:956    .text._ZN7WorkerC3runEv:0000000000000000 .L0 
     /tmp/cc6bA9Dg.s:958    .text._ZN7WorkerC3runEv:0000000000000000 .L0 
     /tmp/cc6bA9Dg.s:959    .text._ZN7WorkerC3runEv:0000000000000004 .L0 
     /tmp/cc6bA9Dg.s:962    .text._ZN7WorkerC3runEv:000000000000000c .L0 
     /tmp/cc6bA9Dg.s:963    .text._ZN7WorkerC3runEv:000000000000000c .L0 
     /tmp/cc6bA9Dg.s:965    .text._ZN7WorkerC3runEv:0000000000000010 .L0 
     /tmp/cc6bA9Dg.s:967    .text._ZN7WorkerC3runEv:0000000000000010 .L0 
     /tmp/cc6bA9Dg.s:968    .text._ZN7WorkerC3runEv:0000000000000010 .L0 
     /tmp/cc6bA9Dg.s:972    .text._ZN7WorkerC3runEv:000000000000001c .L0 
     /tmp/cc6bA9Dg.s:973    .text._ZN7WorkerC3runEv:0000000000000020 .L0 
     /tmp/cc6bA9Dg.s:975    .text._ZN7WorkerC3runEv:0000000000000024 .L0 
     /tmp/cc6bA9Dg.s:976    .text._ZN7WorkerC3runEv:0000000000000024 .L0 
GAS LISTING /tmp/cc6bA9Dg.s 			page 39


     /tmp/cc6bA9Dg.s:978    .text._ZN7WorkerC3runEv:0000000000000028 .L0 
     /tmp/cc6bA9Dg.s:980    .text._ZN7WorkerC3runEv:000000000000002c .L0 
     /tmp/cc6bA9Dg.s:1000   .text:0000000000000394 _ZN7WorkerD11workerBodyDEPv
     /tmp/cc6bA9Dg.s:1003   .text:0000000000000394 .L0 
     /tmp/cc6bA9Dg.s:1005   .text:0000000000000394 .L0 
     /tmp/cc6bA9Dg.s:1006   .text:0000000000000398 .L0 
     /tmp/cc6bA9Dg.s:1011   .text:00000000000003a8 .L0 
     /tmp/cc6bA9Dg.s:1012   .text:00000000000003a8 .L0 
     /tmp/cc6bA9Dg.s:1013   .text:00000000000003a8 .L0 
     /tmp/cc6bA9Dg.s:1014   .text:00000000000003a8 .L0 
     /tmp/cc6bA9Dg.s:1016   .text:00000000000003ac .L0 
     /tmp/cc6bA9Dg.s:1019   .text:00000000000003ac .L0 
     /tmp/cc6bA9Dg.s:1020   .text:00000000000003ac .L0 
     /tmp/cc6bA9Dg.s:1025   .text:00000000000003b4 .L0 
     /tmp/cc6bA9Dg.s:1026   .text:00000000000003b4 .L0 
     /tmp/cc6bA9Dg.s:1030   .text:00000000000003c4 .L0 
     /tmp/cc6bA9Dg.s:1031   .text:00000000000003c4 .L0 
     /tmp/cc6bA9Dg.s:1037   .text:00000000000003d8 .L0 
     /tmp/cc6bA9Dg.s:1038   .text:00000000000003d8 .L0 
     /tmp/cc6bA9Dg.s:1042   .text:00000000000003e8 .L0 
     /tmp/cc6bA9Dg.s:1048   .text:00000000000003f0 .L0 
     /tmp/cc6bA9Dg.s:1049   .text:00000000000003f0 .L0 
     /tmp/cc6bA9Dg.s:1052   .text:00000000000003f8 .L0 
     /tmp/cc6bA9Dg.s:1053   .text:00000000000003f8 .L0 
     /tmp/cc6bA9Dg.s:1057   .text:0000000000000408 .L0 
test/Threads_CPP_API_test.cpp:115    .text:0000000000000408 .L0 
     /tmp/cc6bA9Dg.s:1063   .text:000000000000040c .L0 
     /tmp/cc6bA9Dg.s:1065   .text:000000000000040c .L0 
     /tmp/cc6bA9Dg.s:1068   .text:0000000000000414 .L0 
     /tmp/cc6bA9Dg.s:1069   .text:0000000000000414 .L0 
     /tmp/cc6bA9Dg.s:1075   .text:0000000000000424 .L0 
     /tmp/cc6bA9Dg.s:1076   .text:0000000000000424 .L0 
     /tmp/cc6bA9Dg.s:1081   .text:0000000000000434 .L0 
     /tmp/cc6bA9Dg.s:1082   .text:0000000000000434 .L0 
     /tmp/cc6bA9Dg.s:1088   .text:0000000000000448 .L0 
     /tmp/cc6bA9Dg.s:1089   .text:0000000000000448 .L0 
     /tmp/cc6bA9Dg.s:1095   .text:000000000000045c .L0 
     /tmp/cc6bA9Dg.s:1096   .text:000000000000045c .L0 
     /tmp/cc6bA9Dg.s:1100   .text:000000000000046c .L0 
     /tmp/cc6bA9Dg.s:1101   .text:000000000000046c .L0 
     /tmp/cc6bA9Dg.s:1107   .text:0000000000000480 .L0 
     /tmp/cc6bA9Dg.s:1108   .text:0000000000000480 .L0 
     /tmp/cc6bA9Dg.s:1112   .text:0000000000000490 .L0 
     /tmp/cc6bA9Dg.s:1118   .text:0000000000000498 .L0 
     /tmp/cc6bA9Dg.s:1119   .text:0000000000000498 .L0 
     /tmp/cc6bA9Dg.s:1122   .text:00000000000004a0 .L0 
     /tmp/cc6bA9Dg.s:1123   .text:00000000000004a0 .L0 
     /tmp/cc6bA9Dg.s:1127   .text:00000000000004b0 .L0 
     /tmp/cc6bA9Dg.s:1128   .text:00000000000004b0 .L0 
     /tmp/cc6bA9Dg.s:1131   .text:00000000000004bc .L0 
     /tmp/cc6bA9Dg.s:1132   .text:00000000000004bc .L0 
     /tmp/cc6bA9Dg.s:1135   .text:00000000000004c4 .L0 
     /tmp/cc6bA9Dg.s:1136   .text:00000000000004c8 .L0 
     /tmp/cc6bA9Dg.s:1138   .text:00000000000004cc .L0 
     /tmp/cc6bA9Dg.s:1139   .text:00000000000004cc .L0 
     /tmp/cc6bA9Dg.s:1141   .text:00000000000004d0 .L0 
     /tmp/cc6bA9Dg.s:1144   .text:00000000000004d4 .L0 
GAS LISTING /tmp/cc6bA9Dg.s 			page 40


     /tmp/cc6bA9Dg.s:1147   .text:00000000000004d8 .L0 
     /tmp/cc6bA9Dg.s:1149   .text:00000000000004dc .L0 
     /tmp/cc6bA9Dg.s:1156   .text._ZN7WorkerD3runEv:0000000000000000 _ZN7WorkerD3runEv
     /tmp/cc6bA9Dg.s:1159   .text._ZN7WorkerD3runEv:0000000000000000 .L0 
     /tmp/cc6bA9Dg.s:1161   .text._ZN7WorkerD3runEv:0000000000000000 .L0 
     /tmp/cc6bA9Dg.s:1162   .text._ZN7WorkerD3runEv:0000000000000004 .L0 
     /tmp/cc6bA9Dg.s:1165   .text._ZN7WorkerD3runEv:000000000000000c .L0 
     /tmp/cc6bA9Dg.s:1166   .text._ZN7WorkerD3runEv:000000000000000c .L0 
     /tmp/cc6bA9Dg.s:1168   .text._ZN7WorkerD3runEv:0000000000000010 .L0 
     /tmp/cc6bA9Dg.s:1170   .text._ZN7WorkerD3runEv:0000000000000010 .L0 
     /tmp/cc6bA9Dg.s:1171   .text._ZN7WorkerD3runEv:0000000000000010 .L0 
     /tmp/cc6bA9Dg.s:1175   .text._ZN7WorkerD3runEv:000000000000001c .L0 
     /tmp/cc6bA9Dg.s:1176   .text._ZN7WorkerD3runEv:0000000000000020 .L0 
     /tmp/cc6bA9Dg.s:1178   .text._ZN7WorkerD3runEv:0000000000000024 .L0 
     /tmp/cc6bA9Dg.s:1179   .text._ZN7WorkerD3runEv:0000000000000024 .L0 
     /tmp/cc6bA9Dg.s:1181   .text._ZN7WorkerD3runEv:0000000000000028 .L0 
     /tmp/cc6bA9Dg.s:1183   .text._ZN7WorkerD3runEv:000000000000002c .L0 
     /tmp/cc6bA9Dg.s:1203   .text:00000000000004dc _Z20Threads_CPP_API_testv
     /tmp/cc6bA9Dg.s:1206   .text:00000000000004dc .L0 
     /tmp/cc6bA9Dg.s:1207   .text:00000000000004dc .L0 
     /tmp/cc6bA9Dg.s:1208   .text:00000000000004e0 .L0 
     /tmp/cc6bA9Dg.s:1212   .text:00000000000004ec .L0 
     /tmp/cc6bA9Dg.s:1213   .text:00000000000004ec .L0 
     /tmp/cc6bA9Dg.s:1214   .text:00000000000004ec .L0 
     /tmp/cc6bA9Dg.s:1216   .text:00000000000004f0 .L0 
     /tmp/cc6bA9Dg.s:1218   .text:00000000000004f0 .L0 
     /tmp/cc6bA9Dg.s:1219   .text:00000000000004f0 .L0 
     /tmp/cc6bA9Dg.s:1220   .text:00000000000004f0 .L0 
     /tmp/cc6bA9Dg.s:1226   .text:00000000000004fc .L0 
     /tmp/cc6bA9Dg.s:1232   .text:0000000000000508 .L0 
     /tmp/cc6bA9Dg.s:1234   .text:000000000000050c .L0 
     /tmp/cc6bA9Dg.s:1235   .text:000000000000050c .L0 
     /tmp/cc6bA9Dg.s:1239   .text:000000000000051c .L0 
     /tmp/cc6bA9Dg.s:1240   .text:000000000000051c .L0 
     /tmp/cc6bA9Dg.s:1246   .text:0000000000000528 .L0 
     /tmp/cc6bA9Dg.s:1252   .text:0000000000000534 .L0 
     /tmp/cc6bA9Dg.s:1254   .text:0000000000000538 .L0 
     /tmp/cc6bA9Dg.s:1255   .text:0000000000000538 .L0 
     /tmp/cc6bA9Dg.s:1259   .text:0000000000000548 .L0 
     /tmp/cc6bA9Dg.s:1260   .text:0000000000000548 .L0 
     /tmp/cc6bA9Dg.s:1266   .text:0000000000000554 .L0 
     /tmp/cc6bA9Dg.s:1272   .text:0000000000000560 .L0 
     /tmp/cc6bA9Dg.s:1274   .text:0000000000000564 .L0 
     /tmp/cc6bA9Dg.s:1275   .text:0000000000000564 .L0 
     /tmp/cc6bA9Dg.s:1279   .text:0000000000000574 .L0 
     /tmp/cc6bA9Dg.s:1280   .text:0000000000000574 .L0 
     /tmp/cc6bA9Dg.s:1286   .text:0000000000000580 .L0 
     /tmp/cc6bA9Dg.s:1292   .text:000000000000058c .L0 
     /tmp/cc6bA9Dg.s:1294   .text:0000000000000590 .L0 
     /tmp/cc6bA9Dg.s:1295   .text:0000000000000590 .L0 
     /tmp/cc6bA9Dg.s:1300   .text:00000000000005a0 .L0 
     /tmp/cc6bA9Dg.s:1304   .text:00000000000005a4 .L0 
     /tmp/cc6bA9Dg.s:1307   .text:00000000000005ac .L0 
     /tmp/cc6bA9Dg.s:1308   .text:00000000000005ac .L0 
     /tmp/cc6bA9Dg.s:1312   .text:00000000000005b8 .L0 
     /tmp/cc6bA9Dg.s:1316   .text:00000000000005c4 .L0 
     /tmp/cc6bA9Dg.s:1323   .text:00000000000005cc .L0 
GAS LISTING /tmp/cc6bA9Dg.s 			page 41


     /tmp/cc6bA9Dg.s:1324   .text:00000000000005cc .L0 
     /tmp/cc6bA9Dg.s:1328   .text:00000000000005d4 .L0 
     /tmp/cc6bA9Dg.s:1329   .text:00000000000005d4 .L0 
     /tmp/cc6bA9Dg.s:1330   .text:00000000000005d4 .L0 
     /tmp/cc6bA9Dg.s:1332   .text:00000000000005dc .L0 
     /tmp/cc6bA9Dg.s:1334   .text:00000000000005e0 .L0 
     /tmp/cc6bA9Dg.s:1336   .text:00000000000005e8 .L0 
     /tmp/cc6bA9Dg.s:1338   .text:00000000000005ec .L0 
     /tmp/cc6bA9Dg.s:1340   .text:00000000000005f4 .L0 
     /tmp/cc6bA9Dg.s:1342   .text:00000000000005f8 .L0 
     /tmp/cc6bA9Dg.s:1344   .text:0000000000000600 .L0 
     /tmp/cc6bA9Dg.s:1352   .text:000000000000060c .L0 
     /tmp/cc6bA9Dg.s:1356   .text:0000000000000610 .L0 
     /tmp/cc6bA9Dg.s:1359   .text:0000000000000618 .L0 
     /tmp/cc6bA9Dg.s:1362   .text:000000000000061c .L0 
     /tmp/cc6bA9Dg.s:1363   .text:000000000000061c .L0 
     /tmp/cc6bA9Dg.s:1365   .text:0000000000000620 .L0 
     /tmp/cc6bA9Dg.s:1373   .text:0000000000000630 .L0 
     /tmp/cc6bA9Dg.s:1374   .text:0000000000000634 .L0 
     /tmp/cc6bA9Dg.s:1376   .text:0000000000000638 .L0 
     /tmp/cc6bA9Dg.s:1377   .text:0000000000000638 .L0 
     /tmp/cc6bA9Dg.s:1379   .text:000000000000063c .L0 
     /tmp/cc6bA9Dg.s:1382   .text:0000000000000640 .L0 
     /tmp/cc6bA9Dg.s:1384   .text:0000000000000644 .L0 
     /tmp/cc6bA9Dg.s:1432   .bss:0000000000000000 .LANCHOR0
     /tmp/cc6bA9Dg.s:1435   .bss:0000000000000000 _ZL9finishedA
     /tmp/cc6bA9Dg.s:1439   .bss:0000000000000001 _ZL9finishedB
     /tmp/cc6bA9Dg.s:1443   .bss:0000000000000002 _ZL9finishedC
     /tmp/cc6bA9Dg.s:1447   .bss:0000000000000003 _ZL9finishedD
     /tmp/cc6bA9Dg.s:1455   .text:0000000000000644 .L0 
     /tmp/cc6bA9Dg.s:114    .text._ZN7WorkerAD2Ev:0000000000000034 .L0 
     /tmp/cc6bA9Dg.s:161    .text._ZN7WorkerAD0Ev:000000000000004c .L0 
     /tmp/cc6bA9Dg.s:198    .text._ZN7WorkerBD2Ev:0000000000000034 .L0 
     /tmp/cc6bA9Dg.s:245    .text._ZN7WorkerBD0Ev:000000000000004c .L0 
     /tmp/cc6bA9Dg.s:282    .text._ZN7WorkerCD2Ev:0000000000000034 .L0 
     /tmp/cc6bA9Dg.s:329    .text._ZN7WorkerCD0Ev:000000000000004c .L0 
     /tmp/cc6bA9Dg.s:366    .text._ZN7WorkerDD2Ev:0000000000000034 .L0 
     /tmp/cc6bA9Dg.s:413    .text._ZN7WorkerDD0Ev:000000000000004c .L0 
     /tmp/cc6bA9Dg.s:583    .text._ZN7WorkerA3runEv:000000000000002c .L0 
     /tmp/cc6bA9Dg.s:754    .text._ZN7WorkerB3runEv:000000000000002c .L0 
     /tmp/cc6bA9Dg.s:983    .text._ZN7WorkerC3runEv:000000000000002c .L0 
     /tmp/cc6bA9Dg.s:1186   .text._ZN7WorkerD3runEv:000000000000002c .L0 
     /tmp/cc6bA9Dg.s:415    .rodata.str1.8:0000000000000000 .LC0
     /tmp/cc6bA9Dg.s:498    .text:00000000000000d0 .L0 
     /tmp/cc6bA9Dg.s:418    .rodata.str1.8:0000000000000008 .LC1
     /tmp/cc6bA9Dg.s:510    .text:00000000000000f4 .L0 
     /tmp/cc6bA9Dg.s:421    .rodata.str1.8:0000000000000010 .LC2
     /tmp/cc6bA9Dg.s:525    .text:000000000000010c .L0 
     /tmp/cc6bA9Dg.s:531    .text:0000000000000120 .L0 
     /tmp/cc6bA9Dg.s:585    .rodata.str1.8:0000000000000020 .LC3
     /tmp/cc6bA9Dg.s:665    .text:000000000000019c .L0 
     /tmp/cc6bA9Dg.s:677    .text:00000000000001c0 .L0 
     /tmp/cc6bA9Dg.s:588    .rodata.str1.8:0000000000000028 .LC4
     /tmp/cc6bA9Dg.s:692    .text:00000000000001d8 .L0 
     /tmp/cc6bA9Dg.s:698    .text:00000000000001ec .L0 
     /tmp/cc6bA9Dg.s:756    .rodata.str1.8:0000000000000038 .LC5
     /tmp/cc6bA9Dg.s:797    .text:0000000000000234 .L0 
GAS LISTING /tmp/cc6bA9Dg.s 			page 42


     /tmp/cc6bA9Dg.s:809    .text:0000000000000258 .L0 
     /tmp/cc6bA9Dg.s:759    .rodata.str1.8:0000000000000040 .LC6
     /tmp/cc6bA9Dg.s:824    .text:0000000000000278 .L0 
     /tmp/cc6bA9Dg.s:762    .rodata.str1.8:0000000000000050 .LC7
     /tmp/cc6bA9Dg.s:849    .text:0000000000000298 .L0 
     /tmp/cc6bA9Dg.s:861    .text:00000000000002bc .L0 
     /tmp/cc6bA9Dg.s:765    .rodata.str1.8:0000000000000058 .LC8
     /tmp/cc6bA9Dg.s:873    .text:00000000000002dc .L0 
     /tmp/cc6bA9Dg.s:886    .text:0000000000000300 .L0 
     /tmp/cc6bA9Dg.s:893    .text:0000000000000314 .L0 
     /tmp/cc6bA9Dg.s:905    .text:0000000000000338 .L0 
     /tmp/cc6bA9Dg.s:920    .text:0000000000000358 .L0 
     /tmp/cc6bA9Dg.s:926    .text:000000000000036c .L0 
     /tmp/cc6bA9Dg.s:985    .rodata.str1.8:0000000000000068 .LC9
     /tmp/cc6bA9Dg.s:1026   .text:00000000000003b4 .L0 
     /tmp/cc6bA9Dg.s:1038   .text:00000000000003d8 .L0 
     /tmp/cc6bA9Dg.s:988    .rodata.str1.8:0000000000000070 .LC10
     /tmp/cc6bA9Dg.s:1053   .text:00000000000003f8 .L0 
     /tmp/cc6bA9Dg.s:991    .rodata.str1.8:0000000000000080 .LC11
     /tmp/cc6bA9Dg.s:1076   .text:0000000000000424 .L0 
     /tmp/cc6bA9Dg.s:1089   .text:0000000000000448 .L0 
     /tmp/cc6bA9Dg.s:1096   .text:000000000000045c .L0 
     /tmp/cc6bA9Dg.s:1108   .text:0000000000000480 .L0 
     /tmp/cc6bA9Dg.s:994    .rodata.str1.8:0000000000000090 .LC12
     /tmp/cc6bA9Dg.s:1123   .text:00000000000004a0 .L0 
     /tmp/cc6bA9Dg.s:1129   .text:00000000000004b4 .L0 
     /tmp/cc6bA9Dg.s:1226   .text:00000000000004fc .L0 
     /tmp/cc6bA9Dg.s:1188   .rodata.str1.8:00000000000000a0 .LC13
     /tmp/cc6bA9Dg.s:1235   .text:000000000000050c .L0 
     /tmp/cc6bA9Dg.s:1246   .text:0000000000000528 .L0 
     /tmp/cc6bA9Dg.s:1191   .rodata.str1.8:00000000000000b8 .LC14
     /tmp/cc6bA9Dg.s:1255   .text:0000000000000538 .L0 
     /tmp/cc6bA9Dg.s:1266   .text:0000000000000554 .L0 
     /tmp/cc6bA9Dg.s:1194   .rodata.str1.8:00000000000000d0 .LC15
     /tmp/cc6bA9Dg.s:1275   .text:0000000000000564 .L0 
     /tmp/cc6bA9Dg.s:1286   .text:0000000000000580 .L0 
     /tmp/cc6bA9Dg.s:1197   .rodata.str1.8:00000000000000e8 .LC16
     /tmp/cc6bA9Dg.s:1295   .text:0000000000000590 .L0 
     /tmp/cc6bA9Dg.s:1330   .text:00000000000005d4 .L0 
     /tmp/cc6bA9Dg.s:1334   .text:00000000000005e0 .L0 
     /tmp/cc6bA9Dg.s:1338   .text:00000000000005ec .L0 
     /tmp/cc6bA9Dg.s:1342   .text:00000000000005f8 .L0 
     /tmp/cc6bA9Dg.s:50     .text:0000000000000050 .L1
     /tmp/cc6bA9Dg.s:67     .text:0000000000000068 .L6
     /tmp/cc6bA9Dg.s:37     .text:0000000000000030 .L3
     /tmp/cc6bA9Dg.s:491    .text:00000000000000c8 .L29
     /tmp/cc6bA9Dg.s:483    .text:00000000000000c4 .L25
     /tmp/cc6bA9Dg.s:451    .text:0000000000000094 .L26
     /tmp/cc6bA9Dg.s:472    .text:00000000000000b0 .L27
     /tmp/cc6bA9Dg.s:519    .text:000000000000010c .L24
     /tmp/cc6bA9Dg.s:463    .text:00000000000000a0 .L28
     /tmp/cc6bA9Dg.s:658    .text:0000000000000194 .L39
     /tmp/cc6bA9Dg.s:650    .text:0000000000000190 .L35
     /tmp/cc6bA9Dg.s:618    .text:0000000000000160 .L36
     /tmp/cc6bA9Dg.s:639    .text:000000000000017c .L37
     /tmp/cc6bA9Dg.s:686    .text:00000000000001d8 .L34
     /tmp/cc6bA9Dg.s:630    .text:000000000000016c .L38
GAS LISTING /tmp/cc6bA9Dg.s 			page 43


     /tmp/cc6bA9Dg.s:817    .text:0000000000000270 .L45
     /tmp/cc6bA9Dg.s:794    .text:0000000000000234 .L49
     /tmp/cc6bA9Dg.s:913    .text:0000000000000350 .L47
     /tmp/cc6bA9Dg.s:890    .text:0000000000000314 .L50
     /tmp/cc6bA9Dg.s:1046   .text:00000000000003f0 .L55
     /tmp/cc6bA9Dg.s:1023   .text:00000000000003b4 .L59
     /tmp/cc6bA9Dg.s:1116   .text:0000000000000498 .L57
     /tmp/cc6bA9Dg.s:1093   .text:000000000000045c .L60
     /tmp/cc6bA9Dg.s:1326   .text:00000000000005d4 .L64
     /tmp/cc6bA9Dg.s:1301   .text:00000000000005a4 .L65
     /tmp/cc6bA9Dg.s:1320   .text:00000000000005cc .L66
     /tmp/cc6bA9Dg.s:1354   .text:0000000000000610 .L67
     /tmp/cc6bA9Dg.s:1370   .text:0000000000000630 .L63
     /tmp/cc6bA9Dg.s:1349   .text:000000000000060c .L69
     /tmp/cc6bA9Dg.s:96     .text._ZN7WorkerAD2Ev:0000000000000010 .L0 
     /tmp/cc6bA9Dg.s:138    .text._ZN7WorkerAD0Ev:0000000000000018 .L0 
     /tmp/cc6bA9Dg.s:180    .text._ZN7WorkerBD2Ev:0000000000000010 .L0 
     /tmp/cc6bA9Dg.s:222    .text._ZN7WorkerBD0Ev:0000000000000018 .L0 
     /tmp/cc6bA9Dg.s:264    .text._ZN7WorkerCD2Ev:0000000000000010 .L0 
     /tmp/cc6bA9Dg.s:306    .text._ZN7WorkerCD0Ev:0000000000000018 .L0 
     /tmp/cc6bA9Dg.s:348    .text._ZN7WorkerDD2Ev:0000000000000010 .L0 
     /tmp/cc6bA9Dg.s:390    .text._ZN7WorkerDD0Ev:0000000000000018 .L0 
     /tmp/cc6bA9Dg.s:3602   .debug_abbrev:0000000000000000 .Ldebug_abbrev0
     /tmp/cc6bA9Dg.s:5195   .debug_str:00000000000004d4 .LASF99
     /tmp/cc6bA9Dg.s:5053   .debug_str:00000000000000b6 .LASF100
     /tmp/cc6bA9Dg.s:5075   .debug_str:0000000000000149 .LASF101
     /tmp/cc6bA9Dg.s:4985   .debug_ranges:0000000000000000 .Ldebug_ranges0
     /tmp/cc6bA9Dg.s:5027   .debug_line:0000000000000000 .Ldebug_line0
     /tmp/cc6bA9Dg.s:5143   .debug_str:0000000000000365 .LASF0
     /tmp/cc6bA9Dg.s:5151   .debug_str:0000000000000395 .LASF1
     /tmp/cc6bA9Dg.s:5133   .debug_str:0000000000000310 .LASF2
     /tmp/cc6bA9Dg.s:5073   .debug_str:0000000000000143 .LASF3
     /tmp/cc6bA9Dg.s:5109   .debug_str:000000000000026e .LASF4
     /tmp/cc6bA9Dg.s:5185   .debug_str:000000000000048b .LASF5
     /tmp/cc6bA9Dg.s:5049   .debug_str:000000000000009f .LASF6
     /tmp/cc6bA9Dg.s:5155   .debug_str:00000000000003b7 .LASF7
     /tmp/cc6bA9Dg.s:5141   .debug_str:0000000000000352 .LASF8
     /tmp/cc6bA9Dg.s:5203   .debug_str:00000000000005be .LASF9
     /tmp/cc6bA9Dg.s:5091   .debug_str:00000000000001f1 .LASF10
     /tmp/cc6bA9Dg.s:5167   .debug_str:000000000000040b .LASF11
     /tmp/cc6bA9Dg.s:5199   .debug_str:00000000000005a8 .LASF12
     /tmp/cc6bA9Dg.s:5051   .debug_str:00000000000000a6 .LASF13
     /tmp/cc6bA9Dg.s:5037   .debug_str:000000000000003b .LASF14
     /tmp/cc6bA9Dg.s:5065   .debug_str:0000000000000101 .LASF15
     /tmp/cc6bA9Dg.s:5179   .debug_str:0000000000000459 .LASF16
     /tmp/cc6bA9Dg.s:5071   .debug_str:000000000000012d .LASF17
     /tmp/cc6bA9Dg.s:5157   .debug_str:00000000000003ca .LASF18
     /tmp/cc6bA9Dg.s:5105   .debug_str:000000000000025a .LASF19
     /tmp/cc6bA9Dg.s:5081   .debug_str:0000000000000194 .LASF20
     /tmp/cc6bA9Dg.s:5107   .debug_str:0000000000000264 .LASF21
     /tmp/cc6bA9Dg.s:5039   .debug_str:000000000000004b .LASF22
     /tmp/cc6bA9Dg.s:5111   .debug_str:0000000000000275 .LASF23
     /tmp/cc6bA9Dg.s:5169   .debug_str:000000000000041a .LASF24
     /tmp/cc6bA9Dg.s:5137   .debug_str:000000000000032e .LASF25
     /tmp/cc6bA9Dg.s:5101   .debug_str:000000000000023d .LASF26
     /tmp/cc6bA9Dg.s:5147   .debug_str:0000000000000382 .LASF27
     /tmp/cc6bA9Dg.s:5041   .debug_str:0000000000000055 .LASF39
GAS LISTING /tmp/cc6bA9Dg.s 			page 44


     /tmp/cc6bA9Dg.s:5131   .debug_str:0000000000000300 .LASF41
     /tmp/cc6bA9Dg.s:5043   .debug_str:0000000000000071 .LASF29
     /tmp/cc6bA9Dg.s:5061   .debug_str:00000000000000ef .LASF28
     /tmp/cc6bA9Dg.s:5135   .debug_str:000000000000031e .LASF45
     /tmp/cc6bA9Dg.s:5201   .debug_str:00000000000005b7 .LASF75
     /tmp/cc6bA9Dg.s:5177   .debug_str:000000000000044a .LASF77
     /tmp/cc6bA9Dg.s:5127   .debug_str:00000000000002df .LASF30
     /tmp/cc6bA9Dg.s:5089   .debug_str:00000000000001de .LASF31
     /tmp/cc6bA9Dg.s:5097   .debug_str:0000000000000222 .LASF33
     /tmp/cc6bA9Dg.s:5085   .debug_str:00000000000001ae .LASF32
     /tmp/cc6bA9Dg.s:5223   .debug_str:0000000000000642 .LASF34
     /tmp/cc6bA9Dg.s:5213   .debug_str:0000000000000601 .LASF35
     /tmp/cc6bA9Dg.s:5231   .debug_str:000000000000068a .LASF36
     /tmp/cc6bA9Dg.s:5035   .debug_str:0000000000000028 .LASF37
     /tmp/cc6bA9Dg.s:5045   .debug_str:0000000000000083 .LASF38
     /tmp/cc6bA9Dg.s:5077   .debug_str:0000000000000168 .LASF40
     /tmp/cc6bA9Dg.s:5215   .debug_str:0000000000000609 .LASF42
     /tmp/cc6bA9Dg.s:5139   .debug_str:0000000000000340 .LASF43
     /tmp/cc6bA9Dg.s:5059   .debug_str:00000000000000e6 .LASF44
     /tmp/cc6bA9Dg.s:5067   .debug_str:000000000000010d .LASF46
     /tmp/cc6bA9Dg.s:5165   .debug_str:0000000000000403 .LASF47
     /tmp/cc6bA9Dg.s:5121   .debug_str:00000000000002b5 .LASF48
     /tmp/cc6bA9Dg.s:5171   .debug_str:0000000000000422 .LASF49
     /tmp/cc6bA9Dg.s:5033   .debug_str:000000000000001c .LASF50
     /tmp/cc6bA9Dg.s:5229   .debug_str:000000000000066e .LASF51
     /tmp/cc6bA9Dg.s:5145   .debug_str:0000000000000372 .LASF52
     /tmp/cc6bA9Dg.s:5233   .debug_str:000000000000069c .LASF53
     /tmp/cc6bA9Dg.s:5057   .debug_str:00000000000000dd .LASF54
     /tmp/cc6bA9Dg.s:5193   .debug_str:00000000000004c4 .LASF55
     /tmp/cc6bA9Dg.s:5163   .debug_str:00000000000003fb .LASF56
     /tmp/cc6bA9Dg.s:5211   .debug_str:00000000000005ef .LASF57
     /tmp/cc6bA9Dg.s:5095   .debug_str:000000000000020f .LASF58
     /tmp/cc6bA9Dg.s:5031   .debug_str:0000000000000010 .LASF59
     /tmp/cc6bA9Dg.s:5161   .debug_str:00000000000003df .LASF60
     /tmp/cc6bA9Dg.s:5197   .debug_str:0000000000000598 .LASF61
     /tmp/cc6bA9Dg.s:5123   .debug_str:00000000000002c7 .LASF62
     /tmp/cc6bA9Dg.s:5055   .debug_str:00000000000000d4 .LASF63
     /tmp/cc6bA9Dg.s:5129   .debug_str:00000000000002f0 .LASF64
     /tmp/cc6bA9Dg.s:5173   .debug_str:0000000000000435 .LASF65
     /tmp/cc6bA9Dg.s:5103   .debug_str:0000000000000250 .LASF66
     /tmp/cc6bA9Dg.s:5219   .debug_str:0000000000000626 .LASF67
     /tmp/cc6bA9Dg.s:119    .text._ZN7WorkerAD0Ev:0000000000000000 .LFB42
     /tmp/cc6bA9Dg.s:159    .text._ZN7WorkerAD0Ev:000000000000004c .LFE42
     /tmp/cc6bA9Dg.s:4393   .debug_loc:0000000000000000 .LLST2
     /tmp/cc6bA9Dg.s:135    .text._ZN7WorkerAD0Ev:0000000000000018 .LBB49
     /tmp/cc6bA9Dg.s:143    .text._ZN7WorkerAD0Ev:000000000000002c .LBE49
     /tmp/cc6bA9Dg.s:4411   .debug_loc:000000000000004c .LLST3
     /tmp/cc6bA9Dg.s:141    .text._ZN7WorkerAD0Ev:000000000000002c .LVL11
     /tmp/cc6bA9Dg.s:146    .text._ZN7WorkerAD0Ev:0000000000000038 .LVL12
     /tmp/cc6bA9Dg.s:5175   .debug_str:000000000000043a .LASF68
     /tmp/cc6bA9Dg.s:82     .text._ZN7WorkerAD2Ev:0000000000000000 .LFB40
     /tmp/cc6bA9Dg.s:110    .text._ZN7WorkerAD2Ev:0000000000000034 .LFE40
     /tmp/cc6bA9Dg.s:4422   .debug_loc:0000000000000082 .LLST1
     /tmp/cc6bA9Dg.s:99     .text._ZN7WorkerAD2Ev:0000000000000024 .LVL8
     /tmp/cc6bA9Dg.s:5079   .debug_str:0000000000000184 .LASF69
     /tmp/cc6bA9Dg.s:203    .text._ZN7WorkerBD0Ev:0000000000000000 .LFB38
     /tmp/cc6bA9Dg.s:243    .text._ZN7WorkerBD0Ev:000000000000004c .LFE38
GAS LISTING /tmp/cc6bA9Dg.s 			page 45


     /tmp/cc6bA9Dg.s:4436   .debug_loc:00000000000000bb .LLST5
     /tmp/cc6bA9Dg.s:219    .text._ZN7WorkerBD0Ev:0000000000000018 .LBB52
     /tmp/cc6bA9Dg.s:227    .text._ZN7WorkerBD0Ev:000000000000002c .LBE52
     /tmp/cc6bA9Dg.s:4454   .debug_loc:0000000000000107 .LLST6
     /tmp/cc6bA9Dg.s:225    .text._ZN7WorkerBD0Ev:000000000000002c .LVL18
     /tmp/cc6bA9Dg.s:230    .text._ZN7WorkerBD0Ev:0000000000000038 .LVL19
     /tmp/cc6bA9Dg.s:5093   .debug_str:00000000000001ff .LASF70
     /tmp/cc6bA9Dg.s:166    .text._ZN7WorkerBD2Ev:0000000000000000 .LFB36
     /tmp/cc6bA9Dg.s:194    .text._ZN7WorkerBD2Ev:0000000000000034 .LFE36
     /tmp/cc6bA9Dg.s:4465   .debug_loc:000000000000013d .LLST4
     /tmp/cc6bA9Dg.s:183    .text._ZN7WorkerBD2Ev:0000000000000024 .LVL15
     /tmp/cc6bA9Dg.s:5117   .debug_str:000000000000029b .LASF71
     /tmp/cc6bA9Dg.s:287    .text._ZN7WorkerCD0Ev:0000000000000000 .LFB34
     /tmp/cc6bA9Dg.s:327    .text._ZN7WorkerCD0Ev:000000000000004c .LFE34
     /tmp/cc6bA9Dg.s:4479   .debug_loc:0000000000000176 .LLST8
     /tmp/cc6bA9Dg.s:303    .text._ZN7WorkerCD0Ev:0000000000000018 .LBB55
     /tmp/cc6bA9Dg.s:311    .text._ZN7WorkerCD0Ev:000000000000002c .LBE55
     /tmp/cc6bA9Dg.s:4497   .debug_loc:00000000000001c2 .LLST9
     /tmp/cc6bA9Dg.s:309    .text._ZN7WorkerCD0Ev:000000000000002c .LVL25
     /tmp/cc6bA9Dg.s:314    .text._ZN7WorkerCD0Ev:0000000000000038 .LVL26
     /tmp/cc6bA9Dg.s:5113   .debug_str:000000000000027f .LASF72
     /tmp/cc6bA9Dg.s:250    .text._ZN7WorkerCD2Ev:0000000000000000 .LFB32
     /tmp/cc6bA9Dg.s:278    .text._ZN7WorkerCD2Ev:0000000000000034 .LFE32
     /tmp/cc6bA9Dg.s:4508   .debug_loc:00000000000001f8 .LLST7
     /tmp/cc6bA9Dg.s:267    .text._ZN7WorkerCD2Ev:0000000000000024 .LVL22
     /tmp/cc6bA9Dg.s:5227   .debug_str:000000000000065e .LASF73
     /tmp/cc6bA9Dg.s:371    .text._ZN7WorkerDD0Ev:0000000000000000 .LFB30
     /tmp/cc6bA9Dg.s:411    .text._ZN7WorkerDD0Ev:000000000000004c .LFE30
     /tmp/cc6bA9Dg.s:4522   .debug_loc:0000000000000231 .LLST11
     /tmp/cc6bA9Dg.s:387    .text._ZN7WorkerDD0Ev:0000000000000018 .LBB58
     /tmp/cc6bA9Dg.s:395    .text._ZN7WorkerDD0Ev:000000000000002c .LBE58
     /tmp/cc6bA9Dg.s:4540   .debug_loc:000000000000027d .LLST12
     /tmp/cc6bA9Dg.s:393    .text._ZN7WorkerDD0Ev:000000000000002c .LVL32
     /tmp/cc6bA9Dg.s:398    .text._ZN7WorkerDD0Ev:0000000000000038 .LVL33
     /tmp/cc6bA9Dg.s:5183   .debug_str:000000000000047b .LASF74
     /tmp/cc6bA9Dg.s:334    .text._ZN7WorkerDD2Ev:0000000000000000 .LFB28
     /tmp/cc6bA9Dg.s:362    .text._ZN7WorkerDD2Ev:0000000000000034 .LFE28
     /tmp/cc6bA9Dg.s:4551   .debug_loc:00000000000002b3 .LLST10
     /tmp/cc6bA9Dg.s:351    .text._ZN7WorkerDD2Ev:0000000000000024 .LVL29
     /tmp/cc6bA9Dg.s:5099   .debug_str:0000000000000228 .LASF76
     /tmp/cc6bA9Dg.s:5087   .debug_str:00000000000001c4 .LASF78
     /tmp/cc6bA9Dg.s:1204   .text:00000000000004dc .LFB26
     /tmp/cc6bA9Dg.s:1385   .text:0000000000000644 .LFE26
     /tmp/cc6bA9Dg.s:5207   .debug_str:00000000000005d8 .LASF79
     /tmp/cc6bA9Dg.s:1298   .text:00000000000005a0 .LBB84
     /tmp/cc6bA9Dg.s:1321   .text:00000000000005cc .LBE84
     /tmp/cc6bA9Dg.s:4565   .debug_loc:00000000000002ec .LLST40
     /tmp/cc6bA9Dg.s:1314   .text:00000000000005c4 .LVL141
     /tmp/cc6bA9Dg.s:1350   .text:000000000000060c .LBB85
     /tmp/cc6bA9Dg.s:1371   .text:0000000000000630 .LBE85
     /tmp/cc6bA9Dg.s:5149   .debug_str:000000000000038e .LASF80
     /tmp/cc6bA9Dg.s:4576   .debug_loc:0000000000000322 .LLST41
     /tmp/cc6bA9Dg.s:5221   .debug_str:0000000000000636 .LASF81
     /tmp/cc6bA9Dg.s:5181   .debug_str:000000000000046f .LASF102
     /tmp/cc6bA9Dg.s:4583   .debug_loc:0000000000000345 .LLST42
     /tmp/cc6bA9Dg.s:5119   .debug_str:00000000000002ab .LASF82
     /tmp/cc6bA9Dg.s:1223   .text:00000000000004fc .LBB76
GAS LISTING /tmp/cc6bA9Dg.s 			page 46


     /tmp/cc6bA9Dg.s:1230   .text:0000000000000508 .LBE76
     /tmp/cc6bA9Dg.s:4590   .debug_loc:0000000000000368 .LLST36
     /tmp/cc6bA9Dg.s:1243   .text:0000000000000528 .LBB78
     /tmp/cc6bA9Dg.s:1250   .text:0000000000000534 .LBE78
     /tmp/cc6bA9Dg.s:4597   .debug_loc:000000000000038b .LLST37
     /tmp/cc6bA9Dg.s:1263   .text:0000000000000554 .LBB80
     /tmp/cc6bA9Dg.s:1270   .text:0000000000000560 .LBE80
     /tmp/cc6bA9Dg.s:4604   .debug_loc:00000000000003ae .LLST38
     /tmp/cc6bA9Dg.s:1283   .text:0000000000000580 .LBB82
     /tmp/cc6bA9Dg.s:1290   .text:000000000000058c .LBE82
     /tmp/cc6bA9Dg.s:4611   .debug_loc:00000000000003d1 .LLST39
     /tmp/cc6bA9Dg.s:1222   .text:00000000000004fc .LVL128
     /tmp/cc6bA9Dg.s:1237   .text:000000000000051c .LVL130
     /tmp/cc6bA9Dg.s:1242   .text:0000000000000528 .LVL131
     /tmp/cc6bA9Dg.s:1257   .text:0000000000000548 .LVL133
     /tmp/cc6bA9Dg.s:1262   .text:0000000000000554 .LVL134
     /tmp/cc6bA9Dg.s:1277   .text:0000000000000574 .LVL136
     /tmp/cc6bA9Dg.s:1282   .text:0000000000000580 .LVL137
     /tmp/cc6bA9Dg.s:1297   .text:00000000000005a0 .LVL139
     /tmp/cc6bA9Dg.s:1325   .text:00000000000005d4 .LVL144
     /tmp/cc6bA9Dg.s:1001   .text:0000000000000394 .LFB25
     /tmp/cc6bA9Dg.s:1150   .text:00000000000004dc .LFE25
     /tmp/cc6bA9Dg.s:4618   .debug_loc:00000000000003f4 .LLST31
     /tmp/cc6bA9Dg.s:4632   .debug_loc:000000000000042d .LLST32
     /tmp/cc6bA9Dg.s:4646   .debug_loc:0000000000000466 .LLST33
     /tmp/cc6bA9Dg.s:5187   .debug_str:000000000000049d .LASF83
     /tmp/cc6bA9Dg.s:4666   .debug_loc:00000000000004c3 .LLST34
     /tmp/cc6bA9Dg.s:1028   .text:00000000000003c4 .LVL104
     /tmp/cc6bA9Dg.s:1035   .text:00000000000003d8 .LVL105
     /tmp/cc6bA9Dg.s:1040   .text:00000000000003e8 .LVL106
     /tmp/cc6bA9Dg.s:1055   .text:0000000000000408 .LVL109
     /tmp/cc6bA9Dg.s:1066   .text:0000000000000414 .LVL110
     /tmp/cc6bA9Dg.s:1071   .text:0000000000000420 .LVL111
     /tmp/cc6bA9Dg.s:1079   .text:0000000000000434 .LVL114
     /tmp/cc6bA9Dg.s:1086   .text:0000000000000448 .LVL115
     /tmp/cc6bA9Dg.s:1091   .text:0000000000000458 .LVL116
     /tmp/cc6bA9Dg.s:1098   .text:000000000000046c .LVL117
     /tmp/cc6bA9Dg.s:1105   .text:0000000000000480 .LVL118
     /tmp/cc6bA9Dg.s:1110   .text:0000000000000490 .LVL119
     /tmp/cc6bA9Dg.s:1125   .text:00000000000004b0 .LVL122
     /tmp/cc6bA9Dg.s:1133   .text:00000000000004c4 .LVL123
     /tmp/cc6bA9Dg.s:772    .text:0000000000000214 .LFB24
     /tmp/cc6bA9Dg.s:947    .text:0000000000000394 .LFE24
     /tmp/cc6bA9Dg.s:4677   .debug_loc:00000000000004f9 .LLST25
     /tmp/cc6bA9Dg.s:4691   .debug_loc:0000000000000532 .LLST26
     /tmp/cc6bA9Dg.s:4705   .debug_loc:000000000000056b .LLST27
     /tmp/cc6bA9Dg.s:4725   .debug_loc:00000000000005c8 .LLST28
     /tmp/cc6bA9Dg.s:4733   .debug_loc:00000000000005ec .LLST29
     /tmp/cc6bA9Dg.s:799    .text:0000000000000244 .LVL73
     /tmp/cc6bA9Dg.s:806    .text:0000000000000258 .LVL74
     /tmp/cc6bA9Dg.s:811    .text:0000000000000268 .LVL75
     /tmp/cc6bA9Dg.s:826    .text:0000000000000288 .LVL78
     /tmp/cc6bA9Dg.s:837    .text:0000000000000294 .LVL79
     /tmp/cc6bA9Dg.s:851    .text:00000000000002a8 .LVL81
     /tmp/cc6bA9Dg.s:858    .text:00000000000002bc .LVL82
     /tmp/cc6bA9Dg.s:863    .text:00000000000002cc .LVL83
     /tmp/cc6bA9Dg.s:868    .text:00000000000002d8 .LVL84
GAS LISTING /tmp/cc6bA9Dg.s 			page 47


     /tmp/cc6bA9Dg.s:876    .text:00000000000002ec .LVL87
     /tmp/cc6bA9Dg.s:883    .text:0000000000000300 .LVL88
     /tmp/cc6bA9Dg.s:888    .text:0000000000000310 .LVL89
     /tmp/cc6bA9Dg.s:895    .text:0000000000000324 .LVL90
     /tmp/cc6bA9Dg.s:902    .text:0000000000000338 .LVL91
     /tmp/cc6bA9Dg.s:907    .text:0000000000000348 .LVL92
     /tmp/cc6bA9Dg.s:922    .text:0000000000000368 .LVL95
     /tmp/cc6bA9Dg.s:930    .text:000000000000037c .LVL96
     /tmp/cc6bA9Dg.s:595    .text:0000000000000140 .LFB23
     /tmp/cc6bA9Dg.s:718    .text:0000000000000214 .LFE23
     /tmp/cc6bA9Dg.s:4744   .debug_loc:0000000000000622 .LLST19
     /tmp/cc6bA9Dg.s:4758   .debug_loc:000000000000065b .LLST20
     /tmp/cc6bA9Dg.s:613    .text:0000000000000158 .LBB68
     /tmp/cc6bA9Dg.s:689    .text:00000000000001d8 .LBE68
     /tmp/cc6bA9Dg.s:4772   .debug_loc:0000000000000694 .LLST21
     /tmp/cc6bA9Dg.s:4784   .debug_loc:00000000000006cb .LLST22
     /tmp/cc6bA9Dg.s:636    .text:0000000000000178 .LBB72
     /tmp/cc6bA9Dg.s:651    .text:0000000000000190 .LBE72
     /tmp/cc6bA9Dg.s:4796   .debug_loc:0000000000000702 .LLST23
     /tmp/cc6bA9Dg.s:625    .text:0000000000000168 .LVL55
     /tmp/cc6bA9Dg.s:667    .text:00000000000001ac .LVL61
     /tmp/cc6bA9Dg.s:674    .text:00000000000001c0 .LVL62
     /tmp/cc6bA9Dg.s:679    .text:00000000000001d0 .LVL63
     /tmp/cc6bA9Dg.s:694    .text:00000000000001e8 .LVL65
     /tmp/cc6bA9Dg.s:702    .text:00000000000001fc .LVL66
     /tmp/cc6bA9Dg.s:428    .text:0000000000000074 .LFB22
     /tmp/cc6bA9Dg.s:547    .text:0000000000000140 .LFE22
     /tmp/cc6bA9Dg.s:4807   .debug_loc:0000000000000738 .LLST13
     /tmp/cc6bA9Dg.s:4821   .debug_loc:0000000000000771 .LLST14
     /tmp/cc6bA9Dg.s:446    .text:000000000000008c .LBB60
     /tmp/cc6bA9Dg.s:522    .text:000000000000010c .LBE60
     /tmp/cc6bA9Dg.s:4835   .debug_loc:00000000000007aa .LLST15
     /tmp/cc6bA9Dg.s:4847   .debug_loc:00000000000007e1 .LLST16
     /tmp/cc6bA9Dg.s:469    .text:00000000000000ac .LBB64
     /tmp/cc6bA9Dg.s:484    .text:00000000000000c4 .LBE64
     /tmp/cc6bA9Dg.s:4859   .debug_loc:0000000000000818 .LLST17
     /tmp/cc6bA9Dg.s:458    .text:000000000000009c .LVL38
     /tmp/cc6bA9Dg.s:500    .text:00000000000000e0 .LVL44
     /tmp/cc6bA9Dg.s:507    .text:00000000000000f4 .LVL45
     /tmp/cc6bA9Dg.s:512    .text:0000000000000104 .LVL46
     /tmp/cc6bA9Dg.s:527    .text:000000000000011c .LVL48
     /tmp/cc6bA9Dg.s:1157   .text._ZN7WorkerD3runEv:0000000000000000 .LFB21
     /tmp/cc6bA9Dg.s:1184   .text._ZN7WorkerD3runEv:000000000000002c .LFE21
     /tmp/cc6bA9Dg.s:4870   .debug_loc:000000000000084e .LLST35
     /tmp/cc6bA9Dg.s:1173   .text._ZN7WorkerD3runEv:000000000000001c .LVL127
     /tmp/cc6bA9Dg.s:5159   .debug_str:00000000000003cf .LASF84
     /tmp/cc6bA9Dg.s:954    .text._ZN7WorkerC3runEv:0000000000000000 .LFB17
     /tmp/cc6bA9Dg.s:981    .text._ZN7WorkerC3runEv:000000000000002c .LFE17
     /tmp/cc6bA9Dg.s:4884   .debug_loc:0000000000000887 .LLST30
     /tmp/cc6bA9Dg.s:970    .text._ZN7WorkerC3runEv:000000000000001c .LVL100
     /tmp/cc6bA9Dg.s:5047   .debug_str:000000000000008f .LASF85
     /tmp/cc6bA9Dg.s:725    .text._ZN7WorkerB3runEv:0000000000000000 .LFB13
     /tmp/cc6bA9Dg.s:752    .text._ZN7WorkerB3runEv:000000000000002c .LFE13
     /tmp/cc6bA9Dg.s:4898   .debug_loc:00000000000008c0 .LLST24
     /tmp/cc6bA9Dg.s:741    .text._ZN7WorkerB3runEv:000000000000001c .LVL69
     /tmp/cc6bA9Dg.s:5191   .debug_str:00000000000004b4 .LASF86
     /tmp/cc6bA9Dg.s:554    .text._ZN7WorkerA3runEv:0000000000000000 .LFB9
GAS LISTING /tmp/cc6bA9Dg.s 			page 48


     /tmp/cc6bA9Dg.s:581    .text._ZN7WorkerA3runEv:000000000000002c .LFE9
     /tmp/cc6bA9Dg.s:4912   .debug_loc:00000000000008f9 .LLST18
     /tmp/cc6bA9Dg.s:570    .text._ZN7WorkerA3runEv:000000000000001c .LVL51
     /tmp/cc6bA9Dg.s:5029   .debug_str:0000000000000000 .LASF87
     /tmp/cc6bA9Dg.s:5209   .debug_str:00000000000005e0 .LASF88
     /tmp/cc6bA9Dg.s:5205   .debug_str:00000000000005ce .LASF103
     /tmp/cc6bA9Dg.s:9      .text:0000000000000000 .LFB2
     /tmp/cc6bA9Dg.s:75     .text:0000000000000074 .LFE2
     /tmp/cc6bA9Dg.s:4926   .debug_loc:0000000000000932 .LLST0
     /tmp/cc6bA9Dg.s:42     .text:000000000000003c .LVL2
     /tmp/cc6bA9Dg.s:47     .text:000000000000004c .LVL3
     /tmp/cc6bA9Dg.s:72     .text:0000000000000070 .LVL6
     /tmp/cc6bA9Dg.s:5235   .debug_str:00000000000006ae .LASF89
     /tmp/cc6bA9Dg.s:5189   .debug_str:00000000000004a4 .LASF90
     /tmp/cc6bA9Dg.s:5125   .debug_str:00000000000002d9 .LASF91
     /tmp/cc6bA9Dg.s:5217   .debug_str:0000000000000619 .LASF92
     /tmp/cc6bA9Dg.s:5225   .debug_str:000000000000064b .LASF93
     /tmp/cc6bA9Dg.s:5115   .debug_str:000000000000028f .LASF94
     /tmp/cc6bA9Dg.s:5153   .debug_str:00000000000003a8 .LASF95
     /tmp/cc6bA9Dg.s:5063   .debug_str:00000000000000f8 .LASF96
     /tmp/cc6bA9Dg.s:5083   .debug_str:0000000000000199 .LASF97
     /tmp/cc6bA9Dg.s:5069   .debug_str:000000000000011d .LASF98
     /tmp/cc6bA9Dg.s:122    .text._ZN7WorkerAD0Ev:0000000000000000 .LVL9
     /tmp/cc6bA9Dg.s:154    .text._ZN7WorkerAD0Ev:0000000000000044 .LVL13
     /tmp/cc6bA9Dg.s:134    .text._ZN7WorkerAD0Ev:0000000000000018 .LVL10
     /tmp/cc6bA9Dg.s:85     .text._ZN7WorkerAD2Ev:0000000000000000 .LVL7
     /tmp/cc6bA9Dg.s:206    .text._ZN7WorkerBD0Ev:0000000000000000 .LVL16
     /tmp/cc6bA9Dg.s:238    .text._ZN7WorkerBD0Ev:0000000000000044 .LVL20
     /tmp/cc6bA9Dg.s:218    .text._ZN7WorkerBD0Ev:0000000000000018 .LVL17
     /tmp/cc6bA9Dg.s:169    .text._ZN7WorkerBD2Ev:0000000000000000 .LVL14
     /tmp/cc6bA9Dg.s:290    .text._ZN7WorkerCD0Ev:0000000000000000 .LVL23
     /tmp/cc6bA9Dg.s:322    .text._ZN7WorkerCD0Ev:0000000000000044 .LVL27
     /tmp/cc6bA9Dg.s:302    .text._ZN7WorkerCD0Ev:0000000000000018 .LVL24
     /tmp/cc6bA9Dg.s:253    .text._ZN7WorkerCD2Ev:0000000000000000 .LVL21
     /tmp/cc6bA9Dg.s:374    .text._ZN7WorkerDD0Ev:0000000000000000 .LVL30
     /tmp/cc6bA9Dg.s:406    .text._ZN7WorkerDD0Ev:0000000000000044 .LVL34
     /tmp/cc6bA9Dg.s:386    .text._ZN7WorkerDD0Ev:0000000000000018 .LVL31
     /tmp/cc6bA9Dg.s:337    .text._ZN7WorkerDD2Ev:0000000000000000 .LVL28
     /tmp/cc6bA9Dg.s:1302   .text:00000000000005a4 .LVL140
     /tmp/cc6bA9Dg.s:1317   .text:00000000000005c8 .LVL142
     /tmp/cc6bA9Dg.s:1319   .text:00000000000005cc .LVL143
     /tmp/cc6bA9Dg.s:1346   .text:0000000000000608 .LVL145
     /tmp/cc6bA9Dg.s:1360   .text:000000000000061c .LVL148
     /tmp/cc6bA9Dg.s:1368   .text:000000000000062c .LVL149
     /tmp/cc6bA9Dg.s:1348   .text:000000000000060c .LVL146
     /tmp/cc6bA9Dg.s:1380   .text:000000000000063c .LVL150
     /tmp/cc6bA9Dg.s:1228   .text:0000000000000508 .LVL129
     /tmp/cc6bA9Dg.s:1248   .text:0000000000000534 .LVL132
     /tmp/cc6bA9Dg.s:1268   .text:0000000000000560 .LVL135
     /tmp/cc6bA9Dg.s:1288   .text:000000000000058c .LVL138
     /tmp/cc6bA9Dg.s:1004   .text:0000000000000394 .LVL101
     /tmp/cc6bA9Dg.s:1022   .text:00000000000003b4 .LVL103
     /tmp/cc6bA9Dg.s:1018   .text:00000000000003ac .LVL102
     /tmp/cc6bA9Dg.s:1043   .text:00000000000003ec .LVL107
     /tmp/cc6bA9Dg.s:1045   .text:00000000000003f0 .LVL108
     /tmp/cc6bA9Dg.s:1113   .text:0000000000000494 .LVL120
     /tmp/cc6bA9Dg.s:1115   .text:0000000000000498 .LVL121
GAS LISTING /tmp/cc6bA9Dg.s 			page 49


     /tmp/cc6bA9Dg.s:1142   .text:00000000000004d0 .LVL124
     /tmp/cc6bA9Dg.s:1073   .text:0000000000000424 .LVL112
     /tmp/cc6bA9Dg.s:1077   .text:000000000000042c .LVL113
     /tmp/cc6bA9Dg.s:1145   .text:00000000000004d4 .LVL125
     /tmp/cc6bA9Dg.s:775    .text:0000000000000214 .LVL70
     /tmp/cc6bA9Dg.s:793    .text:0000000000000234 .LVL72
     /tmp/cc6bA9Dg.s:789    .text:000000000000022c .LVL71
     /tmp/cc6bA9Dg.s:814    .text:000000000000026c .LVL76
     /tmp/cc6bA9Dg.s:816    .text:0000000000000270 .LVL77
     /tmp/cc6bA9Dg.s:910    .text:000000000000034c .LVL93
     /tmp/cc6bA9Dg.s:912    .text:0000000000000350 .LVL94
     /tmp/cc6bA9Dg.s:939    .text:0000000000000388 .LVL97
     /tmp/cc6bA9Dg.s:845    .text:0000000000000298 .LVL80
     /tmp/cc6bA9Dg.s:870    .text:00000000000002dc .LVL85
     /tmp/cc6bA9Dg.s:874    .text:00000000000002e4 .LVL86
     /tmp/cc6bA9Dg.s:942    .text:000000000000038c .LVL98
     /tmp/cc6bA9Dg.s:598    .text:0000000000000140 .LVL52
     /tmp/cc6bA9Dg.s:617    .text:0000000000000160 .LVL54
     /tmp/cc6bA9Dg.s:612    .text:0000000000000158 .LVL53
     /tmp/cc6bA9Dg.s:713    .text:000000000000020c .LVL67
     /tmp/cc6bA9Dg.s:657    .text:0000000000000194 .LVL60
     /tmp/cc6bA9Dg.s:685    .text:00000000000001d8 .LVL64
     /tmp/cc6bA9Dg.s:640    .text:000000000000017c .LVL57
     /tmp/cc6bA9Dg.s:649    .text:0000000000000190 .LVL59
     /tmp/cc6bA9Dg.s:431    .text:0000000000000074 .LVL35
     /tmp/cc6bA9Dg.s:450    .text:0000000000000094 .LVL37
     /tmp/cc6bA9Dg.s:445    .text:000000000000008c .LVL36
     /tmp/cc6bA9Dg.s:542    .text:0000000000000138 .LVL49
     /tmp/cc6bA9Dg.s:490    .text:00000000000000c8 .LVL43
     /tmp/cc6bA9Dg.s:518    .text:000000000000010c .LVL47
     /tmp/cc6bA9Dg.s:473    .text:00000000000000b0 .LVL40
     /tmp/cc6bA9Dg.s:482    .text:00000000000000c4 .LVL42
     /tmp/cc6bA9Dg.s:1160   .text._ZN7WorkerD3runEv:0000000000000000 .LVL126
     /tmp/cc6bA9Dg.s:957    .text._ZN7WorkerC3runEv:0000000000000000 .LVL99
     /tmp/cc6bA9Dg.s:728    .text._ZN7WorkerB3runEv:0000000000000000 .LVL68
     /tmp/cc6bA9Dg.s:557    .text._ZN7WorkerA3runEv:0000000000000000 .LVL50
     /tmp/cc6bA9Dg.s:13     .text:0000000000000000 .LVL0
     /tmp/cc6bA9Dg.s:36     .text:0000000000000030 .LVL1
     /tmp/cc6bA9Dg.s:60     .text:000000000000005c .LVL4
     /tmp/cc6bA9Dg.s:66     .text:0000000000000068 .LVL5
     /tmp/cc6bA9Dg.s:1456   .debug_info:0000000000000000 .Ldebug_info0
     /tmp/cc6bA9Dg.s:5      .text:0000000000000000 .Ltext0
     /tmp/cc6bA9Dg.s:1450   .text:0000000000000644 .Letext0
     /tmp/cc6bA9Dg.s:453    .text:0000000000000094 .LBB62
     /tmp/cc6bA9Dg.s:486    .text:00000000000000c4 .LBE62
     /tmp/cc6bA9Dg.s:514    .text:0000000000000104 .LBB66
     /tmp/cc6bA9Dg.s:520    .text:000000000000010c .LBE66
     /tmp/cc6bA9Dg.s:620    .text:0000000000000160 .LBB70
     /tmp/cc6bA9Dg.s:653    .text:0000000000000190 .LBE70
     /tmp/cc6bA9Dg.s:681    .text:00000000000001d0 .LBB74
     /tmp/cc6bA9Dg.s:687    .text:00000000000001d8 .LBE74
                           .group:0000000000000000 _ZN7WorkerAD5Ev
                           .group:0000000000000000 _ZN7WorkerBD5Ev
                           .group:0000000000000000 _ZN7WorkerCD5Ev
                           .group:0000000000000000 _ZN7WorkerDD5Ev

UNDEFINED SYMBOLS
GAS LISTING /tmp/cc6bA9Dg.s 			page 50


_Z15thread_dispatchv
_ZN6ThreadD2Ev
_ZdlPv
_Z11printStringPKc
_Z8printIntiii
_Znwm
_ZN6Thread5startEv
_ZN6Thread8dispatchEv
